
game.out:     file format elf32-bigmips


Disassembly of section ..generatedStartEntry:

80000400 <_start>:
80000400:	3c 08 80 01 25 08 dc 90 3c 09 00 0f 25 29 0a 00     <...%...<...%)..
80000410:	ad 00 00 00 ad 00 00 04 21 08 00 08 21 29 ff f8     ........!...!)..
80000420:	15 20 ff fb 00 00 00 00 3c 0a 80 00 25 4a 05 c0     . ......<...%J..
80000430:	3c 1d 00 00 27 bd 20 00 01 40 00 08 00 00 00 00     <...'. ..@......

Disassembly of section ..code:

80000450 <idle>:
80000450:	27bdffd8 	addiu	sp,sp,-40
80000454:	afb0001c 	sw	s0,28(sp)
80000458:	00808025 	move	s0,a0
8000045c:	240400fe 	li	a0,254
80000460:	afbf0024 	sw	ra,36(sp)
80000464:	0c0012bc 	jal	80004af0 <osCreateViManager>
80000468:	afb10020 	sw	s1,32(sp)
8000046c:	3c028000 	lui	v0,0x8000
80000470:	8c420300 	lw	v0,768(v0)
80000474:	24030001 	li	v1,1
80000478:	10430021 	beq	v0,v1,80000500 <idle+0xb0>
8000047c:	24030002 	li	v1,2
80000480:	10430028 	beq	v0,v1,80000524 <idle+0xd4>
80000484:	3c048001 	lui	a0,0x8001
80000488:	10400022 	beqz	v0,80000514 <idle+0xc4>
8000048c:	3c048001 	lui	a0,0x8001
80000490:	0c0013b8 	jal	80004ee0 <osViSetSpecialFeatures>
80000494:	240400aa 	li	a0,170
80000498:	3c068001 	lui	a2,0x8001
8000049c:	3c058001 	lui	a1,0x8001
800004a0:	24070008 	li	a3,8
800004a4:	24c6dd8c 	addiu	a2,a2,-8820
800004a8:	24a5dd74 	addiu	a1,a1,-8844
800004ac:	0c00042c 	jal	800010b0 <osCreatePiManager>
800004b0:	24040096 	li	a0,150
800004b4:	2402000a 	li	v0,10
800004b8:	afa20014 	sw	v0,20(sp)
800004bc:	3c028001 	lui	v0,0x8001
800004c0:	2442fdb0 	addiu	v0,v0,-592
800004c4:	3c118001 	lui	s1,0x8001
800004c8:	3c068000 	lui	a2,0x8000
800004cc:	24050003 	li	a1,3
800004d0:	afa20010 	sw	v0,16(sp)
800004d4:	02003825 	move	a3,s0
800004d8:	24c60534 	addiu	a2,a2,1332
800004dc:	0c0011b0 	jal	800046c0 <osCreateThread>
800004e0:	2624fdb0 	addiu	a0,s1,-592
800004e4:	0c001220 	jal	80004880 <osStartThread>
800004e8:	2624fdb0 	addiu	a0,s1,-592
800004ec:	00002825 	move	a1,zero
800004f0:	0c0011ec 	jal	800047b0 <osSetThreadPri>
800004f4:	00002025 	move	a0,zero
800004f8:	1000ffff 	b	800004f8 <idle+0xa8>
800004fc:	00000000 	nop
80000500:	3c048001 	lui	a0,0x8001
80000504:	0c0013a4 	jal	80004e90 <osViSetMode>
80000508:	2484c0d0 	addiu	a0,a0,-16176
8000050c:	1000ffe0 	b	80000490 <idle+0x40>
80000510:	00000000 	nop
80000514:	0c0013a4 	jal	80004e90 <osViSetMode>
80000518:	2484c530 	addiu	a0,a0,-15056
8000051c:	1000ffdc 	b	80000490 <idle+0x40>
80000520:	00000000 	nop
80000524:	0c0013a4 	jal	80004e90 <osViSetMode>
80000528:	2484c990 	addiu	a0,a0,-13936
8000052c:	1000ffd8 	b	80000490 <idle+0x40>
80000530:	00000000 	nop

80000534 <mainproc>:
80000534:	3c058001 	lui	a1,0x8001
80000538:	3c048001 	lui	a0,0x8001
8000053c:	27bdffe8 	addiu	sp,sp,-24
80000540:	24a5dd28 	addiu	a1,a1,-8920
80000544:	2484dd5c 	addiu	a0,a0,-8868
80000548:	24060001 	li	a2,1
8000054c:	afbf0014 	sw	ra,20(sp)
80000550:	0c00071c 	jal	80001c70 <osCreateMesgQueue>
80000554:	afb00010 	sw	s0,16(sp)
80000558:	3c108001 	lui	s0,0x8001
8000055c:	3c058001 	lui	a1,0x8001
80000560:	2604dd44 	addiu	a0,s0,-8892
80000564:	24a5dd24 	addiu	a1,a1,-8924
80000568:	0c00071c 	jal	80001c70 <osCreateMesgQueue>
8000056c:	24060001 	li	a2,1
80000570:	2605dd44 	addiu	a1,s0,-8892
80000574:	00003025 	move	a2,zero
80000578:	0c0007c0 	jal	80001f00 <osSetEventMesg>
8000057c:	24040009 	li	a0,9
80000580:	3c108001 	lui	s0,0x8001
80000584:	3c058001 	lui	a1,0x8001
80000588:	2604dd2c 	addiu	a0,s0,-8916
8000058c:	24a5dcd4 	addiu	a1,a1,-9004
80000590:	0c00071c 	jal	80001c70 <osCreateMesgQueue>
80000594:	24060014 	li	a2,20
80000598:	2604dd2c 	addiu	a0,s0,-8916
8000059c:	24060001 	li	a2,1
800005a0:	0c00138c 	jal	80004e30 <osViSetEvent>
800005a4:	00002825 	move	a1,zero
800005a8:	0c000000 	jal	80000000 <_rsp_cfbSegmentBssEnd+0x7dfda800>
800005ac:	24040004 	li	a0,4
800005b0:	8fbf0014 	lw	ra,20(sp)
800005b4:	8fb00010 	lw	s0,16(sp)
800005b8:	0800041c 	j	80001070 <clearDebugOutput>
800005bc:	27bd0018 	addiu	sp,sp,24

800005c0 <boot>:
800005c0:	3c098001 	lui	t1,0x8001
800005c4:	8d23dcb0 	lw	v1,-9040(t1)
800005c8:	34048000 	li	a0,0x8000
800005cc:	27bdffe0 	addiu	sp,sp,-32
800005d0:	0064202b 	sltu	a0,v1,a0
800005d4:	8d22dcb4 	lw	v0,-9036(t1)
800005d8:	afbf001c 	sw	ra,28(sp)
800005dc:	afb00018 	sw	s0,24(sp)
800005e0:	00003025 	move	a2,zero
800005e4:	10800011 	beqz	a0,8000062c <boot+0x6c>
800005e8:	24070001 	li	a3,1
800005ec:	34088000 	li	t0,0x8000
800005f0:	24440001 	addiu	a0,v0,1
800005f4:	0082102b 	sltu	v0,a0,v0
800005f8:	00072fc2 	srl	a1,a3,0x1f
800005fc:	00063040 	sll	a2,a2,0x1
80000600:	00431821 	addu	v1,v0,v1
80000604:	00a63025 	or	a2,a1,a2
80000608:	00801025 	move	v0,a0
8000060c:	1468fff8 	bne	v1,t0,800005f0 <boot+0x30>
80000610:	00073840 	sll	a3,a3,0x1
80000614:	1480fff7 	bnez	a0,800005f4 <boot+0x34>
80000618:	24440001 	addiu	a0,v0,1
8000061c:	00001825 	move	v1,zero
80000620:	34028000 	li	v0,0x8000
80000624:	ad23dcb4 	sw	v1,-9036(t1)
80000628:	ad22dcb0 	sw	v0,-9040(t1)
8000062c:	3c108010 	lui	s0,0x8010
80000630:	3c058001 	lui	a1,0x8001
80000634:	24a5dc70 	addiu	a1,a1,-9104
80000638:	0c0006f8 	jal	80001be0 <sprintf>
8000063c:	2604ba00 	addiu	a0,s0,-17920
80000640:	0c0003c2 	jal	80000f08 <debugInfo>
80000644:	2604ba00 	addiu	a0,s0,-17920
80000648:	0c001532 	jal	800054c8 <__osInitialize_common>
8000064c:	3c108001 	lui	s0,0x8001
80000650:	0c00050c 	jal	80001430 <osCartRomInit>
80000654:	00000000 	nop
80000658:	2403000a 	li	v1,10
8000065c:	afa30014 	sw	v1,20(sp)
80000660:	3c038001 	lui	v1,0x8001
80000664:	24631f60 	addiu	v1,v1,8032
80000668:	3c068000 	lui	a2,0x8000
8000066c:	26041f60 	addiu	a0,s0,8032
80000670:	afa30010 	sw	v1,16(sp)
80000674:	00003825 	move	a3,zero
80000678:	3c038001 	lui	v1,0x8001
8000067c:	24c60450 	addiu	a2,a2,1104
80000680:	24050001 	li	a1,1
80000684:	0c0011b0 	jal	800046c0 <osCreateThread>
80000688:	ac62dcb8 	sw	v0,-9032(v1)
8000068c:	8fbf001c 	lw	ra,28(sp)
80000690:	26041f60 	addiu	a0,s0,8032
80000694:	8fb00018 	lw	s0,24(sp)
80000698:	08001220 	j	80004880 <osStartThread>
8000069c:	27bd0020 	addiu	sp,sp,32

800006a0 <text_sprite>:
800006a0:	27bdfff8 	addiu	sp,sp,-8
800006a4:	8fb80018 	lw	t8,24(sp)
800006a8:	000718c0 	sll	v1,a3,0x3
800006ac:	00181100 	sll	v0,t8,0x4
800006b0:	afb00004 	sw	s0,4(sp)
800006b4:	a4830004 	sh	v1,4(a0)
800006b8:	8c900034 	lw	s0,52(a0)
800006bc:	a4820006 	sh	v0,6(a0)
800006c0:	1b000033 	blez	t8,80000790 <text_sprite+0xf0>
800006c4:	00005025 	move	t2,zero
800006c8:	0000c825 	move	t9,zero
800006cc:	00006825 	move	t5,zero
800006d0:	00005025 	move	t2,zero
800006d4:	240f000a 	li	t7,10
800006d8:	18e00025 	blez	a3,80000770 <text_sprite+0xd0>
800006dc:	00ad1021 	addu	v0,a1,t5
800006e0:	000a4900 	sll	t1,t2,0x4
800006e4:	8ccb0004 	lw	t3,4(a2)
800006e8:	02094821 	addu	t1,s0,t1
800006ec:	00ea7021 	addu	t6,a3,t2
800006f0:	00ad1021 	addu	v0,a1,t5
800006f4:	80480000 	lb	t0,0(v0)
800006f8:	5100003a 	beqzl	t0,800007e4 <text_sprite+0x144>
800006fc:	8d62000c 	lw	v0,12(t3)
80000700:	510f0027 	beql	t0,t7,800007a0 <text_sprite+0x100>
80000704:	8d6c0000 	lw	t4,0(t3)
80000708:	8ccc0000 	lw	t4,0(a2)
8000070c:	81830000 	lb	v1,0(t4)
80000710:	14600005 	bnez	v1,80000728 <text_sprite+0x88>
80000714:	01801025 	move	v0,t4
80000718:	10000029 	b	800007c0 <text_sprite+0x120>
8000071c:	8d62000c 	lw	v0,12(t3)
80000720:	10600026 	beqz	v1,800007bc <text_sprite+0x11c>
80000724:	24420001 	addiu	v0,v0,1
80000728:	5503fffd 	bnel	t0,v1,80000720 <text_sprite+0x80>
8000072c:	80430001 	lb	v1,1(v0)
80000730:	004c1023 	subu	v0,v0,t4
80000734:	00021100 	sll	v0,v0,0x4
80000738:	01621021 	addu	v0,t3,v0
8000073c:	8c4c0000 	lw	t4,0(v0)
80000740:	8c480004 	lw	t0,4(v0)
80000744:	8c430008 	lw	v1,8(v0)
80000748:	8c42000c 	lw	v0,12(v0)
8000074c:	25ad0001 	addiu	t5,t5,1
80000750:	ad22000c 	sw	v0,12(t1)
80000754:	ad2c0000 	sw	t4,0(t1)
80000758:	ad280004 	sw	t0,4(t1)
8000075c:	ad230008 	sw	v1,8(t1)
80000760:	00ad1021 	addu	v0,a1,t5
80000764:	254a0001 	addiu	t2,t2,1
80000768:	15caffe2 	bne	t6,t2,800006f4 <text_sprite+0x54>
8000076c:	25290010 	addiu	t1,t1,16
80000770:	80420000 	lb	v0,0(v0)
80000774:	27390001 	addiu	t9,t9,1
80000778:	3842000a 	xori	v0,v0,0xa
8000077c:	2c420001 	sltiu	v0,v0,1
80000780:	1719ffd5 	bne	t8,t9,800006d8 <text_sprite+0x38>
80000784:	01a26821 	addu	t5,t5,v0
80000788:	000a5400 	sll	t2,t2,0x10
8000078c:	000a5403 	sra	t2,t2,0x10
80000790:	8fb00004 	lw	s0,4(sp)
80000794:	a48a0028 	sh	t2,40(a0)
80000798:	03e00008 	jr	ra
8000079c:	27bd0008 	addiu	sp,sp,8
800007a0:	8d680004 	lw	t0,4(t3)
800007a4:	8d63000c 	lw	v1,12(t3)
800007a8:	ad2c0000 	sw	t4,0(t1)
800007ac:	ad280004 	sw	t0,4(t1)
800007b0:	ad23000c 	sw	v1,12(t1)
800007b4:	1000ffeb 	b	80000764 <text_sprite+0xc4>
800007b8:	ad200008 	sw	zero,8(t1)
800007bc:	8d62000c 	lw	v0,12(t3)
800007c0:	8d680000 	lw	t0,0(t3)
800007c4:	8d630004 	lw	v1,4(t3)
800007c8:	25ad0001 	addiu	t5,t5,1
800007cc:	ad22000c 	sw	v0,12(t1)
800007d0:	ad280000 	sw	t0,0(t1)
800007d4:	ad230004 	sw	v1,4(t1)
800007d8:	ad200008 	sw	zero,8(t1)
800007dc:	1000ffe1 	b	80000764 <text_sprite+0xc4>
800007e0:	00ad1021 	addu	v0,a1,t5
800007e4:	8d660000 	lw	a2,0(t3)
800007e8:	8d650004 	lw	a1,4(t3)
800007ec:	8d630008 	lw	v1,8(t3)
800007f0:	ad22000c 	sw	v0,12(t1)
800007f4:	2402ffff 	li	v0,-1
800007f8:	ad260000 	sw	a2,0(t1)
800007fc:	8fb00004 	lw	s0,4(sp)
80000800:	ad250004 	sw	a1,4(t1)
80000804:	ad230008 	sw	v1,8(t1)
80000808:	a5220000 	sh	v0,0(t1)
8000080c:	a48a0028 	sh	t2,40(a0)
80000810:	03e00008 	jr	ra
80000814:	27bd0008 	addiu	sp,sp,8

80000818 <my_strchr>:
80000818:	80820000 	lb	v0,0(a0)
8000081c:	14400005 	bnez	v0,80000834 <my_strchr+0x1c>
80000820:	00000000 	nop
80000824:	10000009 	b	8000084c <my_strchr+0x34>
80000828:	00000000 	nop
8000082c:	10400005 	beqz	v0,80000844 <my_strchr+0x2c>
80000830:	24840001 	addiu	a0,a0,1
80000834:	54a2fffd 	bnel	a1,v0,8000082c <my_strchr+0x14>
80000838:	80820001 	lb	v0,1(a0)
8000083c:	03e00008 	jr	ra
80000840:	00801025 	move	v0,a0
80000844:	03e00008 	jr	ra
80000848:	00001025 	move	v0,zero
8000084c:	03e00008 	jr	ra
80000850:	00000000 	nop

80000854 <font_init>:
80000854:	27bdffe0 	addiu	sp,sp,-32
80000858:	8c820000 	lw	v0,0(a0)
8000085c:	afb00018 	sw	s0,24(sp)
80000860:	00808025 	move	s0,a0
80000864:	27a40010 	addiu	a0,sp,16
80000868:	afbf001c 	sw	ra,28(sp)
8000086c:	0c000dd4 	jal	80003750 <spX2Init>
80000870:	afa20010 	sw	v0,16(sp)
80000874:	3c038001 	lui	v1,0x8001
80000878:	2463b1fc 	addiu	v1,v1,-19972
8000087c:	8c640038 	lw	a0,56(v1)
80000880:	3c028001 	lui	v0,0x8001
80000884:	d440dc88 	ldc1	$f0,-9080(v0)
80000888:	ac64003c 	sw	a0,60(v1)
8000088c:	2402ffff 	li	v0,-1
80000890:	3c038001 	lui	v1,0x8001
80000894:	a062b1fb 	sb	v0,-19973(v1)
80000898:	8fa30010 	lw	v1,16(sp)
8000089c:	8fbf001c 	lw	ra,28(sp)
800008a0:	ae030000 	sw	v1,0(s0)
800008a4:	3c038001 	lui	v1,0x8001
800008a8:	a062b1fa 	sb	v0,-19974(v1)
800008ac:	3c038001 	lui	v1,0x8001
800008b0:	a062b1f9 	sb	v0,-19975(v1)
800008b4:	3c038001 	lui	v1,0x8001
800008b8:	a062b1f8 	sb	v0,-19976(v1)
800008bc:	3c028001 	lui	v0,0x8001
800008c0:	ac402114 	sw	zero,8468(v0)
800008c4:	3c028001 	lui	v0,0x8001
800008c8:	24030028 	li	v1,40
800008cc:	ac402110 	sw	zero,8464(v0)
800008d0:	3c028001 	lui	v0,0x8001
800008d4:	ac43b1f4 	sw	v1,-19980(v0)
800008d8:	3c028001 	lui	v0,0x8001
800008dc:	24030001 	li	v1,1
800008e0:	ac43b1f0 	sw	v1,-19984(v0)
800008e4:	3c028001 	lui	v0,0x8001
800008e8:	f440b1e8 	sdc1	$f0,-19992(v0)
800008ec:	3c028001 	lui	v0,0x8001
800008f0:	8fb00018 	lw	s0,24(sp)
800008f4:	f440b1e0 	sdc1	$f0,-20000(v0)
800008f8:	03e00008 	jr	ra
800008fc:	27bd0020 	addiu	sp,sp,32

80000900 <font_finish>:
80000900:	27bdffe0 	addiu	sp,sp,-32
80000904:	8c820000 	lw	v0,0(a0)
80000908:	afb00018 	sw	s0,24(sp)
8000090c:	00808025 	move	s0,a0
80000910:	27a40010 	addiu	a0,sp,16
80000914:	afbf001c 	sw	ra,28(sp)
80000918:	0c00115f 	jal	8000457c <spX2Finish>
8000091c:	afa20010 	sw	v0,16(sp)
80000920:	8fa20010 	lw	v0,16(sp)
80000924:	8fbf001c 	lw	ra,28(sp)
80000928:	2442fff8 	addiu	v0,v0,-8
8000092c:	ae020000 	sw	v0,0(s0)
80000930:	8fb00018 	lw	s0,24(sp)
80000934:	03e00008 	jr	ra
80000938:	27bd0020 	addiu	sp,sp,32

8000093c <font_set_win>:
8000093c:	3c028001 	lui	v0,0x8001
80000940:	ac44b1f4 	sw	a0,-19980(v0)
80000944:	3c028001 	lui	v0,0x8001
80000948:	03e00008 	jr	ra
8000094c:	ac45b1f0 	sw	a1,-19984(v0)

80000950 <font_set_pos>:
80000950:	3c028001 	lui	v0,0x8001
80000954:	ac442114 	sw	a0,8468(v0)
80000958:	3c028001 	lui	v0,0x8001
8000095c:	03e00008 	jr	ra
80000960:	ac452110 	sw	a1,8464(v0)

80000964 <font_set_scale>:
80000964:	3c028001 	lui	v0,0x8001
80000968:	f44cb1e8 	sdc1	$f12,-19992(v0)
8000096c:	3c028001 	lui	v0,0x8001
80000970:	03e00008 	jr	ra
80000974:	f44eb1e0 	sdc1	$f14,-20000(v0)

80000978 <font_set_color>:
80000978:	3c028001 	lui	v0,0x8001
8000097c:	a044b1fb 	sb	a0,-19973(v0)
80000980:	3c028001 	lui	v0,0x8001
80000984:	a045b1fa 	sb	a1,-19974(v0)
80000988:	3c028001 	lui	v0,0x8001
8000098c:	a046b1f9 	sb	a2,-19975(v0)
80000990:	3c028001 	lui	v0,0x8001
80000994:	03e00008 	jr	ra
80000998:	a047b1f8 	sb	a3,-19976(v0)

8000099c <font_set_transparent>:
8000099c:	10800004 	beqz	a0,800009b0 <font_set_transparent+0x14>
800009a0:	24050003 	li	a1,3
800009a4:	3c048001 	lui	a0,0x8001
800009a8:	0800088c 	j	80002230 <spSetAttribute>
800009ac:	2484b1fc 	addiu	a0,a0,-19972
800009b0:	3c048001 	lui	a0,0x8001
800009b4:	0800087c 	j	800021f0 <spClearAttribute>
800009b8:	2484b1fc 	addiu	a0,a0,-19972

800009bc <font_show_string>:
800009bc:	3c028001 	lui	v0,0x8001
800009c0:	8c47b1f4 	lw	a3,-19980(v0)
800009c4:	3c028001 	lui	v0,0x8001
800009c8:	27bdffd8 	addiu	sp,sp,-40
800009cc:	8c46b1f0 	lw	a2,-19984(v0)
800009d0:	afb00018 	sw	s0,24(sp)
800009d4:	3c108001 	lui	s0,0x8001
800009d8:	2610b1fc 	addiu	s0,s0,-19972
800009dc:	afa60010 	sw	a2,16(sp)
800009e0:	24e30001 	addiu	v1,a3,1
800009e4:	24c20001 	addiu	v0,a2,1
800009e8:	3c068001 	lui	a2,0x8001
800009ec:	afb1001c 	sw	s1,28(sp)
800009f0:	000318c0 	sll	v1,v1,0x3
800009f4:	00808825 	move	s1,a0
800009f8:	000210c0 	sll	v0,v0,0x3
800009fc:	02002025 	move	a0,s0
80000a00:	24c6b240 	addiu	a2,a2,-19904
80000a04:	afbf0024 	sw	ra,36(sp)
80000a08:	afb20020 	sw	s2,32(sp)
80000a0c:	8e320000 	lw	s2,0(s1)
80000a10:	a6030004 	sh	v1,4(s0)
80000a14:	0c0001a8 	jal	800006a0 <text_sprite>
80000a18:	a6020006 	sh	v0,6(s0)
80000a1c:	3c028001 	lui	v0,0x8001
80000a20:	8c462110 	lw	a2,8464(v0)
80000a24:	3c028001 	lui	v0,0x8001
80000a28:	0c000892 	jal	80002248 <spX2Move>
80000a2c:	8c452114 	lw	a1,8468(v0)
80000a30:	3c038001 	lui	v1,0x8001
80000a34:	9067b1f9 	lbu	a3,-19975(v1)
80000a38:	3c028001 	lui	v0,0x8001
80000a3c:	3c038001 	lui	v1,0x8001
80000a40:	9042b1f8 	lbu	v0,-19976(v0)
80000a44:	9066b1fa 	lbu	a2,-19974(v1)
80000a48:	3c038001 	lui	v1,0x8001
80000a4c:	9065b1fb 	lbu	a1,-19973(v1)
80000a50:	02002025 	move	a0,s0
80000a54:	0c000884 	jal	80002210 <spColor>
80000a58:	afa20010 	sw	v0,16(sp)
80000a5c:	3c028001 	lui	v0,0x8001
80000a60:	d442b1e0 	ldc1	$f2,-20000(v0)
80000a64:	3c028001 	lui	v0,0x8001
80000a68:	d440b1e8 	ldc1	$f0,-19992(v0)
80000a6c:	462010a0 	cvt.s.d	$f2,$f2
80000a70:	46200020 	cvt.s.d	$f0,$f0
80000a74:	44061000 	mfc1	a2,$f2
80000a78:	44050000 	mfc1	a1,$f0
80000a7c:	0c001190 	jal	80004640 <spScale>
80000a80:	02002025 	move	a0,s0
80000a84:	0c000e42 	jal	80003908 <spX2Draw>
80000a88:	02002025 	move	a0,s0
80000a8c:	8fbf0024 	lw	ra,36(sp)
80000a90:	26430008 	addiu	v1,s2,8
80000a94:	3c04de00 	lui	a0,0xde00
80000a98:	ae440000 	sw	a0,0(s2)
80000a9c:	ae420004 	sw	v0,4(s2)
80000aa0:	8fb00018 	lw	s0,24(sp)
80000aa4:	8fb20020 	lw	s2,32(sp)
80000aa8:	ae230000 	sw	v1,0(s1)
80000aac:	8fb1001c 	lw	s1,28(sp)
80000ab0:	03e00008 	jr	ra
80000ab4:	27bd0028 	addiu	sp,sp,40

80000ab8 <getColorBuffer>:
80000ab8:	3c028007 	lui	v0,0x8007
80000abc:	8c4275f4 	lw	v0,30196(v0)
80000ac0:	00021880 	sll	v1,v0,0x2
80000ac4:	00621021 	addu	v0,v1,v0
80000ac8:	00021900 	sll	v1,v0,0x4
80000acc:	00621823 	subu	v1,v1,v0
80000ad0:	3c028003 	lui	v0,0x8003
80000ad4:	00031ac0 	sll	v1,v1,0xb
80000ad8:	2442c5e0 	addiu	v0,v0,-14880
80000adc:	03e00008 	jr	ra
80000ae0:	00431021 	addu	v0,v0,v1

80000ae4 <render>:
80000ae4:	27bdffc0 	addiu	sp,sp,-64
80000ae8:	afb5002c 	sw	s5,44(sp)
80000aec:	3c158007 	lui	s5,0x8007
80000af0:	8ea375f4 	lw	v1,30196(s5)
80000af4:	afb60030 	sw	s6,48(sp)
80000af8:	00031080 	sll	v0,v1,0x2
80000afc:	00431821 	addu	v1,v0,v1
80000b00:	00031100 	sll	v0,v1,0x4
80000b04:	00431023 	subu	v0,v0,v1
80000b08:	3c168003 	lui	s6,0x8003
80000b0c:	3c038000 	lui	v1,0x8000
80000b10:	000212c0 	sll	v0,v0,0xb
80000b14:	00431021 	addu	v0,v0,v1
80000b18:	26c3c5e0 	addiu	v1,s6,-14880
80000b1c:	00604025 	move	t0,v1
80000b20:	3c058007 	lui	a1,0x8007
80000b24:	24b675f8 	addiu	s6,a1,30200
80000b28:	01021021 	addu	v0,t0,v0
80000b2c:	afbf003c 	sw	ra,60(sp)
80000b30:	afb40028 	sw	s4,40(sp)
80000b34:	afb30024 	sw	s3,36(sp)
80000b38:	afb20020 	sw	s2,32(sp)
80000b3c:	afb00018 	sw	s0,24(sp)
80000b40:	afbe0038 	sw	s8,56(sp)
80000b44:	afb70034 	sw	s7,52(sp)
80000b48:	afb1001c 	sw	s1,28(sp)
80000b4c:	aec2000c 	sw	v0,12(s6)
80000b50:	3c02f700 	lui	v0,0xf700
80000b54:	aec20010 	sw	v0,16(s6)
80000b58:	3c020001 	lui	v0,0x1
80000b5c:	24420001 	addiu	v0,v0,1
80000b60:	aec20014 	sw	v0,20(s6)
80000b64:	3c028001 	lui	v0,0x8001
80000b68:	2442b0e0 	addiu	v0,v0,-20256
80000b6c:	aec2001c 	sw	v0,28(s6)
80000b70:	3c028001 	lui	v0,0x8001
80000b74:	2442b108 	addiu	v0,v0,-20216
80000b78:	aec20024 	sw	v0,36(s6)
80000b7c:	3c02e700 	lui	v0,0xe700
80000b80:	aec20028 	sw	v0,40(s6)
80000b84:	3c02e300 	lui	v0,0xe300
80000b88:	24420a01 	addiu	v0,v0,2561
80000b8c:	aec20030 	sw	v0,48(s6)
80000b90:	3c028007 	lui	v0,0x8007
80000b94:	3c138008 	lui	s3,0x8008
80000b98:	24427638 	addiu	v0,v0,30264
80000b9c:	ae62b5f8 	sw	v0,-18952(s3)
80000ba0:	3c02ed00 	lui	v0,0xed00
80000ba4:	3c06db06 	lui	a2,0xdb06
80000ba8:	aec20038 	sw	v0,56(s6)
80000bac:	3c020050 	lui	v0,0x50
80000bb0:	24c70008 	addiu	a3,a2,8
80000bb4:	244203c0 	addiu	v0,v0,960
80000bb8:	afa30010 	sw	v1,16(sp)
80000bbc:	3c03de00 	lui	v1,0xde00
80000bc0:	3c098007 	lui	t1,0x8007
80000bc4:	aec70008 	sw	a3,8(s6)
80000bc8:	aec30018 	sw	v1,24(s6)
80000bcc:	aec30020 	sw	v1,32(s6)
80000bd0:	2664b5f8 	addiu	a0,s3,-18952
80000bd4:	aec2003c 	sw	v0,60(s6)
80000bd8:	aec00004 	sw	zero,4(s6)
80000bdc:	aec0002c 	sw	zero,44(s6)
80000be0:	aec00034 	sw	zero,52(s6)
80000be4:	aca675f8 	sw	a2,30200(a1)
80000be8:	0c000215 	jal	80000854 <font_init>
80000bec:	ad3675e0 	sw	s6,30176(t1)
80000bf0:	3c028001 	lui	v0,0x8001
80000bf4:	d44edc88 	ldc1	$f14,-9080(v0)
80000bf8:	3c148007 	lui	s4,0x8007
80000bfc:	0c000259 	jal	80000964 <font_set_scale>
80000c00:	46207306 	mov.d	$f12,$f14
80000c04:	24050001 	li	a1,1
80000c08:	0c00024f 	jal	8000093c <font_set_win>
80000c0c:	240400c8 	li	a0,200
80000c10:	24030037 	li	v1,55
80000c14:	269275e4 	addiu	s2,s4,30180
80000c18:	240200ff 	li	v0,255
80000c1c:	ae8375e4 	sw	v1,30180(s4)
80000c20:	2403009b 	li	v1,155
80000c24:	ae420004 	sw	v0,4(s2)
80000c28:	ae430008 	sw	v1,8(s2)
80000c2c:	0c000425 	jal	80001094 <getDebugString>
80000c30:	ae42000c 	sw	v0,12(s2)
80000c34:	00408025 	move	s0,v0
80000c38:	80420000 	lb	v0,0(v0)
80000c3c:	1040002b 	beqz	v0,80000cec <render+0x208>
80000c40:	24110012 	li	s1,18
80000c44:	2677b5f8 	addiu	s7,s3,-18952
80000c48:	241e000a 	li	s8,10
80000c4c:	240700ff 	li	a3,255
80000c50:	00003025 	move	a2,zero
80000c54:	00002025 	move	a0,zero
80000c58:	0c00025e 	jal	80000978 <font_set_color>
80000c5c:	00002825 	move	a1,zero
80000c60:	02202825 	move	a1,s1
80000c64:	0c000254 	jal	80000950 <font_set_pos>
80000c68:	24040013 	li	a0,19
80000c6c:	02002825 	move	a1,s0
80000c70:	0c00026f 	jal	800009bc <font_show_string>
80000c74:	02e02025 	move	a0,s7
80000c78:	26250001 	addiu	a1,s1,1
80000c7c:	0c000254 	jal	80000950 <font_set_pos>
80000c80:	24040012 	li	a0,18
80000c84:	02002825 	move	a1,s0
80000c88:	0c00026f 	jal	800009bc <font_show_string>
80000c8c:	02e02025 	move	a0,s7
80000c90:	9247000f 	lbu	a3,15(s2)
80000c94:	9246000b 	lbu	a2,11(s2)
80000c98:	928475e7 	lbu	a0,30183(s4)
80000c9c:	0c00025e 	jal	80000978 <font_set_color>
80000ca0:	92450007 	lbu	a1,7(s2)
80000ca4:	02202825 	move	a1,s1
80000ca8:	0c000254 	jal	80000950 <font_set_pos>
80000cac:	24040012 	li	a0,18
80000cb0:	02002825 	move	a1,s0
80000cb4:	0c00026f 	jal	800009bc <font_show_string>
80000cb8:	02e02025 	move	a0,s7
80000cbc:	82020000 	lb	v0,0(s0)
80000cc0:	14400005 	bnez	v0,80000cd8 <render+0x1f4>
80000cc4:	00401825 	move	v1,v0
80000cc8:	10000008 	b	80000cec <render+0x208>
80000ccc:	00000000 	nop
80000cd0:	10400006 	beqz	v0,80000cec <render+0x208>
80000cd4:	00401825 	move	v1,v0
80000cd8:	26100001 	addiu	s0,s0,1
80000cdc:	147efffc 	bne	v1,s8,80000cd0 <render+0x1ec>
80000ce0:	82020000 	lb	v0,0(s0)
80000ce4:	1440ffd9 	bnez	v0,80000c4c <render+0x168>
80000ce8:	26310014 	addiu	s1,s1,20
80000cec:	0c000240 	jal	80000900 <font_finish>
80000cf0:	2664b5f8 	addiu	a0,s3,-18952
80000cf4:	8e62b5f8 	lw	v0,-18952(s3)
80000cf8:	3c04e900 	lui	a0,0xe900
80000cfc:	ac440000 	sw	a0,0(v0)
80000d00:	3c04df00 	lui	a0,0xdf00
80000d04:	ac440008 	sw	a0,8(v0)
80000d08:	ac400004 	sw	zero,4(v0)
80000d0c:	24460010 	addiu	a2,v0,16
80000d10:	ac40000c 	sw	zero,12(v0)
80000d14:	3c038001 	lui	v1,0x8001
80000d18:	3c028001 	lui	v0,0x8001
80000d1c:	24639c80 	addiu	v1,v1,-25472
80000d20:	3c108001 	lui	s0,0x8001
80000d24:	24429d50 	addiu	v0,v0,-25264
80000d28:	2610bf90 	addiu	s0,s0,-16496
80000d2c:	00431023 	subu	v0,v0,v1
80000d30:	ae02000c 	sw	v0,12(s0)
80000d34:	3c028001 	lui	v0,0x8001
80000d38:	24429d50 	addiu	v0,v0,-25264
80000d3c:	ae020010 	sw	v0,16(s0)
80000d40:	3c028001 	lui	v0,0x8001
80000d44:	00d63823 	subu	a3,a2,s6
80000d48:	2442d440 	addiu	v0,v0,-11200
80000d4c:	24054000 	li	a1,16384
80000d50:	02c02025 	move	a0,s6
80000d54:	ae030008 	sw	v1,8(s0)
80000d58:	ae070034 	sw	a3,52(s0)
80000d5c:	ae020018 	sw	v0,24(s0)
80000d60:	ae66b5f8 	sw	a2,-18952(s3)
80000d64:	0c000698 	jal	80001a60 <osWritebackDCache>
80000d68:	ae160030 	sw	s6,48(s0)
80000d6c:	0c0007ec 	jal	80001fb0 <osSpTaskLoad>
80000d70:	02002025 	move	a0,s0
80000d74:	0c00086f 	jal	800021bc <osSpTaskStartGo>
80000d78:	02002025 	move	a0,s0
80000d7c:	3c048001 	lui	a0,0x8001
80000d80:	24060001 	li	a2,1
80000d84:	00002825 	move	a1,zero
80000d88:	0c000728 	jal	80001ca0 <osRecvMesg>
80000d8c:	2484dd44 	addiu	a0,a0,-8892
80000d90:	8ea275f4 	lw	v0,30196(s5)
80000d94:	3c118001 	lui	s1,0x8001
80000d98:	00022080 	sll	a0,v0,0x2
80000d9c:	00821021 	addu	v0,a0,v0
80000da0:	00022100 	sll	a0,v0,0x4
80000da4:	00822023 	subu	a0,a0,v0
80000da8:	8fa20010 	lw	v0,16(sp)
80000dac:	000422c0 	sll	a0,a0,0xb
80000db0:	00442021 	addu	a0,v0,a0
80000db4:	0c001414 	jal	80005050 <osViSwapBuffer>
80000db8:	2630dd2c 	addiu	s0,s1,-8916
80000dbc:	8e020008 	lw	v0,8(s0)
80000dc0:	10400009 	beqz	v0,80000de8 <render+0x304>
80000dc4:	2624dd2c 	addiu	a0,s1,-8916
80000dc8:	00003025 	move	a2,zero
80000dcc:	00002825 	move	a1,zero
80000dd0:	0c000728 	jal	80001ca0 <osRecvMesg>
80000dd4:	02002025 	move	a0,s0
80000dd8:	8e020008 	lw	v0,8(s0)
80000ddc:	1440fffb 	bnez	v0,80000dcc <render+0x2e8>
80000de0:	00003025 	move	a2,zero
80000de4:	2624dd2c 	addiu	a0,s1,-8916
80000de8:	24060001 	li	a2,1
80000dec:	0c000728 	jal	80001ca0 <osRecvMesg>
80000df0:	00002825 	move	a1,zero
80000df4:	8ea275f4 	lw	v0,30196(s5)
80000df8:	8fbf003c 	lw	ra,60(sp)
80000dfc:	38420001 	xori	v0,v0,0x1
80000e00:	8fbe0038 	lw	s8,56(sp)
80000e04:	8fb70034 	lw	s7,52(sp)
80000e08:	8fb60030 	lw	s6,48(sp)
80000e0c:	8fb40028 	lw	s4,40(sp)
80000e10:	8fb30024 	lw	s3,36(sp)
80000e14:	8fb20020 	lw	s2,32(sp)
80000e18:	8fb1001c 	lw	s1,28(sp)
80000e1c:	8fb00018 	lw	s0,24(sp)
80000e20:	aea275f4 	sw	v0,30196(s5)
80000e24:	8fb5002c 	lw	s5,44(sp)
80000e28:	03e00008 	jr	ra
80000e2c:	27bd0040 	addiu	sp,sp,64

80000e30 <wrapBuffer>:
80000e30:	3c098010 	lui	t1,0x8010
80000e34:	3c088010 	lui	t0,0x8010
80000e38:	8d24ba68 	lw	a0,-17816(t1)
80000e3c:	8d07ba6c 	lw	a3,-17812(t0)
80000e40:	0087102a 	slt	v0,a0,a3
80000e44:	10400010 	beqz	v0,80000e88 <wrapBuffer+0x58>
80000e48:	3c068010 	lui	a2,0x8010
80000e4c:	24c6ba70 	addiu	a2,a2,-17808
80000e50:	00c72821 	addu	a1,a2,a3
80000e54:	00c01025 	move	v0,a2
80000e58:	00a42823 	subu	a1,a1,a0
80000e5c:	00441821 	addu	v1,v0,a0
80000e60:	80630000 	lb	v1,0(v1)
80000e64:	24420001 	addiu	v0,v0,1
80000e68:	1445fffc 	bne	v0,a1,80000e5c <wrapBuffer+0x2c>
80000e6c:	a043ffff 	sb	v1,-1(v0)
80000e70:	00e42023 	subu	a0,a3,a0
80000e74:	00c43021 	addu	a2,a2,a0
80000e78:	a0c00000 	sb	zero,0(a2)
80000e7c:	ad20ba68 	sw	zero,-17816(t1)
80000e80:	03e00008 	jr	ra
80000e84:	ad04ba6c 	sw	a0,-17812(t0)
80000e88:	00002025 	move	a0,zero
80000e8c:	24c6ba70 	addiu	a2,a2,-17808
80000e90:	00c43021 	addu	a2,a2,a0
80000e94:	a0c00000 	sb	zero,0(a2)
80000e98:	ad20ba68 	sw	zero,-17816(t1)
80000e9c:	03e00008 	jr	ra
80000ea0:	ad04ba6c 	sw	a0,-17812(t0)

80000ea4 <removeOldestLine>:
80000ea4:	3c028010 	lui	v0,0x8010
80000ea8:	3c078010 	lui	a3,0x8010
80000eac:	8ce3ba68 	lw	v1,-17816(a3)
80000eb0:	8c45ba6c 	lw	a1,-17812(v0)
80000eb4:	0065102a 	slt	v0,v1,a1
80000eb8:	10400011 	beqz	v0,80000f00 <removeOldestLine+0x5c>
80000ebc:	3c028010 	lui	v0,0x8010
80000ec0:	2442ba70 	addiu	v0,v0,-17808
80000ec4:	00431021 	addu	v0,v0,v1
80000ec8:	10000003 	b	80000ed8 <removeOldestLine+0x34>
80000ecc:	2406000a 	li	a2,10
80000ed0:	1065000a 	beq	v1,a1,80000efc <removeOldestLine+0x58>
80000ed4:	24420001 	addiu	v0,v0,1
80000ed8:	80440000 	lb	a0,0(v0)
80000edc:	1486fffc 	bne	a0,a2,80000ed0 <removeOldestLine+0x2c>
80000ee0:	24630001 	addiu	v1,v1,1
80000ee4:	3c048010 	lui	a0,0x8010
80000ee8:	8c82ba64 	lw	v0,-17820(a0)
80000eec:	ace3ba68 	sw	v1,-17816(a3)
80000ef0:	2442ffff 	addiu	v0,v0,-1
80000ef4:	03e00008 	jr	ra
80000ef8:	ac82ba64 	sw	v0,-17820(a0)
80000efc:	ace3ba68 	sw	v1,-17816(a3)
80000f00:	03e00008 	jr	ra
80000f04:	00000000 	nop

80000f08 <debugInfo>:
80000f08:	80850000 	lb	a1,0(a0)
80000f0c:	3c0f8010 	lui	t7,0x8010
80000f10:	10a00052 	beqz	a1,8000105c <debugInfo+0x154>
80000f14:	8de3ba6c 	lw	v1,-17812(t7)
80000f18:	27bdfff8 	addiu	sp,sp,-8
80000f1c:	3c078010 	lui	a3,0x8010
80000f20:	24e7ba70 	addiu	a3,a3,-17808
80000f24:	3c188010 	lui	t8,0x8010
80000f28:	240a0001 	li	t2,1
80000f2c:	afb00004 	sw	s0,4(sp)
80000f30:	3c108010 	lui	s0,0x8010
80000f34:	8e0eba64 	lw	t6,-17820(s0)
80000f38:	8f06ba68 	lw	a2,-17816(t8)
80000f3c:	00006025 	move	t4,zero
80000f40:	00004825 	move	t1,zero
80000f44:	2408000a 	li	t0,10
80000f48:	01475023 	subu	t2,t2,a3
80000f4c:	240b0400 	li	t3,1024
80000f50:	10000009 	b	80000f78 <debugInfo+0x70>
80000f54:	24f90400 	addiu	t9,a3,1024
80000f58:	00e31021 	addu	v0,a3,v1
80000f5c:	24630001 	addiu	v1,v1,1
80000f60:	a0450000 	sb	a1,0(v0)
80000f64:	106b0011 	beq	v1,t3,80000fac <debugInfo+0xa4>
80000f68:	24840001 	addiu	a0,a0,1
80000f6c:	80850000 	lb	a1,0(a0)
80000f70:	10a0001e 	beqz	a1,80000fec <debugInfo+0xe4>
80000f74:	00000000 	nop
80000f78:	14a8fff8 	bne	a1,t0,80000f5c <debugInfo+0x54>
80000f7c:	00e31021 	addu	v0,a3,v1
80000f80:	25cd0001 	addiu	t5,t6,1
80000f84:	29a20009 	slti	v0,t5,9
80000f88:	10400022 	beqz	v0,80001014 <debugInfo+0x10c>
80000f8c:	00c3102a 	slt	v0,a2,v1
80000f90:	00e31021 	addu	v0,a3,v1
80000f94:	24630001 	addiu	v1,v1,1
80000f98:	01a07025 	move	t6,t5
80000f9c:	240c0001 	li	t4,1
80000fa0:	a0450000 	sb	a1,0(v0)
80000fa4:	146bfff1 	bne	v1,t3,80000f6c <debugInfo+0x64>
80000fa8:	24840001 	addiu	a0,a0,1
80000fac:	28c20400 	slti	v0,a2,1024
80000fb0:	10400028 	beqz	v0,80001054 <debugInfo+0x14c>
80000fb4:	00e01025 	move	v0,a3
80000fb8:	03262823 	subu	a1,t9,a2
80000fbc:	00461821 	addu	v1,v0,a2
80000fc0:	80630000 	lb	v1,0(v1)
80000fc4:	24420001 	addiu	v0,v0,1
80000fc8:	1445fffc 	bne	v0,a1,80000fbc <debugInfo+0xb4>
80000fcc:	a043ffff 	sb	v1,-1(v0)
80000fd0:	01661823 	subu	v1,t3,a2
80000fd4:	00e31021 	addu	v0,a3,v1
80000fd8:	a0400000 	sb	zero,0(v0)
80000fdc:	80850000 	lb	a1,0(a0)
80000fe0:	24090001 	li	t1,1
80000fe4:	14a0ffe4 	bnez	a1,80000f78 <debugInfo+0x70>
80000fe8:	00003025 	move	a2,zero
80000fec:	55200001 	bnezl	t1,80000ff4 <debugInfo+0xec>
80000ff0:	af06ba68 	sw	a2,-17816(t8)
80000ff4:	55800001 	bnezl	t4,80000ffc <debugInfo+0xf4>
80000ff8:	ae0eba64 	sw	t6,-17820(s0)
80000ffc:	ade3ba6c 	sw	v1,-17812(t7)
80001000:	00e31821 	addu	v1,a3,v1
80001004:	a0600000 	sb	zero,0(v1)
80001008:	8fb00004 	lw	s0,4(sp)
8000100c:	03e00008 	jr	ra
80001010:	27bd0008 	addiu	sp,sp,8
80001014:	1040ffde 	beqz	v0,80000f90 <debugInfo+0x88>
80001018:	00e61021 	addu	v0,a3,a2
8000101c:	10000003 	b	8000102c <debugInfo+0x124>
80001020:	00e36021 	addu	t4,a3,v1
80001024:	504c0008 	beql	v0,t4,80001048 <debugInfo+0x140>
80001028:	01a07025 	move	t6,t5
8000102c:	80490000 	lb	t1,0(v0)
80001030:	01423021 	addu	a2,t2,v0
80001034:	1528fffb 	bne	t1,t0,80001024 <debugInfo+0x11c>
80001038:	24420001 	addiu	v0,v0,1
8000103c:	240c0001 	li	t4,1
80001040:	1000ffc5 	b	80000f58 <debugInfo+0x50>
80001044:	24090001 	li	t1,1
80001048:	240c0001 	li	t4,1
8000104c:	1000ffc2 	b	80000f58 <debugInfo+0x50>
80001050:	24090001 	li	t1,1
80001054:	1000ffdf 	b	80000fd4 <debugInfo+0xcc>
80001058:	00001825 	move	v1,zero
8000105c:	3c078010 	lui	a3,0x8010
80001060:	24e7ba70 	addiu	a3,a3,-17808
80001064:	00e31821 	addu	v1,a3,v1
80001068:	03e00008 	jr	ra
8000106c:	a0600000 	sb	zero,0(v1)

80001070 <clearDebugOutput>:
80001070:	3c028010 	lui	v0,0x8010
80001074:	a040ba70 	sb	zero,-17808(v0)
80001078:	3c028010 	lui	v0,0x8010
8000107c:	ac40ba68 	sw	zero,-17816(v0)
80001080:	3c028010 	lui	v0,0x8010
80001084:	ac40ba6c 	sw	zero,-17812(v0)
80001088:	3c028010 	lui	v0,0x8010
8000108c:	03e00008 	jr	ra
80001090:	ac40ba64 	sw	zero,-17820(v0)

80001094 <getDebugString>:
80001094:	3c028010 	lui	v0,0x8010
80001098:	8c43ba68 	lw	v1,-17816(v0)
8000109c:	3c028010 	lui	v0,0x8010
800010a0:	2442ba70 	addiu	v0,v0,-17808
800010a4:	03e00008 	jr	ra
800010a8:	00431021 	addu	v0,v0,v1
800010ac:	00000000 	nop

800010b0 <osCreatePiManager>:
800010b0:	27bdffc8 	addiu	sp,sp,-56
800010b4:	afb00018 	sw	s0,24(sp)
800010b8:	00808021 	move	s0,a0
800010bc:	afb5002c 	sw	s5,44(sp)
800010c0:	00a0a821 	move	s5,a1
800010c4:	afb40028 	sw	s4,40(sp)
800010c8:	3c148001 	lui	s4,0x8001
800010cc:	2694bfd0 	addiu	s4,s4,-16432
800010d0:	afbf0030 	sw	ra,48(sp)
800010d4:	afb30024 	sw	s3,36(sp)
800010d8:	afb20020 	sw	s2,32(sp)
800010dc:	afb1001c 	sw	s1,28(sp)
800010e0:	8e820000 	lw	v0,0(s4)
800010e4:	00c02821 	move	a1,a2
800010e8:	1440004c 	bnez	v0,8000121c <osCreatePiManager+0x16c>
800010ec:	00e03021 	move	a2,a3
800010f0:	0c00071c 	jal	80001c70 <osCreateMesgQueue>
800010f4:	02a02021 	move	a0,s5
800010f8:	3c138010 	lui	s3,0x8010
800010fc:	2673d020 	addiu	s3,s3,-12256
80001100:	02602021 	move	a0,s3
80001104:	3c058010 	lui	a1,0x8010
80001108:	24a5d038 	addiu	a1,a1,-12232
8000110c:	0c00071c 	jal	80001c70 <osCreateMesgQueue>
80001110:	24060001 	li	a2,1
80001114:	3c028001 	lui	v0,0x8001
80001118:	8c42c010 	lw	v0,-16368(v0)
8000111c:	54400004 	bnezl	v0,80001130 <osCreatePiManager+0x80>
80001120:	24040008 	li	a0,8
80001124:	0c00065c 	jal	80001970 <__osPiCreateAccessQueue>
80001128:	00000000 	nop
8000112c:	24040008 	li	a0,8
80001130:	02602821 	move	a1,s3
80001134:	3c062222 	lui	a2,0x2222
80001138:	0c0007c0 	jal	80001f00 <osSetEventMesg>
8000113c:	34c62222 	ori	a2,a2,0x2222
80001140:	2412ffff 	li	s2,-1
80001144:	0c0011e4 	jal	80004790 <osGetThreadPri>
80001148:	00002021 	move	a0,zero
8000114c:	00401821 	move	v1,v0
80001150:	0070102a 	slt	v0,v1,s0
80001154:	10400005 	beqz	v0,8000116c <osCreatePiManager+0xbc>
80001158:	00000000 	nop
8000115c:	00609021 	move	s2,v1
80001160:	00002021 	move	a0,zero
80001164:	0c0011ec 	jal	800047b0 <osSetThreadPri>
80001168:	02002821 	move	a1,s0
8000116c:	0c001848 	jal	80006120 <__osDisableInt>
80001170:	00000000 	nop
80001174:	3c118010 	lui	s1,0x8010
80001178:	2631be70 	addiu	s1,s1,-16784
8000117c:	02202021 	move	a0,s1
80001180:	00002821 	move	a1,zero
80001184:	3c068000 	lui	a2,0x8000
80001188:	24c615b0 	addiu	a2,a2,5552
8000118c:	24030001 	li	v1,1
80001190:	ae830000 	sw	v1,0(s4)
80001194:	3c038010 	lui	v1,0x8010
80001198:	2463e560 	addiu	v1,v1,-6816
8000119c:	3c018001 	lui	at,0x8001
800011a0:	ac23bfe0 	sw	v1,-16416(at)
800011a4:	3c038000 	lui	v1,0x8000
800011a8:	246362e0 	addiu	v1,v1,25312
800011ac:	3c018001 	lui	at,0x8001
800011b0:	ac23bfe4 	sw	v1,-16412(at)
800011b4:	3c038000 	lui	v1,0x8000
800011b8:	24631240 	addiu	v1,v1,4672
800011bc:	3c018001 	lui	at,0x8001
800011c0:	ac23bfe8 	sw	v1,-16408(at)
800011c4:	3c038010 	lui	v1,0x8010
800011c8:	2463d020 	addiu	v1,v1,-12256
800011cc:	afb00014 	sw	s0,20(sp)
800011d0:	00408021 	move	s0,v0
800011d4:	02803821 	move	a3,s4
800011d8:	3c018001 	lui	at,0x8001
800011dc:	ac31bfd4 	sw	s1,-16428(at)
800011e0:	3c018001 	lui	at,0x8001
800011e4:	ac35bfd8 	sw	s5,-16424(at)
800011e8:	3c018001 	lui	at,0x8001
800011ec:	ac33bfdc 	sw	s3,-16420(at)
800011f0:	0c0011b0 	jal	800046c0 <osCreateThread>
800011f4:	afa30010 	sw	v1,16(sp)
800011f8:	0c001220 	jal	80004880 <osStartThread>
800011fc:	02202021 	move	a0,s1
80001200:	0c001864 	jal	80006190 <__osRestoreInt>
80001204:	02002021 	move	a0,s0
80001208:	2402ffff 	li	v0,-1
8000120c:	12420003 	beq	s2,v0,8000121c <osCreatePiManager+0x16c>
80001210:	00002021 	move	a0,zero
80001214:	0c0011ec 	jal	800047b0 <osSetThreadPri>
80001218:	02402821 	move	a1,s2
8000121c:	8fbf0030 	lw	ra,48(sp)
80001220:	8fb5002c 	lw	s5,44(sp)
80001224:	8fb40028 	lw	s4,40(sp)
80001228:	8fb30024 	lw	s3,36(sp)
8000122c:	8fb20020 	lw	s2,32(sp)
80001230:	8fb1001c 	lw	s1,28(sp)
80001234:	8fb00018 	lw	s0,24(sp)
80001238:	03e00008 	jr	ra
8000123c:	27bd0038 	addiu	sp,sp,56

80001240 <__osEPiRawStartDma>:
80001240:	27bdffd8 	addiu	sp,sp,-40
80001244:	afb00010 	sw	s0,16(sp)
80001248:	00808021 	move	s0,a0
8000124c:	afb10014 	sw	s1,20(sp)
80001250:	00a08821 	move	s1,a1
80001254:	afb20018 	sw	s2,24(sp)
80001258:	00c09021 	move	s2,a2
8000125c:	3c02a460 	lui	v0,0xa460
80001260:	34420010 	ori	v0,v0,0x10
80001264:	afbf0020 	sw	ra,32(sp)
80001268:	afb3001c 	sw	s3,28(sp)
8000126c:	8c420000 	lw	v0,0(v0)
80001270:	8fb30038 	lw	s3,56(sp)
80001274:	30420003 	andi	v0,v0,0x3
80001278:	10400007 	beqz	v0,80001298 <__osEPiRawStartDma+0x58>
8000127c:	00e02021 	move	a0,a3
80001280:	3c03a460 	lui	v1,0xa460
80001284:	34630010 	ori	v1,v1,0x10
80001288:	8c620000 	lw	v0,0(v1)
8000128c:	30420003 	andi	v0,v0,0x3
80001290:	1440fffd 	bnez	v0,80001288 <__osEPiRawStartDma+0x48>
80001294:	00000000 	nop
80001298:	92060009 	lbu	a2,9(s0)
8000129c:	00061080 	sll	v0,a2,0x2
800012a0:	3c058001 	lui	a1,0x8001
800012a4:	00a22821 	addu	a1,a1,v0
800012a8:	8ca5bff0 	lw	a1,-16400(a1)
800012ac:	92020004 	lbu	v0,4(s0)
800012b0:	90a30004 	lbu	v1,4(a1)
800012b4:	1062003d 	beq	v1,v0,800013ac <__osEPiRawStartDma+0x16c>
800012b8:	00000000 	nop
800012bc:	14c00019 	bnez	a2,80001324 <__osEPiRawStartDma+0xe4>
800012c0:	00a01821 	move	v1,a1
800012c4:	90620005 	lbu	v0,5(v1)
800012c8:	92050005 	lbu	a1,5(s0)
800012cc:	10450003 	beq	v0,a1,800012dc <__osEPiRawStartDma+0x9c>
800012d0:	3c02a460 	lui	v0,0xa460
800012d4:	34420014 	ori	v0,v0,0x14
800012d8:	ac450000 	sw	a1,0(v0)
800012dc:	90620006 	lbu	v0,6(v1)
800012e0:	92050006 	lbu	a1,6(s0)
800012e4:	10450003 	beq	v0,a1,800012f4 <__osEPiRawStartDma+0xb4>
800012e8:	3c02a460 	lui	v0,0xa460
800012ec:	3442001c 	ori	v0,v0,0x1c
800012f0:	ac450000 	sw	a1,0(v0)
800012f4:	90620007 	lbu	v0,7(v1)
800012f8:	92050007 	lbu	a1,7(s0)
800012fc:	10450003 	beq	v0,a1,8000130c <__osEPiRawStartDma+0xcc>
80001300:	3c02a460 	lui	v0,0xa460
80001304:	34420020 	ori	v0,v0,0x20
80001308:	ac450000 	sw	a1,0(v0)
8000130c:	90620008 	lbu	v0,8(v1)
80001310:	92050008 	lbu	a1,8(s0)
80001314:	1045001b 	beq	v0,a1,80001384 <__osEPiRawStartDma+0x144>
80001318:	3c02a460 	lui	v0,0xa460
8000131c:	080004e0 	j	80001380 <__osEPiRawStartDma+0x140>
80001320:	34420018 	ori	v0,v0,0x18
80001324:	90620005 	lbu	v0,5(v1)
80001328:	92050005 	lbu	a1,5(s0)
8000132c:	10450003 	beq	v0,a1,8000133c <__osEPiRawStartDma+0xfc>
80001330:	3c02a460 	lui	v0,0xa460
80001334:	34420024 	ori	v0,v0,0x24
80001338:	ac450000 	sw	a1,0(v0)
8000133c:	90620006 	lbu	v0,6(v1)
80001340:	92050006 	lbu	a1,6(s0)
80001344:	10450003 	beq	v0,a1,80001354 <__osEPiRawStartDma+0x114>
80001348:	3c02a460 	lui	v0,0xa460
8000134c:	3442002c 	ori	v0,v0,0x2c
80001350:	ac450000 	sw	a1,0(v0)
80001354:	90620007 	lbu	v0,7(v1)
80001358:	92050007 	lbu	a1,7(s0)
8000135c:	10450003 	beq	v0,a1,8000136c <__osEPiRawStartDma+0x12c>
80001360:	3c02a460 	lui	v0,0xa460
80001364:	34420030 	ori	v0,v0,0x30
80001368:	ac450000 	sw	a1,0(v0)
8000136c:	90620008 	lbu	v0,8(v1)
80001370:	92050008 	lbu	a1,8(s0)
80001374:	10450003 	beq	v0,a1,80001384 <__osEPiRawStartDma+0x144>
80001378:	3c02a460 	lui	v0,0xa460
8000137c:	34420028 	ori	v0,v0,0x28
80001380:	ac450000 	sw	a1,0(v0)
80001384:	92020004 	lbu	v0,4(s0)
80001388:	a0620004 	sb	v0,4(v1)
8000138c:	92020005 	lbu	v0,5(s0)
80001390:	a0620005 	sb	v0,5(v1)
80001394:	92020006 	lbu	v0,6(s0)
80001398:	a0620006 	sb	v0,6(v1)
8000139c:	92020007 	lbu	v0,7(s0)
800013a0:	a0620007 	sb	v0,7(v1)
800013a4:	92020008 	lbu	v0,8(s0)
800013a8:	a0620008 	sb	v0,8(v1)
800013ac:	0c0006b8 	jal	80001ae0 <osVirtualToPhysical>
800013b0:	00000000 	nop
800013b4:	3c04a460 	lui	a0,0xa460
800013b8:	34840004 	ori	a0,a0,0x4
800013bc:	3c03a460 	lui	v1,0xa460
800013c0:	ac620000 	sw	v0,0(v1)
800013c4:	8e02000c 	lw	v0,12(s0)
800013c8:	3c031fff 	lui	v1,0x1fff
800013cc:	3463ffff 	ori	v1,v1,0xffff
800013d0:	00521025 	or	v0,v0,s2
800013d4:	00431024 	and	v0,v0,v1
800013d8:	ac820000 	sw	v0,0(a0)
800013dc:	12200005 	beqz	s1,800013f4 <__osEPiRawStartDma+0x1b4>
800013e0:	24020001 	li	v0,1
800013e4:	12220006 	beq	s1,v0,80001400 <__osEPiRawStartDma+0x1c0>
800013e8:	3c03a460 	lui	v1,0xa460
800013ec:	08000504 	j	80001410 <__osEPiRawStartDma+0x1d0>
800013f0:	2402ffff 	li	v0,-1
800013f4:	3c03a460 	lui	v1,0xa460
800013f8:	08000501 	j	80001404 <__osEPiRawStartDma+0x1c4>
800013fc:	3463000c 	ori	v1,v1,0xc
80001400:	34630008 	ori	v1,v1,0x8
80001404:	2662ffff 	addiu	v0,s3,-1
80001408:	ac620000 	sw	v0,0(v1)
8000140c:	00001021 	move	v0,zero
80001410:	8fbf0020 	lw	ra,32(sp)
80001414:	8fb3001c 	lw	s3,28(sp)
80001418:	8fb20018 	lw	s2,24(sp)
8000141c:	8fb10014 	lw	s1,20(sp)
80001420:	8fb00010 	lw	s0,16(sp)
80001424:	03e00008 	jr	ra
80001428:	27bd0028 	addiu	sp,sp,40
8000142c:	00000000 	nop

80001430 <osCartRomInit>:
80001430:	27bdffe0 	addiu	sp,sp,-32
80001434:	afbf0018 	sw	ra,24(sp)
80001438:	afb10014 	sw	s1,20(sp)
8000143c:	0c000671 	jal	800019c4 <__osPiGetAccess>
80001440:	afb00010 	sw	s0,16(sp)
80001444:	3c028001 	lui	v0,0x8001
80001448:	8c42c000 	lw	v0,-16384(v0)
8000144c:	1040004d 	beqz	v0,80001584 <osCartRomInit+0x154>
80001450:	00000000 	nop
80001454:	3c028010 	lui	v0,0x8010
80001458:	2442e4ec 	addiu	v0,v0,-6932
8000145c:	24440010 	addiu	a0,v0,16
80001460:	3c018001 	lui	at,0x8001
80001464:	ac20c000 	sw	zero,-16384(at)
80001468:	a0400000 	sb	zero,0(v0)
8000146c:	3c02b000 	lui	v0,0xb000
80001470:	3c018010 	lui	at,0x8010
80001474:	ac22e4f4 	sw	v0,-6924(at)
80001478:	3c018010 	lui	at,0x8010
8000147c:	a020e4f1 	sb	zero,-6927(at)
80001480:	3c018010 	lui	at,0x8010
80001484:	ac20e4f8 	sw	zero,-6920(at)
80001488:	0c0006d0 	jal	80001b40 <bzero>
8000148c:	24050060 	li	a1,96
80001490:	3c02a460 	lui	v0,0xa460
80001494:	34420010 	ori	v0,v0,0x10
80001498:	8c420000 	lw	v0,0(v0)
8000149c:	30420003 	andi	v0,v0,0x3
800014a0:	10400006 	beqz	v0,800014bc <osCartRomInit+0x8c>
800014a4:	3c03a460 	lui	v1,0xa460
800014a8:	34630010 	ori	v1,v1,0x10
800014ac:	8c620000 	lw	v0,0(v1)
800014b0:	30420003 	andi	v0,v0,0x3
800014b4:	1440fffd 	bnez	v0,800014ac <osCartRomInit+0x7c>
800014b8:	00000000 	nop
800014bc:	3c08a460 	lui	t0,0xa460
800014c0:	35080014 	ori	t0,t0,0x14
800014c4:	3c07a460 	lui	a3,0xa460
800014c8:	34e7001c 	ori	a3,a3,0x1c
800014cc:	3c06a460 	lui	a2,0xa460
800014d0:	34c60020 	ori	a2,a2,0x20
800014d4:	3c05a460 	lui	a1,0xa460
800014d8:	34a50018 	ori	a1,a1,0x18
800014dc:	8d090000 	lw	t1,0(t0)
800014e0:	8cea0000 	lw	t2,0(a3)
800014e4:	8ccb0000 	lw	t3,0(a2)
800014e8:	8cac0000 	lw	t4,0(a1)
800014ec:	3c118010 	lui	s1,0x8010
800014f0:	2631e4f4 	addiu	s1,s1,-6924
800014f4:	8e230000 	lw	v1,0(s1)
800014f8:	240400ff 	li	a0,255
800014fc:	24020003 	li	v0,3
80001500:	ad040000 	sw	a0,0(t0)
80001504:	ace00000 	sw	zero,0(a3)
80001508:	acc20000 	sw	v0,0(a2)
8000150c:	3c02a000 	lui	v0,0xa000
80001510:	aca40000 	sw	a0,0(a1)
80001514:	00621825 	or	v1,v1,v0
80001518:	8c630000 	lw	v1,0(v1)
8000151c:	ad090000 	sw	t1,0(t0)
80001520:	acea0000 	sw	t2,0(a3)
80001524:	accb0000 	sw	t3,0(a2)
80001528:	acac0000 	sw	t4,0(a1)
8000152c:	00031402 	srl	v0,v1,0x10
80001530:	3042000f 	andi	v0,v0,0xf
80001534:	3c018010 	lui	at,0x8010
80001538:	a022e4ee 	sb	v0,-6930(at)
8000153c:	00031502 	srl	v0,v1,0x14
80001540:	3042000f 	andi	v0,v0,0xf
80001544:	3c018010 	lui	at,0x8010
80001548:	a023e4ed 	sb	v1,-6931(at)
8000154c:	00031a02 	srl	v1,v1,0x8
80001550:	3c018010 	lui	at,0x8010
80001554:	a022e4ef 	sb	v0,-6929(at)
80001558:	3c018010 	lui	at,0x8010
8000155c:	a023e4f0 	sb	v1,-6928(at)
80001560:	0c001848 	jal	80006120 <__osDisableInt>
80001564:	2630fff4 	addiu	s0,s1,-12
80001568:	3c038001 	lui	v1,0x8001
8000156c:	8c63bfec 	lw	v1,-16404(v1)
80001570:	00402021 	move	a0,v0
80001574:	3c018001 	lui	at,0x8001
80001578:	ac30bfec 	sw	s0,-16404(at)
8000157c:	0c001864 	jal	80006190 <__osRestoreInt>
80001580:	ae23fff4 	sw	v1,-12(s1)
80001584:	0c00068c 	jal	80001a30 <__osPiRelAccess>
80001588:	00000000 	nop
8000158c:	3c028010 	lui	v0,0x8010
80001590:	2442e4e8 	addiu	v0,v0,-6936
80001594:	8fbf0018 	lw	ra,24(sp)
80001598:	8fb10014 	lw	s1,20(sp)
8000159c:	8fb00010 	lw	s0,16(sp)
800015a0:	03e00008 	jr	ra
800015a4:	27bd0020 	addiu	sp,sp,32
	...

800015b0 <__osDevMgrMain>:
800015b0:	27bdffb8 	addiu	sp,sp,-72
800015b4:	afb20030 	sw	s2,48(sp)
800015b8:	00809021 	move	s2,a0
800015bc:	afb40038 	sw	s4,56(sp)
800015c0:	24140002 	li	s4,2
800015c4:	afb5003c 	sw	s5,60(sp)
800015c8:	24150001 	li	s5,1
800015cc:	afbf0040 	sw	ra,64(sp)
800015d0:	afb30034 	sw	s3,52(sp)
800015d4:	afb1002c 	sw	s1,44(sp)
800015d8:	afb00028 	sw	s0,40(sp)
800015dc:	afa00018 	sw	zero,24(sp)
800015e0:	8e440008 	lw	a0,8(s2)
800015e4:	27a50018 	addiu	a1,sp,24
800015e8:	0c000728 	jal	80001ca0 <osRecvMesg>
800015ec:	24060001 	li	a2,1
800015f0:	8fa20018 	lw	v0,24(sp)
800015f4:	8c500014 	lw	s0,20(v0)
800015f8:	1200007c 	beqz	s0,800017ec <__osDevMgrMain+0x23c>
800015fc:	00000000 	nop
80001600:	92020004 	lbu	v0,4(s0)
80001604:	14540078 	bne	v0,s4,800017e8 <__osDevMgrMain+0x238>
80001608:	00000000 	nop
8000160c:	8e020014 	lw	v0,20(s0)
80001610:	2c420002 	sltiu	v0,v0,2
80001614:	10400074 	beqz	v0,800017e8 <__osDevMgrMain+0x238>
80001618:	2402ffff 	li	v0,-1
8000161c:	9603001a 	lhu	v1,26(s0)
80001620:	ae02001c 	sw	v0,28(s0)
80001624:	000310c0 	sll	v0,v1,0x3
80001628:	00431021 	addu	v0,v0,v1
8000162c:	00021080 	sll	v0,v0,0x2
80001630:	02021021 	addu	v0,s0,v0
80001634:	96030018 	lhu	v1,24(s0)
80001638:	2451002c 	addiu	s1,v0,44
8000163c:	24020003 	li	v0,3
80001640:	10620005 	beq	v1,v0,80001658 <__osDevMgrMain+0xa8>
80001644:	00000000 	nop
80001648:	8e220004 	lw	v0,4(s1)
8000164c:	8e23000c 	lw	v1,12(s1)
80001650:	00431023 	subu	v0,v0,v1
80001654:	ae220004 	sw	v0,4(s1)
80001658:	96020018 	lhu	v0,24(s0)
8000165c:	14540005 	bne	v0,s4,80001674 <__osDevMgrMain+0xc4>
80001660:	00009821 	move	s3,zero
80001664:	8fa20018 	lw	v0,24(sp)
80001668:	8c420014 	lw	v0,20(v0)
8000166c:	8c420014 	lw	v0,20(v0)
80001670:	2c530001 	sltiu	s3,v0,1
80001674:	8e440010 	lw	a0,16(s2)
80001678:	27a5001c 	addiu	a1,sp,28
8000167c:	0c000728 	jal	80001ca0 <osRecvMesg>
80001680:	24060001 	li	a2,1
80001684:	3c040010 	lui	a0,0x10
80001688:	0c0018a4 	jal	80006290 <__osResetGlobalIntMask>
8000168c:	34840401 	ori	a0,a0,0x401
80001690:	3c050500 	lui	a1,0x500
80001694:	8fa20018 	lw	v0,24(sp)
80001698:	34a50510 	ori	a1,a1,0x510
8000169c:	8e030024 	lw	v1,36(s0)
800016a0:	8c440014 	lw	a0,20(v0)
800016a4:	3c068000 	lui	a2,0x8000
800016a8:	0c001948 	jal	80006520 <__osEPiRawWriteIo>
800016ac:	00663025 	or	a2,v1,a2
800016b0:	8e44000c 	lw	a0,12(s2)
800016b4:	27a50020 	addiu	a1,sp,32
800016b8:	0c000728 	jal	80001ca0 <osRecvMesg>
800016bc:	24060001 	li	a2,1
800016c0:	8fa20018 	lw	v0,24(sp)
800016c4:	8c500014 	lw	s0,20(v0)
800016c8:	9603001a 	lhu	v1,26(s0)
800016cc:	000310c0 	sll	v0,v1,0x3
800016d0:	00431021 	addu	v0,v0,v1
800016d4:	00021080 	sll	v0,v0,0x2
800016d8:	02021021 	addu	v0,s0,v0
800016dc:	2451002c 	addiu	s1,v0,44
800016e0:	8e230000 	lw	v1,0(s1)
800016e4:	2402001d 	li	v0,29
800016e8:	14620027 	bne	v1,v0,80001788 <__osDevMgrMain+0x1d8>
800016ec:	02002021 	move	a0,s0
800016f0:	3c050500 	lui	a1,0x500
800016f4:	8e020024 	lw	v0,36(s0)
800016f8:	34a50510 	ori	a1,a1,0x510
800016fc:	3c061000 	lui	a2,0x1000
80001700:	0c001948 	jal	80006520 <__osEPiRawWriteIo>
80001704:	00463025 	or	a2,v0,a2
80001708:	8fa20018 	lw	v0,24(sp)
8000170c:	8e060024 	lw	a2,36(s0)
80001710:	8c440014 	lw	a0,20(v0)
80001714:	3c050500 	lui	a1,0x500
80001718:	0c001948 	jal	80006520 <__osEPiRawWriteIo>
8000171c:	34a50510 	ori	a1,a1,0x510
80001720:	8fa20018 	lw	v0,24(sp)
80001724:	3c050500 	lui	a1,0x500
80001728:	8c440014 	lw	a0,20(v0)
8000172c:	34a50508 	ori	a1,a1,0x508
80001730:	0c0018ec 	jal	800063b0 <__osEPiRawReadIo>
80001734:	27a60024 	addiu	a2,sp,36
80001738:	8fa20024 	lw	v0,36(sp)
8000173c:	3c030200 	lui	v1,0x200
80001740:	00431024 	and	v0,v0,v1
80001744:	10400008 	beqz	v0,80001768 <__osDevMgrMain+0x1b8>
80001748:	3c050500 	lui	a1,0x500
8000174c:	8fa20018 	lw	v0,24(sp)
80001750:	34a50510 	ori	a1,a1,0x510
80001754:	8e030024 	lw	v1,36(s0)
80001758:	8c440014 	lw	a0,20(v0)
8000175c:	3c060100 	lui	a2,0x100
80001760:	0c001948 	jal	80006520 <__osEPiRawWriteIo>
80001764:	00663025 	or	a2,v1,a2
80001768:	3c03a460 	lui	v1,0xa460
8000176c:	34630010 	ori	v1,v1,0x10
80001770:	3c040010 	lui	a0,0x10
80001774:	24020004 	li	v0,4
80001778:	ae220000 	sw	v0,0(s1)
8000177c:	ac740000 	sw	s4,0(v1)
80001780:	0c001894 	jal	80006250 <__osSetGlobalIntMask>
80001784:	34840c01 	ori	a0,a0,0xc01
80001788:	8fa50018 	lw	a1,24(sp)
8000178c:	8ca40004 	lw	a0,4(a1)
80001790:	0c000774 	jal	80001dd0 <osSendMesg>
80001794:	00003021 	move	a2,zero
80001798:	16750006 	bne	s3,s5,800017b4 <__osDevMgrMain+0x204>
8000179c:	00000000 	nop
800017a0:	8fa20018 	lw	v0,24(sp)
800017a4:	8c420014 	lw	v0,20(v0)
800017a8:	8c42002c 	lw	v0,44(v0)
800017ac:	1040ffc0 	beqz	v0,800016b0 <__osDevMgrMain+0x100>
800017b0:	00009821 	move	s3,zero
800017b4:	8e440010 	lw	a0,16(s2)
800017b8:	00002821 	move	a1,zero
800017bc:	0c000774 	jal	80001dd0 <osSendMesg>
800017c0:	00003021 	move	a2,zero
800017c4:	8fa20018 	lw	v0,24(sp)
800017c8:	8c420014 	lw	v0,20(v0)
800017cc:	9442001a 	lhu	v0,26(v0)
800017d0:	1455ff83 	bne	v0,s5,800015e0 <__osDevMgrMain+0x30>
800017d4:	00000000 	nop
800017d8:	0c001278 	jal	800049e0 <osYieldThread>
800017dc:	00000000 	nop
800017e0:	08000578 	j	800015e0 <__osDevMgrMain+0x30>
800017e4:	00000000 	nop
800017e8:	8fa20018 	lw	v0,24(sp)
800017ec:	94420000 	lhu	v0,0(v0)
800017f0:	2443fff6 	addiu	v1,v0,-10
800017f4:	2c620007 	sltiu	v0,v1,7
800017f8:	10400042 	beqz	v0,80001904 <__osDevMgrMain+0x354>
800017fc:	00031080 	sll	v0,v1,0x2
80001800:	3c018001 	lui	at,0x8001
80001804:	00220821 	addu	at,at,v0
80001808:	8c22d860 	lw	v0,-10144(at)
8000180c:	00400008 	jr	v0
80001810:	00000000 	nop
80001814:	8e440010 	lw	a0,16(s2)
80001818:	27a5001c 	addiu	a1,sp,28
8000181c:	0c000728 	jal	80001ca0 <osRecvMesg>
80001820:	24060001 	li	a2,1
80001824:	8fa20018 	lw	v0,24(sp)
80001828:	8c45000c 	lw	a1,12(v0)
8000182c:	8c460008 	lw	a2,8(v0)
80001830:	8c470010 	lw	a3,16(v0)
80001834:	8e420014 	lw	v0,20(s2)
80001838:	0040f809 	jalr	v0
8000183c:	00002021 	move	a0,zero
80001840:	08000642 	j	80001908 <__osDevMgrMain+0x358>
80001844:	00000000 	nop
80001848:	8e440010 	lw	a0,16(s2)
8000184c:	27a5001c 	addiu	a1,sp,28
80001850:	0c000728 	jal	80001ca0 <osRecvMesg>
80001854:	24060001 	li	a2,1
80001858:	8fa20018 	lw	v0,24(sp)
8000185c:	8c45000c 	lw	a1,12(v0)
80001860:	8c460008 	lw	a2,8(v0)
80001864:	8c470010 	lw	a3,16(v0)
80001868:	8e420014 	lw	v0,20(s2)
8000186c:	0040f809 	jalr	v0
80001870:	24040001 	li	a0,1
80001874:	08000642 	j	80001908 <__osDevMgrMain+0x358>
80001878:	00000000 	nop
8000187c:	8e440010 	lw	a0,16(s2)
80001880:	27a5001c 	addiu	a1,sp,28
80001884:	0c000728 	jal	80001ca0 <osRecvMesg>
80001888:	24060001 	li	a2,1
8000188c:	8fa20018 	lw	v0,24(sp)
80001890:	8c430010 	lw	v1,16(v0)
80001894:	afa30010 	sw	v1,16(sp)
80001898:	8c440014 	lw	a0,20(v0)
8000189c:	8c46000c 	lw	a2,12(v0)
800018a0:	8c470008 	lw	a3,8(v0)
800018a4:	8e420018 	lw	v0,24(s2)
800018a8:	0040f809 	jalr	v0
800018ac:	00002821 	move	a1,zero
800018b0:	08000642 	j	80001908 <__osDevMgrMain+0x358>
800018b4:	00000000 	nop
800018b8:	8e440010 	lw	a0,16(s2)
800018bc:	27a5001c 	addiu	a1,sp,28
800018c0:	0c000728 	jal	80001ca0 <osRecvMesg>
800018c4:	24060001 	li	a2,1
800018c8:	8fa20018 	lw	v0,24(sp)
800018cc:	8c430010 	lw	v1,16(v0)
800018d0:	afa30010 	sw	v1,16(sp)
800018d4:	8c440014 	lw	a0,20(v0)
800018d8:	8c46000c 	lw	a2,12(v0)
800018dc:	8c470008 	lw	a3,8(v0)
800018e0:	8e420018 	lw	v0,24(s2)
800018e4:	0040f809 	jalr	v0
800018e8:	24050001 	li	a1,1
800018ec:	08000642 	j	80001908 <__osDevMgrMain+0x358>
800018f0:	00000000 	nop
800018f4:	8fa50018 	lw	a1,24(sp)
800018f8:	8ca40004 	lw	a0,4(a1)
800018fc:	0c000774 	jal	80001dd0 <osSendMesg>
80001900:	00003021 	move	a2,zero
80001904:	2402ffff 	li	v0,-1
80001908:	1440ff35 	bnez	v0,800015e0 <__osDevMgrMain+0x30>
8000190c:	27a50020 	addiu	a1,sp,32
80001910:	8e44000c 	lw	a0,12(s2)
80001914:	0c000728 	jal	80001ca0 <osRecvMesg>
80001918:	24060001 	li	a2,1
8000191c:	8fa50018 	lw	a1,24(sp)
80001920:	8ca40004 	lw	a0,4(a1)
80001924:	0c000774 	jal	80001dd0 <osSendMesg>
80001928:	00003021 	move	a2,zero
8000192c:	8e440010 	lw	a0,16(s2)
80001930:	00002821 	move	a1,zero
80001934:	0c000774 	jal	80001dd0 <osSendMesg>
80001938:	00003021 	move	a2,zero
8000193c:	08000578 	j	800015e0 <__osDevMgrMain+0x30>
80001940:	00000000 	nop
80001944:	8fbf0040 	lw	ra,64(sp)
80001948:	8fb5003c 	lw	s5,60(sp)
8000194c:	8fb40038 	lw	s4,56(sp)
80001950:	8fb30034 	lw	s3,52(sp)
80001954:	8fb20030 	lw	s2,48(sp)
80001958:	8fb1002c 	lw	s1,44(sp)
8000195c:	8fb00028 	lw	s0,40(sp)
80001960:	03e00008 	jr	ra
80001964:	27bd0048 	addiu	sp,sp,72
	...

80001970 <__osPiCreateAccessQueue>:
80001970:	27bdffe8 	addiu	sp,sp,-24
80001974:	24020001 	li	v0,1
80001978:	afb00010 	sw	s0,16(sp)
8000197c:	3c108010 	lui	s0,0x8010
80001980:	2610e560 	addiu	s0,s0,-6816
80001984:	02002021 	move	a0,s0
80001988:	3c058010 	lui	a1,0x8010
8000198c:	24a5d040 	addiu	a1,a1,-12224
80001990:	afbf0014 	sw	ra,20(sp)
80001994:	3c018001 	lui	at,0x8001
80001998:	ac22c010 	sw	v0,-16368(at)
8000199c:	0c00071c 	jal	80001c70 <osCreateMesgQueue>
800019a0:	24060001 	li	a2,1
800019a4:	02002021 	move	a0,s0
800019a8:	00002821 	move	a1,zero
800019ac:	0c000774 	jal	80001dd0 <osSendMesg>
800019b0:	00003021 	move	a2,zero
800019b4:	8fbf0014 	lw	ra,20(sp)
800019b8:	8fb00010 	lw	s0,16(sp)
800019bc:	03e00008 	jr	ra
800019c0:	27bd0018 	addiu	sp,sp,24

800019c4 <__osPiGetAccess>:
800019c4:	3c028001 	lui	v0,0x8001
800019c8:	8c42c010 	lw	v0,-16368(v0)
800019cc:	27bdffe0 	addiu	sp,sp,-32
800019d0:	1440000f 	bnez	v0,80001a10 <__osPiGetAccess+0x4c>
800019d4:	afbf0018 	sw	ra,24(sp)
800019d8:	24020001 	li	v0,1
800019dc:	3c018001 	lui	at,0x8001
800019e0:	ac22c010 	sw	v0,-16368(at)
800019e4:	3c048010 	lui	a0,0x8010
800019e8:	2484e560 	addiu	a0,a0,-6816
800019ec:	3c058010 	lui	a1,0x8010
800019f0:	24a5d040 	addiu	a1,a1,-12224
800019f4:	0c00071c 	jal	80001c70 <osCreateMesgQueue>
800019f8:	24060001 	li	a2,1
800019fc:	3c048010 	lui	a0,0x8010
80001a00:	2484e560 	addiu	a0,a0,-6816
80001a04:	00002821 	move	a1,zero
80001a08:	0c000774 	jal	80001dd0 <osSendMesg>
80001a0c:	00003021 	move	a2,zero
80001a10:	3c048010 	lui	a0,0x8010
80001a14:	2484e560 	addiu	a0,a0,-6816
80001a18:	27a50010 	addiu	a1,sp,16
80001a1c:	0c000728 	jal	80001ca0 <osRecvMesg>
80001a20:	24060001 	li	a2,1
80001a24:	8fbf0018 	lw	ra,24(sp)
80001a28:	03e00008 	jr	ra
80001a2c:	27bd0020 	addiu	sp,sp,32

80001a30 <__osPiRelAccess>:
80001a30:	27bdffe8 	addiu	sp,sp,-24
80001a34:	afbf0010 	sw	ra,16(sp)
80001a38:	3c048010 	lui	a0,0x8010
80001a3c:	2484e560 	addiu	a0,a0,-6816
80001a40:	00002821 	move	a1,zero
80001a44:	0c000774 	jal	80001dd0 <osSendMesg>
80001a48:	00003021 	move	a2,zero
80001a4c:	8fbf0010 	lw	ra,16(sp)
80001a50:	03e00008 	jr	ra
80001a54:	27bd0018 	addiu	sp,sp,24
	...

80001a60 <osWritebackDCache>:
80001a60:	18a00011 00000000 240b2000 00ab082b     ........$. ....+
80001a70:	1020000f 00000000 00804021 00854821     . ........@!..H!
80001a80:	0109082b 10200008 00000000 2529fff0     ...+. ......%)..
80001a90:	310a000f 010a4023 bd190000 0109082b     1.....@#.......+
80001aa0:	1420fffd 25080010 03e00008 00000000     . ..%...........
80001ab0:	3c088000 010b4821 2529fff0 bd010000     <.....H!%)......
80001ac0:	0109082b 1420fffd 25080010 03e00008     ...+. ..%.......
	...

80001ae0 <osVirtualToPhysical>:
80001ae0:	27bdffe8 	addiu	sp,sp,-24
80001ae4:	3c031fff 	lui	v1,0x1fff
80001ae8:	3463ffff 	ori	v1,v1,0xffff
80001aec:	3c028000 	lui	v0,0x8000
80001af0:	00821023 	subu	v0,a0,v0
80001af4:	0062102b 	sltu	v0,v1,v0
80001af8:	1040000a 	beqz	v0,80001b24 <osVirtualToPhysical+0x44>
80001afc:	afbf0010 	sw	ra,16(sp)
80001b00:	3c026000 	lui	v0,0x6000
80001b04:	00821021 	addu	v0,a0,v0
80001b08:	0062102b 	sltu	v0,v1,v0
80001b0c:	10400006 	beqz	v0,80001b28 <osVirtualToPhysical+0x48>
80001b10:	00831024 	and	v0,a0,v1
80001b14:	0c00128c 	jal	80004a30 <__osProbeTLB>
80001b18:	00000000 	nop
80001b1c:	080006ca 	j	80001b28 <osVirtualToPhysical+0x48>
80001b20:	00000000 	nop
80001b24:	00831024 	and	v0,a0,v1
80001b28:	8fbf0010 	lw	ra,16(sp)
80001b2c:	03e00008 	jr	ra
80001b30:	27bd0018 	addiu	sp,sp,24
	...

80001b40 <bzero>:
80001b40:	00041823 28a1000c 1420001d 00000000     ...#(.... ......
80001b50:	30630003 10600003 00a32823 a8800000     0c...`....(#....
80001b60:	00832021                                .. !

80001b64 <blkzero>:
80001b64:	2401ffe0 00a13824 10e0000c 00a72823     $.....8$......(#
80001b74:	00e43821 ac800000 ac800004 ac800008     ..8!............
80001b84:	ac80000c 24840020 ac80fff0 ac80fff4     ....$.. ........
80001b94:	ac80fff8 1487fff7 ac80fffc              ............

80001ba0 <wordzero>:
80001ba0:	2401fffc 00a13824 10e00005 00a72823     $.....8$......(#
80001bb0:	00e43821 24840004 1487fffe ac80fffc     ..8!$...........

80001bc0 <bytezero>:
80001bc0:	18a00005 00000000 00a42821 24840001     ..........(!$...
80001bd0:	1485fffe a080ffff                       ........

80001bd8 <zerodone>:
80001bd8:	03e00008 00000000                       ........

80001be0 <sprintf>:
80001be0:	afa50004 	sw	a1,4(sp)
80001be4:	afa60008 	sw	a2,8(sp)
80001be8:	afa7000c 	sw	a3,12(sp)
80001bec:	27bdffe8 	addiu	sp,sp,-24
80001bf0:	afb00010 	sw	s0,16(sp)
80001bf4:	00808021 	move	s0,a0
80001bf8:	00a03021 	move	a2,a1
80001bfc:	3c048000 	lui	a0,0x8000
80001c00:	24841c38 	addiu	a0,a0,7224
80001c04:	02002821 	move	a1,s0
80001c08:	afbf0014 	sw	ra,20(sp)
80001c0c:	0c001ab0 	jal	80006ac0 <_Printf>
80001c10:	27a70020 	addiu	a3,sp,32
80001c14:	00401821 	move	v1,v0
80001c18:	04600002 	bltz	v1,80001c24 <sprintf+0x44>
80001c1c:	02031021 	addu	v0,s0,v1
80001c20:	a0400000 	sb	zero,0(v0)
80001c24:	00601021 	move	v0,v1
80001c28:	8fbf0014 	lw	ra,20(sp)
80001c2c:	8fb00010 	lw	s0,16(sp)
80001c30:	03e00008 	jr	ra
80001c34:	27bd0018 	addiu	sp,sp,24

80001c38 <proutSprintf>:
80001c38:	27bdffe0 	addiu	sp,sp,-32
80001c3c:	afb10014 	sw	s1,20(sp)
80001c40:	00808821 	move	s1,a0
80001c44:	afb00010 	sw	s0,16(sp)
80001c48:	afbf0018 	sw	ra,24(sp)
80001c4c:	0c001aa5 	jal	80006a94 <memcpy>
80001c50:	00c08021 	move	s0,a2
80001c54:	02301021 	addu	v0,s1,s0
80001c58:	8fbf0018 	lw	ra,24(sp)
80001c5c:	8fb10014 	lw	s1,20(sp)
80001c60:	8fb00010 	lw	s0,16(sp)
80001c64:	03e00008 	jr	ra
80001c68:	27bd0020 	addiu	sp,sp,32
80001c6c:	00000000 	nop

80001c70 <osCreateMesgQueue>:
80001c70:	3c028001 	lui	v0,0x8001
80001c74:	2442c040 	addiu	v0,v0,-16320
80001c78:	ac820000 	sw	v0,0(a0)
80001c7c:	ac820004 	sw	v0,4(a0)
80001c80:	ac800008 	sw	zero,8(a0)
80001c84:	ac80000c 	sw	zero,12(a0)
80001c88:	ac860010 	sw	a2,16(a0)
80001c8c:	03e00008 	jr	ra
80001c90:	ac850014 	sw	a1,20(a0)
	...

80001ca0 <osRecvMesg>:
80001ca0:	27bdffd8 	addiu	sp,sp,-40
80001ca4:	afb00010 	sw	s0,16(sp)
80001ca8:	00808021 	move	s0,a0
80001cac:	afb40020 	sw	s4,32(sp)
80001cb0:	00a0a021 	move	s4,a1
80001cb4:	afb10014 	sw	s1,20(sp)
80001cb8:	00c08821 	move	s1,a2
80001cbc:	afbf0024 	sw	ra,36(sp)
80001cc0:	afb3001c 	sw	s3,28(sp)
80001cc4:	0c001848 	jal	80006120 <__osDisableInt>
80001cc8:	afb20018 	sw	s2,24(sp)
80001ccc:	8e030008 	lw	v1,8(s0)
80001cd0:	1460000f 	bnez	v1,80001d10 <osRecvMesg+0x70>
80001cd4:	00409021 	move	s2,v0
80001cd8:	24130008 	li	s3,8
80001cdc:	16200005 	bnez	s1,80001cf4 <osRecvMesg+0x54>
80001ce0:	02002021 	move	a0,s0
80001ce4:	0c001864 	jal	80006190 <__osRestoreInt>
80001ce8:	02402021 	move	a0,s2
80001cec:	08000769 	j	80001da4 <osRecvMesg+0x104>
80001cf0:	2402ffff 	li	v0,-1
80001cf4:	3c028001 	lui	v0,0x8001
80001cf8:	8c42c050 	lw	v0,-16304(v0)
80001cfc:	0c00178b 	jal	80005e2c <__osEnqueueAndYield>
80001d00:	a4530010 	sh	s3,16(v0)
80001d04:	8e020008 	lw	v0,8(s0)
80001d08:	1040fff4 	beqz	v0,80001cdc <osRecvMesg+0x3c>
80001d0c:	00000000 	nop
80001d10:	12800007 	beqz	s4,80001d30 <osRecvMesg+0x90>
80001d14:	00000000 	nop
80001d18:	8e02000c 	lw	v0,12(s0)
80001d1c:	8e030014 	lw	v1,20(s0)
80001d20:	00021080 	sll	v0,v0,0x2
80001d24:	00431021 	addu	v0,v0,v1
80001d28:	8c420000 	lw	v0,0(v0)
80001d2c:	ae820000 	sw	v0,0(s4)
80001d30:	8e02000c 	lw	v0,12(s0)
80001d34:	8e030010 	lw	v1,16(s0)
80001d38:	24420001 	addiu	v0,v0,1
80001d3c:	0043001a 	div	zero,v0,v1
80001d40:	14600002 	bnez	v1,80001d4c <osRecvMesg+0xac>
80001d44:	00000000 	nop
80001d48:	0007000d 	break	0x7
80001d4c:	2401ffff 	li	at,-1
80001d50:	14610004 	bne	v1,at,80001d64 <osRecvMesg+0xc4>
80001d54:	3c018000 	lui	at,0x8000
80001d58:	14410002 	bne	v0,at,80001d64 <osRecvMesg+0xc4>
80001d5c:	00000000 	nop
80001d60:	0006000d 	break	0x6
80001d64:	00002010 	mfhi	a0
80001d68:	8e020008 	lw	v0,8(s0)
80001d6c:	8e030004 	lw	v1,4(s0)
80001d70:	2442ffff 	addiu	v0,v0,-1
80001d74:	ae020008 	sw	v0,8(s0)
80001d78:	ae04000c 	sw	a0,12(s0)
80001d7c:	8c620000 	lw	v0,0(v1)
80001d80:	10400005 	beqz	v0,80001d98 <osRecvMesg+0xf8>
80001d84:	00000000 	nop
80001d88:	0c0017df 	jal	80005f7c <__osPopThread>
80001d8c:	26040004 	addiu	a0,s0,4
80001d90:	0c001220 	jal	80004880 <osStartThread>
80001d94:	00402021 	move	a0,v0
80001d98:	0c001864 	jal	80006190 <__osRestoreInt>
80001d9c:	02402021 	move	a0,s2
80001da0:	00001021 	move	v0,zero
80001da4:	8fbf0024 	lw	ra,36(sp)
80001da8:	8fb40020 	lw	s4,32(sp)
80001dac:	8fb3001c 	lw	s3,28(sp)
80001db0:	8fb20018 	lw	s2,24(sp)
80001db4:	8fb10014 	lw	s1,20(sp)
80001db8:	8fb00010 	lw	s0,16(sp)
80001dbc:	03e00008 	jr	ra
80001dc0:	27bd0028 	addiu	sp,sp,40
	...

80001dd0 <osSendMesg>:
80001dd0:	27bdffd0 	addiu	sp,sp,-48
80001dd4:	afb00010 	sw	s0,16(sp)
80001dd8:	00808021 	move	s0,a0
80001ddc:	afb50024 	sw	s5,36(sp)
80001de0:	00a0a821 	move	s5,a1
80001de4:	afb20018 	sw	s2,24(sp)
80001de8:	00c09021 	move	s2,a2
80001dec:	afbf0028 	sw	ra,40(sp)
80001df0:	afb40020 	sw	s4,32(sp)
80001df4:	afb3001c 	sw	s3,28(sp)
80001df8:	0c001848 	jal	80006120 <__osDisableInt>
80001dfc:	afb10014 	sw	s1,20(sp)
80001e00:	8e030008 	lw	v1,8(s0)
80001e04:	8e040010 	lw	a0,16(s0)
80001e08:	0064182a 	slt	v1,v1,a0
80001e0c:	14600012 	bnez	v1,80001e58 <osSendMesg+0x88>
80001e10:	00408821 	move	s1,v0
80001e14:	24140001 	li	s4,1
80001e18:	24130008 	li	s3,8
80001e1c:	12540005 	beq	s2,s4,80001e34 <osSendMesg+0x64>
80001e20:	26040004 	addiu	a0,s0,4
80001e24:	0c001864 	jal	80006190 <__osRestoreInt>
80001e28:	02202021 	move	a0,s1
80001e2c:	080007b7 	j	80001edc <osSendMesg+0x10c>
80001e30:	2402ffff 	li	v0,-1
80001e34:	3c028001 	lui	v0,0x8001
80001e38:	8c42c050 	lw	v0,-16304(v0)
80001e3c:	0c00178b 	jal	80005e2c <__osEnqueueAndYield>
80001e40:	a4530010 	sh	s3,16(v0)
80001e44:	8e020008 	lw	v0,8(s0)
80001e48:	8e030010 	lw	v1,16(s0)
80001e4c:	0043102a 	slt	v0,v0,v1
80001e50:	1040fff2 	beqz	v0,80001e1c <osSendMesg+0x4c>
80001e54:	00000000 	nop
80001e58:	8e03000c 	lw	v1,12(s0)
80001e5c:	8e040008 	lw	a0,8(s0)
80001e60:	8e020010 	lw	v0,16(s0)
80001e64:	00641821 	addu	v1,v1,a0
80001e68:	0062001a 	div	zero,v1,v0
80001e6c:	14400002 	bnez	v0,80001e78 <osSendMesg+0xa8>
80001e70:	00000000 	nop
80001e74:	0007000d 	break	0x7
80001e78:	2401ffff 	li	at,-1
80001e7c:	14410004 	bne	v0,at,80001e90 <osSendMesg+0xc0>
80001e80:	3c018000 	lui	at,0x8000
80001e84:	14610002 	bne	v1,at,80001e90 <osSendMesg+0xc0>
80001e88:	00000000 	nop
80001e8c:	0006000d 	break	0x6
80001e90:	00001010 	mfhi	v0
80001e94:	8e030014 	lw	v1,20(s0)
80001e98:	00021080 	sll	v0,v0,0x2
80001e9c:	00431021 	addu	v0,v0,v1
80001ea0:	ac550000 	sw	s5,0(v0)
80001ea4:	8e020008 	lw	v0,8(s0)
80001ea8:	8e030000 	lw	v1,0(s0)
80001eac:	24420001 	addiu	v0,v0,1
80001eb0:	ae020008 	sw	v0,8(s0)
80001eb4:	8c620000 	lw	v0,0(v1)
80001eb8:	10400005 	beqz	v0,80001ed0 <osSendMesg+0x100>
80001ebc:	00000000 	nop
80001ec0:	0c0017df 	jal	80005f7c <__osPopThread>
80001ec4:	02002021 	move	a0,s0
80001ec8:	0c001220 	jal	80004880 <osStartThread>
80001ecc:	00402021 	move	a0,v0
80001ed0:	0c001864 	jal	80006190 <__osRestoreInt>
80001ed4:	02202021 	move	a0,s1
80001ed8:	00001021 	move	v0,zero
80001edc:	8fbf0028 	lw	ra,40(sp)
80001ee0:	8fb50024 	lw	s5,36(sp)
80001ee4:	8fb40020 	lw	s4,32(sp)
80001ee8:	8fb3001c 	lw	s3,28(sp)
80001eec:	8fb20018 	lw	s2,24(sp)
80001ef0:	8fb10014 	lw	s1,20(sp)
80001ef4:	8fb00010 	lw	s0,16(sp)
80001ef8:	03e00008 	jr	ra
80001efc:	27bd0030 	addiu	sp,sp,48

80001f00 <osSetEventMesg>:
80001f00:	27bdffd8 	addiu	sp,sp,-40
80001f04:	afb00010 	sw	s0,16(sp)
80001f08:	00808021 	move	s0,a0
80001f0c:	afb10014 	sw	s1,20(sp)
80001f10:	00a08821 	move	s1,a1
80001f14:	afb20018 	sw	s2,24(sp)
80001f18:	00c09021 	move	s2,a2
80001f1c:	afbf0020 	sw	ra,32(sp)
80001f20:	0c001848 	jal	80006120 <__osDisableInt>
80001f24:	afb3001c 	sw	s3,28(sp)
80001f28:	001018c0 	sll	v1,s0,0x3
80001f2c:	3c048010 	lui	a0,0x8010
80001f30:	2484e610 	addiu	a0,a0,-6640
80001f34:	00641821 	addu	v1,v1,a0
80001f38:	00409821 	move	s3,v0
80001f3c:	2402000e 	li	v0,14
80001f40:	ac710000 	sw	s1,0(v1)
80001f44:	16020010 	bne	s0,v0,80001f88 <osSetEventMesg+0x88>
80001f48:	ac720004 	sw	s2,4(v1)
80001f4c:	3c028001 	lui	v0,0x8001
80001f50:	8c42d20c 	lw	v0,-11764(v0)
80001f54:	1040000a 	beqz	v0,80001f80 <osSetEventMesg+0x80>
80001f58:	24020001 	li	v0,1
80001f5c:	3c028001 	lui	v0,0x8001
80001f60:	8c42c020 	lw	v0,-16352(v0)
80001f64:	14400006 	bnez	v0,80001f80 <osSetEventMesg+0x80>
80001f68:	24020001 	li	v0,1
80001f6c:	02202021 	move	a0,s1
80001f70:	02402821 	move	a1,s2
80001f74:	0c000774 	jal	80001dd0 <osSendMesg>
80001f78:	00003021 	move	a2,zero
80001f7c:	24020001 	li	v0,1
80001f80:	3c018001 	lui	at,0x8001
80001f84:	ac22c020 	sw	v0,-16352(at)
80001f88:	0c001864 	jal	80006190 <__osRestoreInt>
80001f8c:	02602021 	move	a0,s3
80001f90:	8fbf0020 	lw	ra,32(sp)
80001f94:	8fb3001c 	lw	s3,28(sp)
80001f98:	8fb20018 	lw	s2,24(sp)
80001f9c:	8fb10014 	lw	s1,20(sp)
80001fa0:	8fb00010 	lw	s0,16(sp)
80001fa4:	03e00008 	jr	ra
80001fa8:	27bd0028 	addiu	sp,sp,40
80001fac:	00000000 	nop

80001fb0 <osSpTaskLoad>:
80001fb0:	27bdffe0 	addiu	sp,sp,-32
80001fb4:	afb00010 	sw	s0,16(sp)
80001fb8:	00808021 	move	s0,a0
80001fbc:	afb10014 	sw	s1,20(sp)
80001fc0:	3c118010 	lui	s1,0x8010
80001fc4:	2631d050 	addiu	s1,s1,-12208
80001fc8:	02202821 	move	a1,s1
80001fcc:	afbf0018 	sw	ra,24(sp)
80001fd0:	0c0019c4 	jal	80006710 <bcopy>
80001fd4:	24060040 	li	a2,64
80001fd8:	3c048010 	lui	a0,0x8010
80001fdc:	8c84d060 	lw	a0,-12192(a0)
80001fe0:	10800005 	beqz	a0,80001ff8 <osSpTaskLoad+0x48>
80001fe4:	00000000 	nop
80001fe8:	0c0006b8 	jal	80001ae0 <osVirtualToPhysical>
80001fec:	00000000 	nop
80001ff0:	3c018010 	lui	at,0x8010
80001ff4:	ac22d060 	sw	v0,-12192(at)
80001ff8:	3c048010 	lui	a0,0x8010
80001ffc:	8c84d068 	lw	a0,-12184(a0)
80002000:	10800005 	beqz	a0,80002018 <osSpTaskLoad+0x68>
80002004:	00000000 	nop
80002008:	0c0006b8 	jal	80001ae0 <osVirtualToPhysical>
8000200c:	00000000 	nop
80002010:	3c018010 	lui	at,0x8010
80002014:	ac22d068 	sw	v0,-12184(at)
80002018:	3c048010 	lui	a0,0x8010
8000201c:	8c84d070 	lw	a0,-12176(a0)
80002020:	10800005 	beqz	a0,80002038 <osSpTaskLoad+0x88>
80002024:	00000000 	nop
80002028:	0c0006b8 	jal	80001ae0 <osVirtualToPhysical>
8000202c:	00000000 	nop
80002030:	3c018010 	lui	at,0x8010
80002034:	ac22d070 	sw	v0,-12176(at)
80002038:	3c048010 	lui	a0,0x8010
8000203c:	8c84d078 	lw	a0,-12168(a0)
80002040:	10800005 	beqz	a0,80002058 <osSpTaskLoad+0xa8>
80002044:	00000000 	nop
80002048:	0c0006b8 	jal	80001ae0 <osVirtualToPhysical>
8000204c:	00000000 	nop
80002050:	3c018010 	lui	at,0x8010
80002054:	ac22d078 	sw	v0,-12168(at)
80002058:	3c048010 	lui	a0,0x8010
8000205c:	8c84d07c 	lw	a0,-12164(a0)
80002060:	10800005 	beqz	a0,80002078 <osSpTaskLoad+0xc8>
80002064:	00000000 	nop
80002068:	0c0006b8 	jal	80001ae0 <osVirtualToPhysical>
8000206c:	00000000 	nop
80002070:	3c018010 	lui	at,0x8010
80002074:	ac22d07c 	sw	v0,-12164(at)
80002078:	3c048010 	lui	a0,0x8010
8000207c:	8c84d080 	lw	a0,-12160(a0)
80002080:	10800005 	beqz	a0,80002098 <osSpTaskLoad+0xe8>
80002084:	00000000 	nop
80002088:	0c0006b8 	jal	80001ae0 <osVirtualToPhysical>
8000208c:	00000000 	nop
80002090:	3c018010 	lui	at,0x8010
80002094:	ac22d080 	sw	v0,-12160(at)
80002098:	3c048010 	lui	a0,0x8010
8000209c:	8c84d088 	lw	a0,-12152(a0)
800020a0:	10800005 	beqz	a0,800020b8 <osSpTaskLoad+0x108>
800020a4:	00000000 	nop
800020a8:	0c0006b8 	jal	80001ae0 <osVirtualToPhysical>
800020ac:	00000000 	nop
800020b0:	3c018010 	lui	at,0x8010
800020b4:	ac22d088 	sw	v0,-12152(at)
800020b8:	3c028010 	lui	v0,0x8010
800020bc:	8c42d054 	lw	v0,-12204(v0)
800020c0:	30420001 	andi	v0,v0,0x1
800020c4:	10400019 	beqz	v0,8000212c <osSpTaskLoad+0x17c>
800020c8:	02202021 	move	a0,s1
800020cc:	3c028010 	lui	v0,0x8010
800020d0:	8c42d088 	lw	v0,-12152(v0)
800020d4:	3c038010 	lui	v1,0x8010
800020d8:	8c63d08c 	lw	v1,-12148(v1)
800020dc:	3c018010 	lui	at,0x8010
800020e0:	ac22d068 	sw	v0,-12184(at)
800020e4:	3c018010 	lui	at,0x8010
800020e8:	ac23d06c 	sw	v1,-12180(at)
800020ec:	8e020004 	lw	v0,4(s0)
800020f0:	2403fffe 	li	v1,-2
800020f4:	00431024 	and	v0,v0,v1
800020f8:	ae020004 	sw	v0,4(s0)
800020fc:	3c028010 	lui	v0,0x8010
80002100:	8c42d054 	lw	v0,-12204(v0)
80002104:	30420004 	andi	v0,v0,0x4
80002108:	10400008 	beqz	v0,8000212c <osSpTaskLoad+0x17c>
8000210c:	3c03a000 	lui	v1,0xa000
80002110:	8e020038 	lw	v0,56(s0)
80002114:	24420bfc 	addiu	v0,v0,3068
80002118:	00431025 	or	v0,v0,v1
8000211c:	8c420000 	lw	v0,0(v0)
80002120:	3c018010 	lui	at,0x8010
80002124:	ac22d060 	sw	v0,-12192(at)
80002128:	02202021 	move	a0,s1
8000212c:	0c000698 	jal	80001a60 <osWritebackDCache>
80002130:	24050040 	li	a1,64
80002134:	0c001d64 	jal	80007590 <__osSpSetStatus>
80002138:	24042b00 	li	a0,11008
8000213c:	2410ffff 	li	s0,-1
80002140:	3c040400 	lui	a0,0x400
80002144:	0c001d68 	jal	800075a0 <__osSpSetPc>
80002148:	34841000 	ori	a0,a0,0x1000
8000214c:	1050fffd 	beq	v0,s0,80002144 <osSpTaskLoad+0x194>
80002150:	3c040400 	lui	a0,0x400
80002154:	2410ffff 	li	s0,-1
80002158:	24040001 	li	a0,1
8000215c:	3c050400 	lui	a1,0x400
80002160:	34a50fc0 	ori	a1,a1,0xfc0
80002164:	02203021 	move	a2,s1
80002168:	0c001d74 	jal	800075d0 <__osSpRawStartDma>
8000216c:	24070040 	li	a3,64
80002170:	1050fffa 	beq	v0,s0,8000215c <osSpTaskLoad+0x1ac>
80002174:	24040001 	li	a0,1
80002178:	0c001d5c 	jal	80007570 <__osSpDeviceBusy>
8000217c:	00000000 	nop
80002180:	1440fffd 	bnez	v0,80002178 <osSpTaskLoad+0x1c8>
80002184:	24040001 	li	a0,1
80002188:	2410ffff 	li	s0,-1
8000218c:	8e260008 	lw	a2,8(s1)
80002190:	8e27000c 	lw	a3,12(s1)
80002194:	3c050400 	lui	a1,0x400
80002198:	0c001d74 	jal	800075d0 <__osSpRawStartDma>
8000219c:	34a51000 	ori	a1,a1,0x1000
800021a0:	1050fffa 	beq	v0,s0,8000218c <osSpTaskLoad+0x1dc>
800021a4:	24040001 	li	a0,1
800021a8:	8fbf0018 	lw	ra,24(sp)
800021ac:	8fb10014 	lw	s1,20(sp)
800021b0:	8fb00010 	lw	s0,16(sp)
800021b4:	03e00008 	jr	ra
800021b8:	27bd0020 	addiu	sp,sp,32

800021bc <osSpTaskStartGo>:
800021bc:	27bdffe8 	addiu	sp,sp,-24
800021c0:	afbf0010 	sw	ra,16(sp)
800021c4:	0c001d5c 	jal	80007570 <__osSpDeviceBusy>
800021c8:	00000000 	nop
800021cc:	1440fffd 	bnez	v0,800021c4 <osSpTaskStartGo+0x8>
800021d0:	00000000 	nop
800021d4:	0c001d64 	jal	80007590 <__osSpSetStatus>
800021d8:	24040125 	li	a0,293
800021dc:	8fbf0010 	lw	ra,16(sp)
800021e0:	03e00008 	jr	ra
800021e4:	27bd0018 	addiu	sp,sp,24
	...

800021f0 <spClearAttribute>:
800021f0:	94820014 	lhu	v0,20(a0)
800021f4:	00052827 	nor	a1,zero,a1
800021f8:	00451024 	and	v0,v0,a1
800021fc:	03e00008 	jr	ra
80002200:	a4820014 	sh	v0,20(a0)
	...

80002210 <spColor>:
80002210:	93a20013 	lbu	v0,19(sp)
80002214:	a0850018 	sb	a1,24(a0)
80002218:	a0860019 	sb	a2,25(a0)
8000221c:	a087001a 	sb	a3,26(a0)
80002220:	03e00008 	jr	ra
80002224:	a082001b 	sb	v0,27(a0)
	...

80002230 <spSetAttribute>:
80002230:	94820014 	lhu	v0,20(a0)
80002234:	00451025 	or	v0,v0,a1
80002238:	03e00008 	jr	ra
8000223c:	a4820014 	sh	v0,20(a0)

80002240 <spX2SetZ>:
80002240:	03e00008 	jr	ra
80002244:	a4850016 	sh	a1,22(a0)

80002248 <spX2Move>:
80002248:	a4850000 	sh	a1,0(a0)
8000224c:	03e00008 	jr	ra
80002250:	a4860002 	sh	a2,2(a0)

80002254 <spX2Scissor>:
80002254:	3c018010 	lui	at,0x8010
80002258:	ac24d098 	sw	a0,-12136(at)
8000225c:	3c018010 	lui	at,0x8010
80002260:	ac26d09c 	sw	a2,-12132(at)
80002264:	3c018010 	lui	at,0x8010
80002268:	ac25d090 	sw	a1,-12144(at)
8000226c:	3c018010 	lui	at,0x8010
80002270:	03e00008 	jr	ra
80002274:	ac27d094 	sw	a3,-12140(at)

80002278 <drawbitmap>:
80002278:	27bdff48 	addiu	sp,sp,-184
8000227c:	00a07021 	move	t6,a1
80002280:	00c0c021 	move	t8,a2
80002284:	afbe00b0 	sw	s8,176(sp)
80002288:	afb700ac 	sw	s7,172(sp)
8000228c:	afb600a8 	sw	s6,168(sp)
80002290:	afb500a4 	sw	s5,164(sp)
80002294:	afb400a0 	sw	s4,160(sp)
80002298:	afb3009c 	sw	s3,156(sp)
8000229c:	afb20098 	sw	s2,152(sp)
800022a0:	afb10094 	sw	s1,148(sp)
800022a4:	afb00090 	sw	s0,144(sp)
800022a8:	afa40014 	sw	a0,20(sp)
800022ac:	8c8b0000 	lw	t3,0(a0)
800022b0:	8fa500c8 	lw	a1,200(sp)
800022b4:	8fa600cc 	lw	a2,204(sp)
800022b8:	8fa800d0 	lw	t0,208(sp)
800022bc:	8fa900d4 	lw	t1,212(sp)
800022c0:	8faa00d8 	lw	t2,216(sp)
800022c4:	3c028010 	lui	v0,0x8010
800022c8:	8c42d090 	lw	v0,-12144(v0)
800022cc:	870c0002 	lh	t4,2(t8)
800022d0:	85cf002e 	lh	t7,46(t6)
800022d4:	00e2102a 	slt	v0,a3,v0
800022d8:	10400512 	beqz	v0,80003724 <drawbitmap+0x14ac>
800022dc:	03a09821 	move	s3,sp
800022e0:	3c028010 	lui	v0,0x8010
800022e4:	8c42d094 	lw	v0,-12140(v0)
800022e8:	00a2102a 	slt	v0,a1,v0
800022ec:	1040050d 	beqz	v0,80003724 <drawbitmap+0x14ac>
800022f0:	00000000 	nop
800022f4:	3c048010 	lui	a0,0x8010
800022f8:	8c84d098 	lw	a0,-12136(a0)
800022fc:	00c4102a 	slt	v0,a2,a0
80002300:	14400508 	bnez	v0,80003724 <drawbitmap+0x14ac>
80002304:	00000000 	nop
80002308:	3c028010 	lui	v0,0x8010
8000230c:	8c42d09c 	lw	v0,-12132(v0)
80002310:	0102102a 	slt	v0,t0,v0
80002314:	14400503 	bnez	v0,80003724 <drawbitmap+0x14ac>
80002318:	00e4102a 	slt	v0,a3,a0
8000231c:	1040000c 	beqz	v0,80002350 <drawbitmap+0xd8>
80002320:	00871823 	subu	v1,a0,a3
80002324:	8fb700dc 	lw	s7,220(sp)
80002328:	00770018 	mult	v1,s7
8000232c:	00001812 	mflo	v1
80002330:	87020004 	lh	v0,4(t8)
80002334:	00042080 	sll	a0,a0,0x2
80002338:	afa4002c 	sw	a0,44(sp)
8000233c:	00021140 	sll	v0,v0,0x5
80002340:	00491021 	addu	v0,v0,t1
80002344:	00031943 	sra	v1,v1,0x5
80002348:	080008d9 	j	80002364 <drawbitmap+0xec>
8000234c:	00431021 	addu	v0,v0,v1
80002350:	87020004 	lh	v0,4(t8)
80002354:	00073880 	sll	a3,a3,0x2
80002358:	afa7002c 	sw	a3,44(sp)
8000235c:	00021140 	sll	v0,v0,0x5
80002360:	00491021 	addu	v0,v0,t1
80002364:	afa2001c 	sw	v0,28(sp)
80002368:	3c048010 	lui	a0,0x8010
8000236c:	8c84d09c 	lw	a0,-12132(a0)
80002370:	00a4102a 	slt	v0,a1,a0
80002374:	1040000c 	beqz	v0,800023a8 <drawbitmap+0x130>
80002378:	00851823 	subu	v1,a0,a1
8000237c:	8fb700e0 	lw	s7,224(sp)
80002380:	00770018 	mult	v1,s7
80002384:	00001812 	mflo	v1
80002388:	87020006 	lh	v0,6(t8)
8000238c:	00042080 	sll	a0,a0,0x2
80002390:	afa40034 	sw	a0,52(sp)
80002394:	00021140 	sll	v0,v0,0x5
80002398:	004a1021 	addu	v0,v0,t2
8000239c:	00031943 	sra	v1,v1,0x5
800023a0:	080008ef 	j	800023bc <drawbitmap+0x144>
800023a4:	00431021 	addu	v0,v0,v1
800023a8:	87020006 	lh	v0,6(t8)
800023ac:	00052880 	sll	a1,a1,0x2
800023b0:	afa50034 	sw	a1,52(sp)
800023b4:	00021140 	sll	v0,v0,0x5
800023b8:	004a1021 	addu	v0,v0,t2
800023bc:	afa20024 	sw	v0,36(sp)
800023c0:	3c038010 	lui	v1,0x8010
800023c4:	8c63d090 	lw	v1,-12144(v1)
800023c8:	00c3102a 	slt	v0,a2,v1
800023cc:	54400004 	bnezl	v0,800023e0 <drawbitmap+0x168>
800023d0:	00063080 	sll	a2,a2,0x2
800023d4:	00031880 	sll	v1,v1,0x2
800023d8:	080008f9 	j	800023e4 <drawbitmap+0x16c>
800023dc:	afa3003c 	sw	v1,60(sp)
800023e0:	afa6003c 	sw	a2,60(sp)
800023e4:	3c038010 	lui	v1,0x8010
800023e8:	8c63d094 	lw	v1,-12140(v1)
800023ec:	0103102a 	slt	v0,t0,v1
800023f0:	54400004 	bnezl	v0,80002404 <drawbitmap+0x18c>
800023f4:	00084080 	sll	t0,t0,0x2
800023f8:	00031880 	sll	v1,v1,0x2
800023fc:	08000902 	j	80002408 <drawbitmap+0x190>
80002400:	afa30044 	sw	v1,68(sp)
80002404:	afa80044 	sw	t0,68(sp)
80002408:	24160002 	li	s6,2
8000240c:	24140002 	li	s4,2
80002410:	00004821 	move	t1,zero
80002414:	00008821 	move	s1,zero
80002418:	8f030008 	lw	v1,8(t8)
8000241c:	3c028001 	lui	v0,0x8001
80002420:	8c42c030 	lw	v0,-16336(v0)
80002424:	0000a821 	move	s5,zero
80002428:	10620460 	beq	v1,v0,800035ac <drawbitmap+0x1334>
8000242c:	00008021 	move	s0,zero
80002430:	91c30031 	lbu	v1,49(t6)
80002434:	2c620006 	sltiu	v0,v1,6
80002438:	10400459 	beqz	v0,800035a0 <drawbitmap+0x1328>
8000243c:	00031080 	sll	v0,v1,0x2
80002440:	3c018001 	lui	at,0x8001
80002444:	00220821 	addu	at,at,v0
80002448:	8c22d880 	lw	v0,-10112(at)
8000244c:	00400008 	jr	v0
80002450:	00000000 	nop
80002454:	01602821 	move	a1,t3
80002458:	256b0008 	addiu	t3,t3,8
8000245c:	91c30030 	lbu	v1,48(t6)
80002460:	01603821 	move	a3,t3
80002464:	256b0008 	addiu	t3,t3,8
80002468:	000c1043 	sra	v0,t4,0x1
8000246c:	2442ffff 	addiu	v0,v0,-1
80002470:	30420fff 	andi	v0,v0,0xfff
80002474:	3c04fd08 	lui	a0,0xfd08
80002478:	00441025 	or	v0,v0,a0
8000247c:	01603021 	move	a2,t3
80002480:	256b0008 	addiu	t3,t3,8
80002484:	00005021 	move	t2,zero
80002488:	3c080700 	lui	t0,0x700
8000248c:	30630007 	andi	v1,v1,0x7
80002490:	00031d40 	sll	v1,v1,0x15
80002494:	00621825 	or	v1,v1,v0
80002498:	aca30000 	sw	v1,0(a1)
8000249c:	8f020008 	lw	v0,8(t8)
800024a0:	00164a00 	sll	t1,s6,0x8
800024a4:	01481825 	or	v1,t2,t0
800024a8:	aca20004 	sw	v0,4(a1)
800024ac:	91c40030 	lbu	a0,48(t6)
800024b0:	87020000 	lh	v0,0(t8)
800024b4:	00142c80 	sll	a1,s4,0x12
800024b8:	00a31825 	or	v1,a1,v1
800024bc:	00691825 	or	v1,v1,t1
800024c0:	ace30004 	sw	v1,4(a3)
800024c4:	3c03f508 	lui	v1,0xf508
800024c8:	00aa2825 	or	a1,a1,t2
800024cc:	00a92825 	or	a1,a1,t1
800024d0:	30840007 	andi	a0,a0,0x7
800024d4:	00042540 	sll	a0,a0,0x15
800024d8:	24420001 	addiu	v0,v0,1
800024dc:	00021043 	sra	v0,v0,0x1
800024e0:	24420007 	addiu	v0,v0,7
800024e4:	000210c3 	sra	v0,v0,0x3
800024e8:	304201ff 	andi	v0,v0,0x1ff
800024ec:	00021240 	sll	v0,v0,0x9
800024f0:	00431025 	or	v0,v0,v1
800024f4:	00822025 	or	a0,a0,v0
800024f8:	3c02e600 	lui	v0,0xe600
800024fc:	ace40000 	sw	a0,0(a3)
80002500:	acc20000 	sw	v0,0(a2)
80002504:	acc00004 	sw	zero,4(a2)
80002508:	87030004 	lh	v1,4(t8)
8000250c:	01603821 	move	a3,t3
80002510:	256b0008 	addiu	t3,t3,8
80002514:	87020006 	lh	v0,6(t8)
80002518:	3c04f400 	lui	a0,0xf400
8000251c:	01603021 	move	a2,t3
80002520:	00031840 	sll	v1,v1,0x1
80002524:	30630fff 	andi	v1,v1,0xfff
80002528:	00031b00 	sll	v1,v1,0xc
8000252c:	00021080 	sll	v0,v0,0x2
80002530:	30420fff 	andi	v0,v0,0xfff
80002534:	00441025 	or	v0,v0,a0
80002538:	00621825 	or	v1,v1,v0
8000253c:	ace30000 	sw	v1,0(a3)
80002540:	87030004 	lh	v1,4(t8)
80002544:	87020000 	lh	v0,0(t8)
80002548:	256b0008 	addiu	t3,t3,8
8000254c:	8704000c 	lh	a0,12(t8)
80002550:	00621821 	addu	v1,v1,v0
80002554:	00031840 	sll	v1,v1,0x1
80002558:	87020006 	lh	v0,6(t8)
8000255c:	30630fff 	andi	v1,v1,0xfff
80002560:	00031b00 	sll	v1,v1,0xc
80002564:	00441021 	addu	v0,v0,a0
80002568:	00021080 	sll	v0,v0,0x2
8000256c:	30420fff 	andi	v0,v0,0xfff
80002570:	00481025 	or	v0,v0,t0
80002574:	00621825 	or	v1,v1,v0
80002578:	3c02e700 	lui	v0,0xe700
8000257c:	ace30004 	sw	v1,4(a3)
80002580:	acc20000 	sw	v0,0(a2)
80002584:	acc00004 	sw	zero,4(a2)
80002588:	01603021 	move	a2,t3
8000258c:	91c40030 	lbu	a0,48(t6)
80002590:	87020000 	lh	v0,0(t8)
80002594:	3c03f500 	lui	v1,0xf500
80002598:	256b0008 	addiu	t3,t3,8
8000259c:	acc50004 	sw	a1,4(a2)
800025a0:	01602821 	move	a1,t3
800025a4:	256b0008 	addiu	t3,t3,8
800025a8:	30840007 	andi	a0,a0,0x7
800025ac:	00042540 	sll	a0,a0,0x15
800025b0:	24420001 	addiu	v0,v0,1
800025b4:	00021043 	sra	v0,v0,0x1
800025b8:	24420007 	addiu	v0,v0,7
800025bc:	000210c3 	sra	v0,v0,0x3
800025c0:	304201ff 	andi	v0,v0,0x1ff
800025c4:	00021240 	sll	v0,v0,0x9
800025c8:	00431025 	or	v0,v0,v1
800025cc:	00822025 	or	a0,a0,v0
800025d0:	acc40000 	sw	a0,0(a2)
800025d4:	87030004 	lh	v1,4(t8)
800025d8:	87020006 	lh	v0,6(t8)
800025dc:	3c04f200 	lui	a0,0xf200
800025e0:	00031880 	sll	v1,v1,0x2
800025e4:	30630fff 	andi	v1,v1,0xfff
800025e8:	00031b00 	sll	v1,v1,0xc
800025ec:	00021080 	sll	v0,v0,0x2
800025f0:	30420fff 	andi	v0,v0,0xfff
800025f4:	00441025 	or	v0,v0,a0
800025f8:	00621825 	or	v1,v1,v0
800025fc:	aca30000 	sw	v1,0(a1)
80002600:	87030004 	lh	v1,4(t8)
80002604:	87020000 	lh	v0,0(t8)
80002608:	8704000c 	lh	a0,12(t8)
8000260c:	00621821 	addu	v1,v1,v0
80002610:	00031880 	sll	v1,v1,0x2
80002614:	87020006 	lh	v0,6(t8)
80002618:	30630fff 	andi	v1,v1,0xfff
8000261c:	00031b00 	sll	v1,v1,0xc
80002620:	08000cfc 	j	800033f0 <drawbitmap+0x1178>
80002624:	00441021 	addu	v0,v0,a0
80002628:	95c20014 	lhu	v0,20(t6)
8000262c:	30420200 	andi	v0,v0,0x200
80002630:	10400049 	beqz	v0,80002758 <drawbitmap+0x4e0>
80002634:	01602021 	move	a0,t3
80002638:	256b0008 	addiu	t3,t3,8
8000263c:	01602821 	move	a1,t3
80002640:	256b0008 	addiu	t3,t3,8
80002644:	91c20030 	lbu	v0,48(t6)
80002648:	01603021 	move	a2,t3
8000264c:	256b0008 	addiu	t3,t3,8
80002650:	3c03fd10 	lui	v1,0xfd10
80002654:	01608021 	move	s0,t3
80002658:	256b0008 	addiu	t3,t3,8
8000265c:	00148c80 	sll	s1,s4,0x12
80002660:	00006821 	move	t5,zero
80002664:	3c120700 	lui	s2,0x700
80002668:	00164a00 	sll	t1,s6,0x8
8000266c:	00003821 	move	a3,zero
80002670:	30420007 	andi	v0,v0,0x7
80002674:	00021540 	sll	v0,v0,0x15
80002678:	00431025 	or	v0,v0,v1
8000267c:	ac820000 	sw	v0,0(a0)
80002680:	8f020008 	lw	v0,8(t8)
80002684:	00004021 	move	t0,zero
80002688:	ac820004 	sw	v0,4(a0)
8000268c:	91c30030 	lbu	v1,48(t6)
80002690:	01b21025 	or	v0,t5,s2
80002694:	02221025 	or	v0,s1,v0
80002698:	00491025 	or	v0,v0,t1
8000269c:	aca20004 	sw	v0,4(a1)
800026a0:	3c02f510 	lui	v0,0xf510
800026a4:	018f0018 	mult	t4,t7
800026a8:	00002012 	mflo	a0
800026ac:	30630007 	andi	v1,v1,0x7
800026b0:	00031d40 	sll	v1,v1,0x15
800026b4:	00621825 	or	v1,v1,v0
800026b8:	3c02e600 	lui	v0,0xe600
800026bc:	aca30000 	sw	v1,0(a1)
800026c0:	acc20000 	sw	v0,0(a2)
800026c4:	3c02f300 	lui	v0,0xf300
800026c8:	acc00004 	sw	zero,4(a2)
800026cc:	ae020000 	sw	v0,0(s0)
800026d0:	24840003 	addiu	a0,a0,3
800026d4:	00042083 	sra	a0,a0,0x2
800026d8:	2484ffff 	addiu	a0,a0,-1
800026dc:	28820800 	slti	v0,a0,2048
800026e0:	14400002 	bnez	v0,800026ec <drawbitmap+0x474>
800026e4:	32aa000f 	andi	t2,s5,0xf
800026e8:	240407ff 	li	a0,2047
800026ec:	01601821 	move	v1,t3
800026f0:	256b0008 	addiu	t3,t3,8
800026f4:	01602821 	move	a1,t3
800026f8:	256b0008 	addiu	t3,t3,8
800026fc:	01603021 	move	a2,t3
80002700:	256b0008 	addiu	t3,t3,8
80002704:	30820fff 	andi	v0,a0,0xfff
80002708:	00021300 	sll	v0,v0,0xc
8000270c:	00521025 	or	v0,v0,s2
80002710:	ae020004 	sw	v0,4(s0)
80002714:	3c02e700 	lui	v0,0xe700
80002718:	ac620000 	sw	v0,0(v1)
8000271c:	ac600004 	sw	zero,4(v1)
80002720:	91c40030 	lbu	a0,48(t6)
80002724:	022d1025 	or	v0,s1,t5
80002728:	00471025 	or	v0,v0,a3
8000272c:	00491025 	or	v0,v0,t1
80002730:	00481025 	or	v0,v0,t0
80002734:	004a1025 	or	v0,v0,t2
80002738:	aca20004 	sw	v0,4(a1)
8000273c:	000c1043 	sra	v0,t4,0x1
80002740:	24420007 	addiu	v0,v0,7
80002744:	000210c3 	sra	v0,v0,0x3
80002748:	304201ff 	andi	v0,v0,0x1ff
8000274c:	00021240 	sll	v0,v0,0x9
80002750:	08000d58 	j	80003560 <drawbitmap+0x12e8>
80002754:	3c03f500 	lui	v1,0xf500
80002758:	256b0008 	addiu	t3,t3,8
8000275c:	01602821 	move	a1,t3
80002760:	256b0008 	addiu	t3,t3,8
80002764:	91c20030 	lbu	v0,48(t6)
80002768:	01603021 	move	a2,t3
8000276c:	256b0008 	addiu	t3,t3,8
80002770:	3c03fd10 	lui	v1,0xfd10
80002774:	01603821 	move	a3,t3
80002778:	256b0008 	addiu	t3,t3,8
8000277c:	30420007 	andi	v0,v0,0x7
80002780:	00021540 	sll	v0,v0,0x15
80002784:	00431025 	or	v0,v0,v1
80002788:	ac820000 	sw	v0,0(a0)
8000278c:	8f020008 	lw	v0,8(t8)
80002790:	01804021 	move	t0,t4
80002794:	3c0a0700 	lui	t2,0x700
80002798:	ac820004 	sw	v0,4(a0)
8000279c:	91c30030 	lbu	v1,48(t6)
800027a0:	00141480 	sll	v0,s4,0x12
800027a4:	004a1025 	or	v0,v0,t2
800027a8:	00162200 	sll	a0,s6,0x8
800027ac:	00441025 	or	v0,v0,a0
800027b0:	aca20004 	sw	v0,4(a1)
800027b4:	3c02f510 	lui	v0,0xf510
800027b8:	30630007 	andi	v1,v1,0x7
800027bc:	00031d40 	sll	v1,v1,0x15
800027c0:	00621825 	or	v1,v1,v0
800027c4:	3c02e600 	lui	v0,0xe600
800027c8:	aca30000 	sw	v1,0(a1)
800027cc:	acc20000 	sw	v0,0(a2)
800027d0:	3c02f300 	lui	v0,0xf300
800027d4:	acc00004 	sw	zero,4(a2)
800027d8:	05810002 	bgez	t4,800027e4 <drawbitmap+0x56c>
800027dc:	ace20000 	sw	v0,0(a3)
800027e0:	2588000f 	addiu	t0,t4,15
800027e4:	00082903 	sra	a1,t0,0x4
800027e8:	18a00002 	blez	a1,800027f4 <drawbitmap+0x57c>
800027ec:	24030800 	li	v1,2048
800027f0:	24a307ff 	addiu	v1,a1,2047
800027f4:	00000000 	nop
800027f8:	018f0018 	mult	t4,t7
800027fc:	00001012 	mflo	v0
80002800:	24420003 	addiu	v0,v0,3
80002804:	00021083 	sra	v0,v0,0x2
80002808:	2444ffff 	addiu	a0,v0,-1
8000280c:	28820800 	slti	v0,a0,2048
80002810:	50400001 	beqzl	v0,80002818 <drawbitmap+0x5a0>
80002814:	240407ff 	li	a0,2047
80002818:	30820fff 	andi	v0,a0,0xfff
8000281c:	00021300 	sll	v0,v0,0xc
80002820:	18a00010 	blez	a1,80002864 <drawbitmap+0x5ec>
80002824:	004a2025 	or	a0,v0,t2
80002828:	0065001a 	div	zero,v1,a1
8000282c:	14a00002 	bnez	a1,80002838 <drawbitmap+0x5c0>
80002830:	00000000 	nop
80002834:	0007000d 	break	0x7
80002838:	2401ffff 	li	at,-1
8000283c:	14a10004 	bne	a1,at,80002850 <drawbitmap+0x5d8>
80002840:	3c018000 	lui	at,0x8000
80002844:	14610002 	bne	v1,at,80002850 <drawbitmap+0x5d8>
80002848:	00000000 	nop
8000284c:	0006000d 	break	0x6
80002850:	00001012 	mflo	v0
	...
8000285c:	08000a1a 	j	80002868 <drawbitmap+0x5f0>
80002860:	30420fff 	andi	v0,v0,0xfff
80002864:	30620fff 	andi	v0,v1,0xfff
80002868:	00821025 	or	v0,a0,v0
8000286c:	ace20004 	sw	v0,4(a3)
80002870:	01601821 	move	v1,t3
80002874:	256b0008 	addiu	t3,t3,8
80002878:	01602821 	move	a1,t3
8000287c:	256b0008 	addiu	t3,t3,8
80002880:	01603021 	move	a2,t3
80002884:	256b0008 	addiu	t3,t3,8
80002888:	3c02e700 	lui	v0,0xe700
8000288c:	ac620000 	sw	v0,0(v1)
80002890:	ac600004 	sw	zero,4(v1)
80002894:	91c40030 	lbu	a0,48(t6)
80002898:	00141480 	sll	v0,s4,0x12
8000289c:	00161a00 	sll	v1,s6,0x8
800028a0:	00431025 	or	v0,v0,v1
800028a4:	aca20004 	sw	v0,4(a1)
800028a8:	000c1043 	sra	v0,t4,0x1
800028ac:	24420007 	addiu	v0,v0,7
800028b0:	000210c3 	sra	v0,v0,0x3
800028b4:	304201ff 	andi	v0,v0,0x1ff
800028b8:	00021240 	sll	v0,v0,0x9
800028bc:	08000d58 	j	80003560 <drawbitmap+0x12e8>
800028c0:	3c03f500 	lui	v1,0xf500
800028c4:	95c20014 	lhu	v0,20(t6)
800028c8:	30420200 	andi	v0,v0,0x200
800028cc:	10400048 	beqz	v0,800029f0 <drawbitmap+0x778>
800028d0:	01602021 	move	a0,t3
800028d4:	256b0008 	addiu	t3,t3,8
800028d8:	01602821 	move	a1,t3
800028dc:	256b0008 	addiu	t3,t3,8
800028e0:	91c20030 	lbu	v0,48(t6)
800028e4:	01603021 	move	a2,t3
800028e8:	256b0008 	addiu	t3,t3,8
800028ec:	3c03fd10 	lui	v1,0xfd10
800028f0:	01608021 	move	s0,t3
800028f4:	256b0008 	addiu	t3,t3,8
800028f8:	00148c80 	sll	s1,s4,0x12
800028fc:	00006821 	move	t5,zero
80002900:	3c120700 	lui	s2,0x700
80002904:	00164a00 	sll	t1,s6,0x8
80002908:	00003821 	move	a3,zero
8000290c:	30420007 	andi	v0,v0,0x7
80002910:	00021540 	sll	v0,v0,0x15
80002914:	00431025 	or	v0,v0,v1
80002918:	ac820000 	sw	v0,0(a0)
8000291c:	8f020008 	lw	v0,8(t8)
80002920:	00004021 	move	t0,zero
80002924:	ac820004 	sw	v0,4(a0)
80002928:	91c30030 	lbu	v1,48(t6)
8000292c:	01b21025 	or	v0,t5,s2
80002930:	02221025 	or	v0,s1,v0
80002934:	00491025 	or	v0,v0,t1
80002938:	aca20004 	sw	v0,4(a1)
8000293c:	3c02f510 	lui	v0,0xf510
80002940:	018f0018 	mult	t4,t7
80002944:	00002012 	mflo	a0
80002948:	30630007 	andi	v1,v1,0x7
8000294c:	00031d40 	sll	v1,v1,0x15
80002950:	00621825 	or	v1,v1,v0
80002954:	3c02e600 	lui	v0,0xe600
80002958:	aca30000 	sw	v1,0(a1)
8000295c:	acc20000 	sw	v0,0(a2)
80002960:	3c02f300 	lui	v0,0xf300
80002964:	acc00004 	sw	zero,4(a2)
80002968:	ae020000 	sw	v0,0(s0)
8000296c:	24840001 	addiu	a0,a0,1
80002970:	00042043 	sra	a0,a0,0x1
80002974:	2484ffff 	addiu	a0,a0,-1
80002978:	28820800 	slti	v0,a0,2048
8000297c:	14400002 	bnez	v0,80002988 <drawbitmap+0x710>
80002980:	32aa000f 	andi	t2,s5,0xf
80002984:	240407ff 	li	a0,2047
80002988:	01601821 	move	v1,t3
8000298c:	256b0008 	addiu	t3,t3,8
80002990:	01602821 	move	a1,t3
80002994:	256b0008 	addiu	t3,t3,8
80002998:	01603021 	move	a2,t3
8000299c:	256b0008 	addiu	t3,t3,8
800029a0:	30820fff 	andi	v0,a0,0xfff
800029a4:	00021300 	sll	v0,v0,0xc
800029a8:	00521025 	or	v0,v0,s2
800029ac:	ae020004 	sw	v0,4(s0)
800029b0:	3c02e700 	lui	v0,0xe700
800029b4:	ac620000 	sw	v0,0(v1)
800029b8:	ac600004 	sw	zero,4(v1)
800029bc:	91c40030 	lbu	a0,48(t6)
800029c0:	022d1025 	or	v0,s1,t5
800029c4:	00471025 	or	v0,v0,a3
800029c8:	00491025 	or	v0,v0,t1
800029cc:	00481025 	or	v0,v0,t0
800029d0:	004a1025 	or	v0,v0,t2
800029d4:	aca20004 	sw	v0,4(a1)
800029d8:	25820007 	addiu	v0,t4,7
800029dc:	000210c3 	sra	v0,v0,0x3
800029e0:	304201ff 	andi	v0,v0,0x1ff
800029e4:	00021240 	sll	v0,v0,0x9
800029e8:	08000d58 	j	80003560 <drawbitmap+0x12e8>
800029ec:	3c03f508 	lui	v1,0xf508
800029f0:	256b0008 	addiu	t3,t3,8
800029f4:	01602821 	move	a1,t3
800029f8:	256b0008 	addiu	t3,t3,8
800029fc:	91c20030 	lbu	v0,48(t6)
80002a00:	01603021 	move	a2,t3
80002a04:	256b0008 	addiu	t3,t3,8
80002a08:	3c03fd10 	lui	v1,0xfd10
80002a0c:	01603821 	move	a3,t3
80002a10:	256b0008 	addiu	t3,t3,8
80002a14:	30420007 	andi	v0,v0,0x7
80002a18:	00021540 	sll	v0,v0,0x15
80002a1c:	00431025 	or	v0,v0,v1
80002a20:	ac820000 	sw	v0,0(a0)
80002a24:	8f020008 	lw	v0,8(t8)
80002a28:	01804021 	move	t0,t4
80002a2c:	3c0a0700 	lui	t2,0x700
80002a30:	ac820004 	sw	v0,4(a0)
80002a34:	91c30030 	lbu	v1,48(t6)
80002a38:	00141480 	sll	v0,s4,0x12
80002a3c:	004a1025 	or	v0,v0,t2
80002a40:	00162200 	sll	a0,s6,0x8
80002a44:	00441025 	or	v0,v0,a0
80002a48:	aca20004 	sw	v0,4(a1)
80002a4c:	3c02f510 	lui	v0,0xf510
80002a50:	30630007 	andi	v1,v1,0x7
80002a54:	00031d40 	sll	v1,v1,0x15
80002a58:	00621825 	or	v1,v1,v0
80002a5c:	3c02e600 	lui	v0,0xe600
80002a60:	aca30000 	sw	v1,0(a1)
80002a64:	acc20000 	sw	v0,0(a2)
80002a68:	3c02f300 	lui	v0,0xf300
80002a6c:	acc00004 	sw	zero,4(a2)
80002a70:	05810002 	bgez	t4,80002a7c <drawbitmap+0x804>
80002a74:	ace20000 	sw	v0,0(a3)
80002a78:	25880007 	addiu	t0,t4,7
80002a7c:	000828c3 	sra	a1,t0,0x3
80002a80:	18a00002 	blez	a1,80002a8c <drawbitmap+0x814>
80002a84:	24030800 	li	v1,2048
80002a88:	24a307ff 	addiu	v1,a1,2047
80002a8c:	00000000 	nop
80002a90:	018f0018 	mult	t4,t7
80002a94:	00001012 	mflo	v0
80002a98:	24420001 	addiu	v0,v0,1
80002a9c:	00021043 	sra	v0,v0,0x1
80002aa0:	2444ffff 	addiu	a0,v0,-1
80002aa4:	28820800 	slti	v0,a0,2048
80002aa8:	50400001 	beqzl	v0,80002ab0 <drawbitmap+0x838>
80002aac:	240407ff 	li	a0,2047
80002ab0:	30820fff 	andi	v0,a0,0xfff
80002ab4:	00021300 	sll	v0,v0,0xc
80002ab8:	18a00010 	blez	a1,80002afc <drawbitmap+0x884>
80002abc:	004a2025 	or	a0,v0,t2
80002ac0:	0065001a 	div	zero,v1,a1
80002ac4:	14a00002 	bnez	a1,80002ad0 <drawbitmap+0x858>
80002ac8:	00000000 	nop
80002acc:	0007000d 	break	0x7
80002ad0:	2401ffff 	li	at,-1
80002ad4:	14a10004 	bne	a1,at,80002ae8 <drawbitmap+0x870>
80002ad8:	3c018000 	lui	at,0x8000
80002adc:	14610002 	bne	v1,at,80002ae8 <drawbitmap+0x870>
80002ae0:	00000000 	nop
80002ae4:	0006000d 	break	0x6
80002ae8:	00001012 	mflo	v0
	...
80002af4:	08000ac0 	j	80002b00 <drawbitmap+0x888>
80002af8:	30420fff 	andi	v0,v0,0xfff
80002afc:	30620fff 	andi	v0,v1,0xfff
80002b00:	00821025 	or	v0,a0,v0
80002b04:	ace20004 	sw	v0,4(a3)
80002b08:	01601821 	move	v1,t3
80002b0c:	256b0008 	addiu	t3,t3,8
80002b10:	01602821 	move	a1,t3
80002b14:	256b0008 	addiu	t3,t3,8
80002b18:	01603021 	move	a2,t3
80002b1c:	256b0008 	addiu	t3,t3,8
80002b20:	3c02e700 	lui	v0,0xe700
80002b24:	ac620000 	sw	v0,0(v1)
80002b28:	ac600004 	sw	zero,4(v1)
80002b2c:	91c40030 	lbu	a0,48(t6)
80002b30:	00141480 	sll	v0,s4,0x12
80002b34:	00161a00 	sll	v1,s6,0x8
80002b38:	00431025 	or	v0,v0,v1
80002b3c:	aca20004 	sw	v0,4(a1)
80002b40:	25820007 	addiu	v0,t4,7
80002b44:	000210c3 	sra	v0,v0,0x3
80002b48:	304201ff 	andi	v0,v0,0x1ff
80002b4c:	00021240 	sll	v0,v0,0x9
80002b50:	08000d58 	j	80003560 <drawbitmap+0x12e8>
80002b54:	3c03f508 	lui	v1,0xf508
80002b58:	91c70030 	lbu	a3,48(t6)
80002b5c:	24020001 	li	v0,1
80002b60:	30e300ff 	andi	v1,a3,0xff
80002b64:	1462015e 	bne	v1,v0,800030e0 <drawbitmap+0xe68>
80002b68:	00000000 	nop
80002b6c:	95c20014 	lhu	v0,20(t6)
80002b70:	30420200 	andi	v0,v0,0x200
80002b74:	10400041 	beqz	v0,80002c7c <drawbitmap+0xa04>
80002b78:	01602021 	move	a0,t3
80002b7c:	256b0008 	addiu	t3,t3,8
80002b80:	01602821 	move	a1,t3
80002b84:	256b0008 	addiu	t3,t3,8
80002b88:	01603021 	move	a2,t3
80002b8c:	256b0008 	addiu	t3,t3,8
80002b90:	30e20007 	andi	v0,a3,0x7
80002b94:	00021540 	sll	v0,v0,0x15
80002b98:	3c03fd10 	lui	v1,0xfd10
80002b9c:	00431025 	or	v0,v0,v1
80002ba0:	ac820000 	sw	v0,0(a0)
80002ba4:	8f020008 	lw	v0,8(t8)
80002ba8:	01608021 	move	s0,t3
80002bac:	256b0008 	addiu	t3,t3,8
80002bb0:	00148c80 	sll	s1,s4,0x12
80002bb4:	00006821 	move	t5,zero
80002bb8:	3c120700 	lui	s2,0x700
80002bbc:	00164a00 	sll	t1,s6,0x8
80002bc0:	3c14f510 	lui	s4,0xf510
80002bc4:	00003821 	move	a3,zero
80002bc8:	00004021 	move	t0,zero
80002bcc:	ac820004 	sw	v0,4(a0)
80002bd0:	91c30030 	lbu	v1,48(t6)
80002bd4:	01b21025 	or	v0,t5,s2
80002bd8:	02221025 	or	v0,s1,v0
80002bdc:	00491025 	or	v0,v0,t1
80002be0:	018f0018 	mult	t4,t7
80002be4:	00002012 	mflo	a0
80002be8:	aca20004 	sw	v0,4(a1)
80002bec:	3c02e600 	lui	v0,0xe600
80002bf0:	30630007 	andi	v1,v1,0x7
80002bf4:	00031d40 	sll	v1,v1,0x15
80002bf8:	00741825 	or	v1,v1,s4
80002bfc:	aca30000 	sw	v1,0(a1)
80002c00:	acc20000 	sw	v0,0(a2)
80002c04:	3c02f300 	lui	v0,0xf300
80002c08:	acc00004 	sw	zero,4(a2)
80002c0c:	ae020000 	sw	v0,0(s0)
80002c10:	2486ffff 	addiu	a2,a0,-1
80002c14:	28c20800 	slti	v0,a2,2048
80002c18:	14400002 	bnez	v0,80002c24 <drawbitmap+0x9ac>
80002c1c:	32aa000f 	andi	t2,s5,0xf
80002c20:	240607ff 	li	a2,2047
80002c24:	01601821 	move	v1,t3
80002c28:	256b0008 	addiu	t3,t3,8
80002c2c:	01602021 	move	a0,t3
80002c30:	256b0008 	addiu	t3,t3,8
80002c34:	01602821 	move	a1,t3
80002c38:	256b0008 	addiu	t3,t3,8
80002c3c:	30c20fff 	andi	v0,a2,0xfff
80002c40:	00021300 	sll	v0,v0,0xc
80002c44:	00521025 	or	v0,v0,s2
80002c48:	ae020004 	sw	v0,4(s0)
80002c4c:	3c02e700 	lui	v0,0xe700
80002c50:	ac620000 	sw	v0,0(v1)
80002c54:	ac600004 	sw	zero,4(v1)
80002c58:	91c30030 	lbu	v1,48(t6)
80002c5c:	022d1025 	or	v0,s1,t5
80002c60:	00471025 	or	v0,v0,a3
80002c64:	00491025 	or	v0,v0,t1
80002c68:	00481025 	or	v0,v0,t0
80002c6c:	004a1025 	or	v0,v0,t2
80002c70:	ac820004 	sw	v0,4(a0)
80002c74:	08000ced 	j	800033b4 <drawbitmap+0x113c>
80002c78:	25820007 	addiu	v0,t4,7
80002c7c:	8702000e 	lh	v0,14(t8)
80002c80:	104000bf 	beqz	v0,80002f80 <drawbitmap+0xd08>
80002c84:	01601821 	move	v1,t3
80002c88:	256b0008 	addiu	t3,t3,8
80002c8c:	01603021 	move	a2,t3
80002c90:	256b0008 	addiu	t3,t3,8
80002c94:	3c04f588 	lui	a0,0xf588
80002c98:	34840100 	ori	a0,a0,0x100
80002c9c:	01602821 	move	a1,t3
80002ca0:	256b0008 	addiu	t3,t3,8
80002ca4:	3c02fd88 	lui	v0,0xfd88
80002ca8:	ac620000 	sw	v0,0(v1)
80002cac:	8f020008 	lw	v0,8(t8)
80002cb0:	01603821 	move	a3,t3
80002cb4:	256b0008 	addiu	t3,t3,8
80002cb8:	01804021 	move	t0,t4
80002cbc:	3c0a0700 	lui	t2,0x700
80002cc0:	ac620004 	sw	v0,4(v1)
80002cc4:	00141480 	sll	v0,s4,0x12
80002cc8:	004a1025 	or	v0,v0,t2
80002ccc:	00161a00 	sll	v1,s6,0x8
80002cd0:	00431025 	or	v0,v0,v1
80002cd4:	acc20004 	sw	v0,4(a2)
80002cd8:	3c02e600 	lui	v0,0xe600
80002cdc:	acc40000 	sw	a0,0(a2)
80002ce0:	aca20000 	sw	v0,0(a1)
80002ce4:	3c02f300 	lui	v0,0xf300
80002ce8:	aca00004 	sw	zero,4(a1)
80002cec:	05810002 	bgez	t4,80002cf8 <drawbitmap+0xa80>
80002cf0:	ace20000 	sw	v0,0(a3)
80002cf4:	25880007 	addiu	t0,t4,7
80002cf8:	000828c3 	sra	a1,t0,0x3
80002cfc:	18a00002 	blez	a1,80002d08 <drawbitmap+0xa90>
80002d00:	24030800 	li	v1,2048
80002d04:	24a307ff 	addiu	v1,a1,2047
80002d08:	00000000 	nop
80002d0c:	018f0018 	mult	t4,t7
80002d10:	00001012 	mflo	v0
80002d14:	2444ffff 	addiu	a0,v0,-1
80002d18:	28820800 	slti	v0,a0,2048
80002d1c:	50400001 	beqzl	v0,80002d24 <drawbitmap+0xaac>
80002d20:	240407ff 	li	a0,2047
80002d24:	30820fff 	andi	v0,a0,0xfff
80002d28:	00021300 	sll	v0,v0,0xc
80002d2c:	18a00010 	blez	a1,80002d70 <drawbitmap+0xaf8>
80002d30:	004a2025 	or	a0,v0,t2
80002d34:	0065001a 	div	zero,v1,a1
80002d38:	14a00002 	bnez	a1,80002d44 <drawbitmap+0xacc>
80002d3c:	00000000 	nop
80002d40:	0007000d 	break	0x7
80002d44:	2401ffff 	li	at,-1
80002d48:	14a10004 	bne	a1,at,80002d5c <drawbitmap+0xae4>
80002d4c:	3c018000 	lui	at,0x8000
80002d50:	14610002 	bne	v1,at,80002d5c <drawbitmap+0xae4>
80002d54:	00000000 	nop
80002d58:	0006000d 	break	0x6
80002d5c:	00001012 	mflo	v0
	...
80002d68:	08000b5d 	j	80002d74 <drawbitmap+0xafc>
80002d6c:	30420fff 	andi	v0,v0,0xfff
80002d70:	30620fff 	andi	v0,v1,0xfff
80002d74:	00821025 	or	v0,a0,v0
80002d78:	ace20004 	sw	v0,4(a3)
80002d7c:	018f0018 	mult	t4,t7
80002d80:	00001812 	mflo	v1
80002d84:	01602021 	move	a0,t3
80002d88:	3c02e600 	lui	v0,0xe600
80002d8c:	ac820000 	sw	v0,0(a0)
80002d90:	ac800004 	sw	zero,4(a0)
80002d94:	8704000e 	lh	a0,14(t8)
80002d98:	000317c2 	srl	v0,v1,0x1f
80002d9c:	00621821 	addu	v1,v1,v0
80002da0:	00031843 	sra	v1,v1,0x1
80002da4:	00640018 	mult	v1,a0
80002da8:	00001812 	mflo	v1
80002dac:	256b0008 	addiu	t3,t3,8
80002db0:	8f020008 	lw	v0,8(t8)
80002db4:	000f27c3 	sra	a0,t7,0x1f
80002db8:	00431021 	addu	v0,v0,v1
80002dbc:	afa2007c 	sw	v0,124(sp)
80002dc0:	01e41023 	subu	v0,t7,a0
80002dc4:	0440005f 	bltz	v0,80002f44 <drawbitmap+0xccc>
80002dc8:	00005021 	move	t2,zero
80002dcc:	000cc840 	sll	t9,t4,0x1
80002dd0:	00141480 	sll	v0,s4,0x12
80002dd4:	3c170700 	lui	s7,0x700
80002dd8:	00571025 	or	v0,v0,s7
80002ddc:	00161a00 	sll	v1,s6,0x8
80002de0:	0043f025 	or	s8,v0,v1
80002de4:	3c12e600 	lui	s2,0xe600
80002de8:	240d0002 	li	t5,2
80002dec:	2565fffc 	addiu	a1,t3,-4
80002df0:	01e41023 	subu	v0,t7,a0
80002df4:	00021043 	sra	v0,v0,0x1
80002df8:	25430002 	addiu	v1,t2,2
80002dfc:	00431023 	subu	v0,v0,v1
80002e00:	004c0018 	mult	v0,t4
80002e04:	00001012 	mflo	v0
80002e08:	8fb7007c 	lw	s7,124(sp)
80002e0c:	032c3821 	addu	a3,t9,t4
80002e10:	01801821 	move	v1,t4
80002e14:	05810002 	bgez	t4,80002e20 <drawbitmap+0xba8>
80002e18:	02e22021 	addu	a0,s7,v0
80002e1c:	25830007 	addiu	v1,t4,7
80002e20:	000330c3 	sra	a2,v1,0x3
80002e24:	01ed1023 	subu	v0,t7,t5
80002e28:	00c20018 	mult	a2,v0
80002e2c:	00001012 	mflo	v0
80002e30:	04410006 	bgez	v0,80002e4c <drawbitmap+0xbd4>
80002e34:	00000000 	nop
80002e38:	00021023 	negu	v0,v0
80002e3c:	000210c0 	sll	v0,v0,0x3
80002e40:	00822021 	addu	a0,a0,v0
80002e44:	00e23823 	subu	a3,a3,v0
80002e48:	00001021 	move	v0,zero
80002e4c:	51400001 	beqzl	t2,80002e54 <drawbitmap+0xbdc>
80002e50:	03203821 	move	a3,t9
80002e54:	24a50008 	addiu	a1,a1,8
80002e58:	3c17fd88 	lui	s7,0xfd88
80002e5c:	acb7fffc 	sw	s7,-4(a1)
80002e60:	aca40000 	sw	a0,0(a1)
80002e64:	24a50008 	addiu	a1,a1,8
80002e68:	304201ff 	andi	v0,v0,0x1ff
80002e6c:	3c17f588 	lui	s7,0xf588
80002e70:	00571025 	or	v0,v0,s7
80002e74:	aca2fffc 	sw	v0,-4(a1)
80002e78:	acbe0000 	sw	s8,0(a1)
80002e7c:	24a50008 	addiu	a1,a1,8
80002e80:	256b0018 	addiu	t3,t3,24
80002e84:	acb2fffc 	sw	s2,-4(a1)
80002e88:	aca00000 	sw	zero,0(a1)
80002e8c:	24a50008 	addiu	a1,a1,8
80002e90:	01604021 	move	t0,t3
80002e94:	256b0008 	addiu	t3,t3,8
80002e98:	24030800 	li	v1,2048
80002e9c:	3c02f300 	lui	v0,0xf300
80002ea0:	18c00002 	blez	a2,80002eac <drawbitmap+0xc34>
80002ea4:	aca2fffc 	sw	v0,-4(a1)
80002ea8:	24c307ff 	addiu	v1,a2,2047
80002eac:	24e4ffff 	addiu	a0,a3,-1
80002eb0:	28820800 	slti	v0,a0,2048
80002eb4:	50400001 	beqzl	v0,80002ebc <drawbitmap+0xc44>
80002eb8:	240407ff 	li	a0,2047
80002ebc:	30820fff 	andi	v0,a0,0xfff
80002ec0:	00021300 	sll	v0,v0,0xc
80002ec4:	3c170700 	lui	s7,0x700
80002ec8:	18c00010 	blez	a2,80002f0c <drawbitmap+0xc94>
80002ecc:	00572025 	or	a0,v0,s7
80002ed0:	0066001a 	div	zero,v1,a2
80002ed4:	14c00002 	bnez	a2,80002ee0 <drawbitmap+0xc68>
80002ed8:	00000000 	nop
80002edc:	0007000d 	break	0x7
80002ee0:	2401ffff 	li	at,-1
80002ee4:	14c10004 	bne	a2,at,80002ef8 <drawbitmap+0xc80>
80002ee8:	3c018000 	lui	at,0x8000
80002eec:	14610002 	bne	v1,at,80002ef8 <drawbitmap+0xc80>
80002ef0:	00000000 	nop
80002ef4:	0006000d 	break	0x6
80002ef8:	00001012 	mflo	v0
	...
80002f04:	08000bc4 	j	80002f10 <drawbitmap+0xc98>
80002f08:	30420fff 	andi	v0,v0,0xfff
80002f0c:	30620fff 	andi	v0,v1,0xfff
80002f10:	00821025 	or	v0,a0,v0
80002f14:	ad020004 	sw	v0,4(t0)
80002f18:	24a50008 	addiu	a1,a1,8
80002f1c:	256b0008 	addiu	t3,t3,8
80002f20:	25ad0002 	addiu	t5,t5,2
80002f24:	254a0001 	addiu	t2,t2,1
80002f28:	000f27c3 	sra	a0,t7,0x1f
80002f2c:	01e41023 	subu	v0,t7,a0
80002f30:	00021043 	sra	v0,v0,0x1
80002f34:	004a102a 	slt	v0,v0,t2
80002f38:	acb2fffc 	sw	s2,-4(a1)
80002f3c:	1040ffac 	beqz	v0,80002df0 <drawbitmap+0xb78>
80002f40:	aca00000 	sw	zero,0(a1)
80002f44:	01602821 	move	a1,t3
80002f48:	256b0008 	addiu	t3,t3,8
80002f4c:	01603021 	move	a2,t3
80002f50:	256b0008 	addiu	t3,t3,8
80002f54:	91c40030 	lbu	a0,48(t6)
80002f58:	00141480 	sll	v0,s4,0x12
80002f5c:	00161a00 	sll	v1,s6,0x8
80002f60:	00431025 	or	v0,v0,v1
80002f64:	aca20004 	sw	v0,4(a1)
80002f68:	25820007 	addiu	v0,t4,7
80002f6c:	000210c3 	sra	v0,v0,0x3
80002f70:	304201ff 	andi	v0,v0,0x1ff
80002f74:	00021240 	sll	v0,v0,0x9
80002f78:	08000d58 	j	80003560 <drawbitmap+0x12e8>
80002f7c:	3c03f510 	lui	v1,0xf510
80002f80:	01602021 	move	a0,t3
80002f84:	256b0008 	addiu	t3,t3,8
80002f88:	01602821 	move	a1,t3
80002f8c:	256b0008 	addiu	t3,t3,8
80002f90:	01603021 	move	a2,t3
80002f94:	256b0008 	addiu	t3,t3,8
80002f98:	30e20007 	andi	v0,a3,0x7
80002f9c:	00021540 	sll	v0,v0,0x15
80002fa0:	3c03fd10 	lui	v1,0xfd10
80002fa4:	00431025 	or	v0,v0,v1
80002fa8:	ac820000 	sw	v0,0(a0)
80002fac:	8f020008 	lw	v0,8(t8)
80002fb0:	01603821 	move	a3,t3
80002fb4:	256b0008 	addiu	t3,t3,8
80002fb8:	01804021 	move	t0,t4
80002fbc:	3c0a0700 	lui	t2,0x700
80002fc0:	ac820004 	sw	v0,4(a0)
80002fc4:	91c30030 	lbu	v1,48(t6)
80002fc8:	00141480 	sll	v0,s4,0x12
80002fcc:	004a1025 	or	v0,v0,t2
80002fd0:	00162200 	sll	a0,s6,0x8
80002fd4:	00441025 	or	v0,v0,a0
80002fd8:	aca20004 	sw	v0,4(a1)
80002fdc:	3c02f510 	lui	v0,0xf510
80002fe0:	30630007 	andi	v1,v1,0x7
80002fe4:	00031d40 	sll	v1,v1,0x15
80002fe8:	00621825 	or	v1,v1,v0
80002fec:	3c02e600 	lui	v0,0xe600
80002ff0:	aca30000 	sw	v1,0(a1)
80002ff4:	acc20000 	sw	v0,0(a2)
80002ff8:	3c02f300 	lui	v0,0xf300
80002ffc:	acc00004 	sw	zero,4(a2)
80003000:	05810002 	bgez	t4,8000300c <drawbitmap+0xd94>
80003004:	ace20000 	sw	v0,0(a3)
80003008:	25880003 	addiu	t0,t4,3
8000300c:	00082883 	sra	a1,t0,0x2
80003010:	18a00002 	blez	a1,8000301c <drawbitmap+0xda4>
80003014:	24030800 	li	v1,2048
80003018:	24a307ff 	addiu	v1,a1,2047
8000301c:	00000000 	nop
80003020:	018f0018 	mult	t4,t7
80003024:	00001012 	mflo	v0
80003028:	2444ffff 	addiu	a0,v0,-1
8000302c:	28820800 	slti	v0,a0,2048
80003030:	50400001 	beqzl	v0,80003038 <drawbitmap+0xdc0>
80003034:	240407ff 	li	a0,2047
80003038:	30820fff 	andi	v0,a0,0xfff
8000303c:	00021300 	sll	v0,v0,0xc
80003040:	18a00010 	blez	a1,80003084 <drawbitmap+0xe0c>
80003044:	004a2025 	or	a0,v0,t2
80003048:	0065001a 	div	zero,v1,a1
8000304c:	14a00002 	bnez	a1,80003058 <drawbitmap+0xde0>
80003050:	00000000 	nop
80003054:	0007000d 	break	0x7
80003058:	2401ffff 	li	at,-1
8000305c:	14a10004 	bne	a1,at,80003070 <drawbitmap+0xdf8>
80003060:	3c018000 	lui	at,0x8000
80003064:	14610002 	bne	v1,at,80003070 <drawbitmap+0xdf8>
80003068:	00000000 	nop
8000306c:	0006000d 	break	0x6
80003070:	00001012 	mflo	v0
	...
8000307c:	08000c22 	j	80003088 <drawbitmap+0xe10>
80003080:	30420fff 	andi	v0,v0,0xfff
80003084:	30620fff 	andi	v0,v1,0xfff
80003088:	00821025 	or	v0,a0,v0
8000308c:	ace20004 	sw	v0,4(a3)
80003090:	01601821 	move	v1,t3
80003094:	256b0008 	addiu	t3,t3,8
80003098:	01602821 	move	a1,t3
8000309c:	256b0008 	addiu	t3,t3,8
800030a0:	01603021 	move	a2,t3
800030a4:	256b0008 	addiu	t3,t3,8
800030a8:	3c02e700 	lui	v0,0xe700
800030ac:	ac620000 	sw	v0,0(v1)
800030b0:	ac600004 	sw	zero,4(v1)
800030b4:	91c40030 	lbu	a0,48(t6)
800030b8:	00141480 	sll	v0,s4,0x12
800030bc:	00161a00 	sll	v1,s6,0x8
800030c0:	00431025 	or	v0,v0,v1
800030c4:	aca20004 	sw	v0,4(a1)
800030c8:	25820007 	addiu	v0,t4,7
800030cc:	000210c3 	sra	v0,v0,0x3
800030d0:	304201ff 	andi	v0,v0,0x1ff
800030d4:	00021240 	sll	v0,v0,0x9
800030d8:	08000d58 	j	80003560 <drawbitmap+0x12e8>
800030dc:	3c03f510 	lui	v1,0xf510
800030e0:	95c20014 	lhu	v0,20(t6)
800030e4:	30420200 	andi	v0,v0,0x200
800030e8:	10400015 	beqz	v0,80003140 <drawbitmap+0xec8>
800030ec:	01602021 	move	a0,t3
800030f0:	256b0008 	addiu	t3,t3,8
800030f4:	01602821 	move	a1,t3
800030f8:	256b0008 	addiu	t3,t3,8
800030fc:	01603021 	move	a2,t3
80003100:	256b0008 	addiu	t3,t3,8
80003104:	30e20007 	andi	v0,a3,0x7
80003108:	00021540 	sll	v0,v0,0x15
8000310c:	3c03fd10 	lui	v1,0xfd10
80003110:	00431025 	or	v0,v0,v1
80003114:	ac820000 	sw	v0,0(a0)
80003118:	8f020008 	lw	v0,8(t8)
8000311c:	01608021 	move	s0,t3
80003120:	256b0008 	addiu	t3,t3,8
80003124:	00148c80 	sll	s1,s4,0x12
80003128:	00006821 	move	t5,zero
8000312c:	3c120700 	lui	s2,0x700
80003130:	00164a00 	sll	t1,s6,0x8
80003134:	3c14f510 	lui	s4,0xf510
80003138:	08000cc0 	j	80003300 <drawbitmap+0x1088>
8000313c:	00003821 	move	a3,zero
80003140:	256b0008 	addiu	t3,t3,8
80003144:	01602821 	move	a1,t3
80003148:	256b0008 	addiu	t3,t3,8
8000314c:	01603021 	move	a2,t3
80003150:	256b0008 	addiu	t3,t3,8
80003154:	30e20007 	andi	v0,a3,0x7
80003158:	00021540 	sll	v0,v0,0x15
8000315c:	3c03fd10 	lui	v1,0xfd10
80003160:	00431025 	or	v0,v0,v1
80003164:	ac820000 	sw	v0,0(a0)
80003168:	8f020008 	lw	v0,8(t8)
8000316c:	01603821 	move	a3,t3
80003170:	256b0008 	addiu	t3,t3,8
80003174:	01804021 	move	t0,t4
80003178:	3c0a0700 	lui	t2,0x700
8000317c:	ac820004 	sw	v0,4(a0)
80003180:	91c30030 	lbu	v1,48(t6)
80003184:	00141480 	sll	v0,s4,0x12
80003188:	004a1025 	or	v0,v0,t2
8000318c:	00162200 	sll	a0,s6,0x8
80003190:	00441025 	or	v0,v0,a0
80003194:	aca20004 	sw	v0,4(a1)
80003198:	3c02f510 	lui	v0,0xf510
8000319c:	30630007 	andi	v1,v1,0x7
800031a0:	00031d40 	sll	v1,v1,0x15
800031a4:	00621825 	or	v1,v1,v0
800031a8:	3c02e600 	lui	v0,0xe600
800031ac:	aca30000 	sw	v1,0(a1)
800031b0:	acc20000 	sw	v0,0(a2)
800031b4:	3c02f300 	lui	v0,0xf300
800031b8:	acc00004 	sw	zero,4(a2)
800031bc:	05810002 	bgez	t4,800031c8 <drawbitmap+0xf50>
800031c0:	ace20000 	sw	v0,0(a3)
800031c4:	25880003 	addiu	t0,t4,3
800031c8:	00082883 	sra	a1,t0,0x2
800031cc:	18a00002 	blez	a1,800031d8 <drawbitmap+0xf60>
800031d0:	24030800 	li	v1,2048
800031d4:	24a307ff 	addiu	v1,a1,2047
800031d8:	00000000 	nop
800031dc:	018f0018 	mult	t4,t7
800031e0:	00001012 	mflo	v0
800031e4:	2444ffff 	addiu	a0,v0,-1
800031e8:	28820800 	slti	v0,a0,2048
800031ec:	50400001 	beqzl	v0,800031f4 <drawbitmap+0xf7c>
800031f0:	240407ff 	li	a0,2047
800031f4:	30820fff 	andi	v0,a0,0xfff
800031f8:	00021300 	sll	v0,v0,0xc
800031fc:	18a00010 	blez	a1,80003240 <drawbitmap+0xfc8>
80003200:	004a2025 	or	a0,v0,t2
80003204:	0065001a 	div	zero,v1,a1
80003208:	14a00002 	bnez	a1,80003214 <drawbitmap+0xf9c>
8000320c:	00000000 	nop
80003210:	0007000d 	break	0x7
80003214:	2401ffff 	li	at,-1
80003218:	14a10004 	bne	a1,at,8000322c <drawbitmap+0xfb4>
8000321c:	3c018000 	lui	at,0x8000
80003220:	14610002 	bne	v1,at,8000322c <drawbitmap+0xfb4>
80003224:	00000000 	nop
80003228:	0006000d 	break	0x6
8000322c:	00001012 	mflo	v0
	...
80003238:	08000c91 	j	80003244 <drawbitmap+0xfcc>
8000323c:	30420fff 	andi	v0,v0,0xfff
80003240:	30620fff 	andi	v0,v1,0xfff
80003244:	00821025 	or	v0,a0,v0
80003248:	ace20004 	sw	v0,4(a3)
8000324c:	01601821 	move	v1,t3
80003250:	256b0008 	addiu	t3,t3,8
80003254:	01602821 	move	a1,t3
80003258:	256b0008 	addiu	t3,t3,8
8000325c:	01603021 	move	a2,t3
80003260:	256b0008 	addiu	t3,t3,8
80003264:	3c02e700 	lui	v0,0xe700
80003268:	ac620000 	sw	v0,0(v1)
8000326c:	ac600004 	sw	zero,4(v1)
80003270:	91c40030 	lbu	a0,48(t6)
80003274:	00141480 	sll	v0,s4,0x12
80003278:	00161a00 	sll	v1,s6,0x8
8000327c:	00431025 	or	v0,v0,v1
80003280:	aca20004 	sw	v0,4(a1)
80003284:	000c1040 	sll	v0,t4,0x1
80003288:	24420007 	addiu	v0,v0,7
8000328c:	000210c3 	sra	v0,v0,0x3
80003290:	304201ff 	andi	v0,v0,0x1ff
80003294:	00021240 	sll	v0,v0,0x9
80003298:	08000d58 	j	80003560 <drawbitmap+0x12e8>
8000329c:	3c03f510 	lui	v1,0xf510
800032a0:	95c20014 	lhu	v0,20(t6)
800032a4:	30420200 	andi	v0,v0,0x200
800032a8:	10400056 	beqz	v0,80003404 <drawbitmap+0x118c>
800032ac:	01602021 	move	a0,t3
800032b0:	256b0008 	addiu	t3,t3,8
800032b4:	01602821 	move	a1,t3
800032b8:	256b0008 	addiu	t3,t3,8
800032bc:	91c20030 	lbu	v0,48(t6)
800032c0:	01603021 	move	a2,t3
800032c4:	256b0008 	addiu	t3,t3,8
800032c8:	3c03fd18 	lui	v1,0xfd18
800032cc:	01608021 	move	s0,t3
800032d0:	256b0008 	addiu	t3,t3,8
800032d4:	00148c80 	sll	s1,s4,0x12
800032d8:	00006821 	move	t5,zero
800032dc:	3c120700 	lui	s2,0x700
800032e0:	00164a00 	sll	t1,s6,0x8
800032e4:	3c14f518 	lui	s4,0xf518
800032e8:	00003821 	move	a3,zero
800032ec:	30420007 	andi	v0,v0,0x7
800032f0:	00021540 	sll	v0,v0,0x15
800032f4:	00431025 	or	v0,v0,v1
800032f8:	ac820000 	sw	v0,0(a0)
800032fc:	8f020008 	lw	v0,8(t8)
80003300:	00004021 	move	t0,zero
80003304:	ac820004 	sw	v0,4(a0)
80003308:	91c30030 	lbu	v1,48(t6)
8000330c:	01b21025 	or	v0,t5,s2
80003310:	02221025 	or	v0,s1,v0
80003314:	00491025 	or	v0,v0,t1
80003318:	018f0018 	mult	t4,t7
8000331c:	00002012 	mflo	a0
80003320:	aca20004 	sw	v0,4(a1)
80003324:	3c02e600 	lui	v0,0xe600
80003328:	30630007 	andi	v1,v1,0x7
8000332c:	00031d40 	sll	v1,v1,0x15
80003330:	00741825 	or	v1,v1,s4
80003334:	aca30000 	sw	v1,0(a1)
80003338:	acc20000 	sw	v0,0(a2)
8000333c:	3c02f300 	lui	v0,0xf300
80003340:	acc00004 	sw	zero,4(a2)
80003344:	ae020000 	sw	v0,0(s0)
80003348:	2486ffff 	addiu	a2,a0,-1
8000334c:	28c20800 	slti	v0,a2,2048
80003350:	14400002 	bnez	v0,8000335c <drawbitmap+0x10e4>
80003354:	32aa000f 	andi	t2,s5,0xf
80003358:	240607ff 	li	a2,2047
8000335c:	01601821 	move	v1,t3
80003360:	256b0008 	addiu	t3,t3,8
80003364:	01602021 	move	a0,t3
80003368:	256b0008 	addiu	t3,t3,8
8000336c:	01602821 	move	a1,t3
80003370:	256b0008 	addiu	t3,t3,8
80003374:	30c20fff 	andi	v0,a2,0xfff
80003378:	00021300 	sll	v0,v0,0xc
8000337c:	00521025 	or	v0,v0,s2
80003380:	ae020004 	sw	v0,4(s0)
80003384:	3c02e700 	lui	v0,0xe700
80003388:	ac620000 	sw	v0,0(v1)
8000338c:	ac600004 	sw	zero,4(v1)
80003390:	91c30030 	lbu	v1,48(t6)
80003394:	022d1025 	or	v0,s1,t5
80003398:	00471025 	or	v0,v0,a3
8000339c:	00491025 	or	v0,v0,t1
800033a0:	00481025 	or	v0,v0,t0
800033a4:	004a1025 	or	v0,v0,t2
800033a8:	ac820004 	sw	v0,4(a0)
800033ac:	000c1040 	sll	v0,t4,0x1
800033b0:	24420007 	addiu	v0,v0,7
800033b4:	000210c3 	sra	v0,v0,0x3
800033b8:	304201ff 	andi	v0,v0,0x1ff
800033bc:	00021240 	sll	v0,v0,0x9
800033c0:	00541025 	or	v0,v0,s4
800033c4:	30630007 	andi	v1,v1,0x7
800033c8:	00031d40 	sll	v1,v1,0x15
800033cc:	00621825 	or	v1,v1,v0
800033d0:	3c02f200 	lui	v0,0xf200
800033d4:	ac830000 	sw	v1,0(a0)
800033d8:	2583ffff 	addiu	v1,t4,-1
800033dc:	00031880 	sll	v1,v1,0x2
800033e0:	30630fff 	andi	v1,v1,0xfff
800033e4:	00031b00 	sll	v1,v1,0xc
800033e8:	aca20000 	sw	v0,0(a1)
800033ec:	25e2ffff 	addiu	v0,t7,-1
800033f0:	00021080 	sll	v0,v0,0x2
800033f4:	30420fff 	andi	v0,v0,0xfff
800033f8:	00621825 	or	v1,v1,v0
800033fc:	08000d68 	j	800035a0 <drawbitmap+0x1328>
80003400:	aca30004 	sw	v1,4(a1)
80003404:	256b0008 	addiu	t3,t3,8
80003408:	01602821 	move	a1,t3
8000340c:	256b0008 	addiu	t3,t3,8
80003410:	91c20030 	lbu	v0,48(t6)
80003414:	01603021 	move	a2,t3
80003418:	256b0008 	addiu	t3,t3,8
8000341c:	3c03fd18 	lui	v1,0xfd18
80003420:	01604021 	move	t0,t3
80003424:	256b0008 	addiu	t3,t3,8
80003428:	30420007 	andi	v0,v0,0x7
8000342c:	00021540 	sll	v0,v0,0x15
80003430:	00431025 	or	v0,v0,v1
80003434:	ac820000 	sw	v0,0(a0)
80003438:	8f020008 	lw	v0,8(t8)
8000343c:	3c0a0700 	lui	t2,0x700
80003440:	ac820004 	sw	v0,4(a0)
80003444:	91c30030 	lbu	v1,48(t6)
80003448:	00141480 	sll	v0,s4,0x12
8000344c:	004a1025 	or	v0,v0,t2
80003450:	00162200 	sll	a0,s6,0x8
80003454:	00441025 	or	v0,v0,a0
80003458:	aca20004 	sw	v0,4(a1)
8000345c:	3c02f518 	lui	v0,0xf518
80003460:	30630007 	andi	v1,v1,0x7
80003464:	00031d40 	sll	v1,v1,0x15
80003468:	00621825 	or	v1,v1,v0
8000346c:	3c02e600 	lui	v0,0xe600
80003470:	aca30000 	sw	v1,0(a1)
80003474:	acc20000 	sw	v0,0(a2)
80003478:	3c02f300 	lui	v0,0xf300
8000347c:	acc00004 	sw	zero,4(a2)
80003480:	ad020000 	sw	v0,0(t0)
80003484:	000c17c2 	srl	v0,t4,0x1f
80003488:	01821021 	addu	v0,t4,v0
8000348c:	00022043 	sra	a0,v0,0x1
80003490:	18800002 	blez	a0,8000349c <drawbitmap+0x1224>
80003494:	24070800 	li	a3,2048
80003498:	248707ff 	addiu	a3,a0,2047
8000349c:	00000000 	nop
800034a0:	018f0018 	mult	t4,t7
800034a4:	00001012 	mflo	v0
800034a8:	2443ffff 	addiu	v1,v0,-1
800034ac:	28620800 	slti	v0,v1,2048
800034b0:	50400001 	beqzl	v0,800034b8 <drawbitmap+0x1240>
800034b4:	240307ff 	li	v1,2047
800034b8:	30620fff 	andi	v0,v1,0xfff
800034bc:	00021300 	sll	v0,v0,0xc
800034c0:	18800010 	blez	a0,80003504 <drawbitmap+0x128c>
800034c4:	004a2825 	or	a1,v0,t2
800034c8:	00e4001a 	div	zero,a3,a0
800034cc:	14800002 	bnez	a0,800034d8 <drawbitmap+0x1260>
800034d0:	00000000 	nop
800034d4:	0007000d 	break	0x7
800034d8:	2401ffff 	li	at,-1
800034dc:	14810004 	bne	a0,at,800034f0 <drawbitmap+0x1278>
800034e0:	3c018000 	lui	at,0x8000
800034e4:	14e10002 	bne	a3,at,800034f0 <drawbitmap+0x1278>
800034e8:	00000000 	nop
800034ec:	0006000d 	break	0x6
800034f0:	00001012 	mflo	v0
	...
800034fc:	08000d42 	j	80003508 <drawbitmap+0x1290>
80003500:	30420fff 	andi	v0,v0,0xfff
80003504:	30e20fff 	andi	v0,a3,0xfff
80003508:	00a21025 	or	v0,a1,v0
8000350c:	ad020004 	sw	v0,4(t0)
80003510:	01601821 	move	v1,t3
80003514:	256b0008 	addiu	t3,t3,8
80003518:	01602821 	move	a1,t3
8000351c:	256b0008 	addiu	t3,t3,8
80003520:	01603021 	move	a2,t3
80003524:	256b0008 	addiu	t3,t3,8
80003528:	3c02e700 	lui	v0,0xe700
8000352c:	ac620000 	sw	v0,0(v1)
80003530:	ac600004 	sw	zero,4(v1)
80003534:	91c40030 	lbu	a0,48(t6)
80003538:	00141480 	sll	v0,s4,0x12
8000353c:	00161a00 	sll	v1,s6,0x8
80003540:	00431025 	or	v0,v0,v1
80003544:	aca20004 	sw	v0,4(a1)
80003548:	000c1040 	sll	v0,t4,0x1
8000354c:	24420007 	addiu	v0,v0,7
80003550:	000210c3 	sra	v0,v0,0x3
80003554:	304201ff 	andi	v0,v0,0x1ff
80003558:	00021240 	sll	v0,v0,0x9
8000355c:	3c03f518 	lui	v1,0xf518
80003560:	00431025 	or	v0,v0,v1
80003564:	2583ffff 	addiu	v1,t4,-1
80003568:	00031880 	sll	v1,v1,0x2
8000356c:	30630fff 	andi	v1,v1,0xfff
80003570:	00031b00 	sll	v1,v1,0xc
80003574:	30840007 	andi	a0,a0,0x7
80003578:	00042540 	sll	a0,a0,0x15
8000357c:	00822025 	or	a0,a0,v0
80003580:	3c02f200 	lui	v0,0xf200
80003584:	aca40000 	sw	a0,0(a1)
80003588:	acc20000 	sw	v0,0(a2)
8000358c:	25e2ffff 	addiu	v0,t7,-1
80003590:	00021080 	sll	v0,v0,0x2
80003594:	30420fff 	andi	v0,v0,0xfff
80003598:	00621825 	or	v1,v1,v0
8000359c:	acc30004 	sw	v1,4(a2)
800035a0:	8f020008 	lw	v0,8(t8)
800035a4:	3c018001 	lui	at,0x8001
800035a8:	ac22c030 	sw	v0,-16336(at)
800035ac:	8e630004 	lw	v1,4(s3)
800035b0:	3c06f8ff 	lui	a2,0xf8ff
800035b4:	34c6ffff 	ori	a2,a2,0xffff
800035b8:	240200e4 	li	v0,228
800035bc:	a2620000 	sb	v0,0(s3)
800035c0:	8e650000 	lw	a1,0(s3)
800035c4:	97b7001e 	lhu	s7,30(sp)
800035c8:	3c04ff00 	lui	a0,0xff00
800035cc:	a6770008 	sh	s7,8(s3)
800035d0:	97b70026 	lhu	s7,38(sp)
800035d4:	34840fff 	ori	a0,a0,0xfff
800035d8:	a677000a 	sh	s7,10(s3)
800035dc:	8fb7002c 	lw	s7,44(sp)
800035e0:	00661824 	and	v1,v1,a2
800035e4:	00641824 	and	v1,v1,a0
800035e8:	32e20fff 	andi	v0,s7,0xfff
800035ec:	00021300 	sll	v0,v0,0xc
800035f0:	00621825 	or	v1,v1,v0
800035f4:	ae630004 	sw	v1,4(s3)
800035f8:	8fb7003c 	lw	s7,60(sp)
800035fc:	00a42824 	and	a1,a1,a0
80003600:	8e640004 	lw	a0,4(s3)
80003604:	32e20fff 	andi	v0,s7,0xfff
80003608:	00021300 	sll	v0,v0,0xc
8000360c:	00a22825 	or	a1,a1,v0
80003610:	ae650000 	sw	a1,0(s3)
80003614:	8e630000 	lw	v1,0(s3)
80003618:	8fb70034 	lw	s7,52(sp)
8000361c:	2405f000 	li	a1,-4096
80003620:	00852024 	and	a0,a0,a1
80003624:	32e20fff 	andi	v0,s7,0xfff
80003628:	8fb70044 	lw	s7,68(sp)
8000362c:	00822025 	or	a0,a0,v0
80003630:	00651824 	and	v1,v1,a1
80003634:	32e20fff 	andi	v0,s7,0xfff
80003638:	00621825 	or	v1,v1,v0
8000363c:	ae640004 	sw	a0,4(s3)
80003640:	ae630000 	sw	v1,0(s3)
80003644:	95c20014 	lhu	v0,20(t6)
80003648:	30420020 	andi	v0,v0,0x20
8000364c:	10400008 	beqz	v0,80003670 <drawbitmap+0x13f8>
80003650:	24020001 	li	v0,1
80003654:	91c30030 	lbu	v1,48(t6)
80003658:	10620005 	beq	v1,v0,80003670 <drawbitmap+0x13f8>
8000365c:	00000000 	nop
80003660:	8fb700dc 	lw	s7,220(sp)
80003664:	00171080 	sll	v0,s7,0x2
80003668:	08000d9e 	j	80003678 <drawbitmap+0x1400>
8000366c:	a662000c 	sh	v0,12(s3)
80003670:	97b700de 	lhu	s7,222(sp)
80003674:	a677000c 	sh	s7,12(s3)
80003678:	01603021 	move	a2,t3
8000367c:	256b0008 	addiu	t3,t3,8
80003680:	3c0400ff 	lui	a0,0xff
80003684:	3484f000 	ori	a0,a0,0xf000
80003688:	8e630000 	lw	v1,0(s3)
8000368c:	3c0507ff 	lui	a1,0x7ff
80003690:	34a5ffff 	ori	a1,a1,0xffff
80003694:	97b700e2 	lhu	s7,226(sp)
80003698:	3c02e400 	lui	v0,0xe400
8000369c:	00642024 	and	a0,v1,a0
800036a0:	30630fff 	andi	v1,v1,0xfff
800036a4:	00621825 	or	v1,v1,v0
800036a8:	00832025 	or	a0,a0,v1
800036ac:	a677000e 	sh	s7,14(s3)
800036b0:	acc40000 	sw	a0,0(a2)
800036b4:	8e620004 	lw	v0,4(s3)
800036b8:	01602021 	move	a0,t3
800036bc:	256b0008 	addiu	t3,t3,8
800036c0:	00a22824 	and	a1,a1,v0
800036c4:	3c02e100 	lui	v0,0xe100
800036c8:	acc50004 	sw	a1,4(a2)
800036cc:	ac820000 	sw	v0,0(a0)
800036d0:	96620008 	lhu	v0,8(s3)
800036d4:	9663000a 	lhu	v1,10(s3)
800036d8:	01602821 	move	a1,t3
800036dc:	256b0008 	addiu	t3,t3,8
800036e0:	00021400 	sll	v0,v0,0x10
800036e4:	00431025 	or	v0,v0,v1
800036e8:	ac820004 	sw	v0,4(a0)
800036ec:	3c02f100 	lui	v0,0xf100
800036f0:	aca20000 	sw	v0,0(a1)
800036f4:	9662000c 	lhu	v0,12(s3)
800036f8:	9663000e 	lhu	v1,14(s3)
800036fc:	01602021 	move	a0,t3
80003700:	00021400 	sll	v0,v0,0x10
80003704:	00431025 	or	v0,v0,v1
80003708:	aca20004 	sw	v0,4(a1)
8000370c:	3c02e700 	lui	v0,0xe700
80003710:	ac820000 	sw	v0,0(a0)
80003714:	ac800004 	sw	zero,4(a0)
80003718:	8fb70014 	lw	s7,20(sp)
8000371c:	256b0008 	addiu	t3,t3,8
80003720:	aeeb0000 	sw	t3,0(s7)
80003724:	8fbe00b0 	lw	s8,176(sp)
80003728:	8fb700ac 	lw	s7,172(sp)
8000372c:	8fb600a8 	lw	s6,168(sp)
80003730:	8fb500a4 	lw	s5,164(sp)
80003734:	8fb400a0 	lw	s4,160(sp)
80003738:	8fb3009c 	lw	s3,156(sp)
8000373c:	8fb20098 	lw	s2,152(sp)
80003740:	8fb10094 	lw	s1,148(sp)
80003744:	8fb00090 	lw	s0,144(sp)
80003748:	03e00008 	jr	ra
8000374c:	27bd00b8 	addiu	sp,sp,184

80003750 <spX2Init>:
80003750:	27bdffc8 	addiu	sp,sp,-56
80003754:	afbe0030 	sw	s8,48(sp)
80003758:	afb7002c 	sw	s7,44(sp)
8000375c:	afb60028 	sw	s6,40(sp)
80003760:	afb50024 	sw	s5,36(sp)
80003764:	afb40020 	sw	s4,32(sp)
80003768:	afb3001c 	sw	s3,28(sp)
8000376c:	afb20018 	sw	s2,24(sp)
80003770:	afb10014 	sw	s1,20(sp)
80003774:	afb00010 	sw	s0,16(sp)
80003778:	8c820000 	lw	v0,0(a0)
8000377c:	3c16e300 	lui	s6,0xe300
80003780:	36d60a01 	ori	s6,s6,0xa01
80003784:	3c17d700 	lui	s7,0xd700
80003788:	36f70002 	ori	s7,s7,0x2
8000378c:	3c138000 	lui	s3,0x8000
80003790:	36738000 	ori	s3,s3,0x8000
80003794:	3c10e200 	lui	s0,0xe200
80003798:	36101e01 	ori	s0,s0,0x1e01
8000379c:	3c11e300 	lui	s1,0xe300
800037a0:	36310c00 	ori	s1,s1,0xc00
800037a4:	3c12e300 	lui	s2,0xe300
800037a8:	36521201 	ori	s2,s2,0x1201
800037ac:	3c14e300 	lui	s4,0xe300
800037b0:	36941402 	ori	s4,s4,0x1402
800037b4:	3c18e300 	lui	t8,0xe300
800037b8:	37180d01 	ori	t8,t8,0xd01
800037bc:	3c19e300 	lui	t9,0xe300
800037c0:	37390f00 	ori	t9,t9,0xf00
800037c4:	3c1ee300 	lui	s8,0xe300
800037c8:	37de1001 	ori	s8,s8,0x1001
800037cc:	afb0000c 	sw	s0,12(sp)
800037d0:	3c10e200 	lui	s0,0xe200
800037d4:	3610001c 	ori	s0,s0,0x1c
800037d8:	3c150f0a 	lui	s5,0xf0a
800037dc:	36b57008 	ori	s5,s5,0x7008
800037e0:	24030140 	li	v1,320
800037e4:	3c018010 	lui	at,0x8010
800037e8:	ac23d090 	sw	v1,-12144(at)
800037ec:	240300f0 	li	v1,240
800037f0:	3c018010 	lui	at,0x8010
800037f4:	ac23d094 	sw	v1,-12140(at)
800037f8:	3c03e700 	lui	v1,0xe700
800037fc:	afb00004 	sw	s0,4(sp)
80003800:	3c018001 	lui	at,0x8001
80003804:	a420c034 	sh	zero,-16332(at)
80003808:	3c018010 	lui	at,0x8010
8000380c:	ac20d098 	sw	zero,-12136(at)
80003810:	3c018010 	lui	at,0x8010
80003814:	ac20d09c 	sw	zero,-12132(at)
80003818:	00402821 	move	a1,v0
8000381c:	24420008 	addiu	v0,v0,8
80003820:	00403021 	move	a2,v0
80003824:	24420008 	addiu	v0,v0,8
80003828:	00403821 	move	a3,v0
8000382c:	24420008 	addiu	v0,v0,8
80003830:	00404021 	move	t0,v0
80003834:	24420008 	addiu	v0,v0,8
80003838:	00404821 	move	t1,v0
8000383c:	24420008 	addiu	v0,v0,8
80003840:	00405021 	move	t2,v0
80003844:	24420008 	addiu	v0,v0,8
80003848:	00405821 	move	t3,v0
8000384c:	24420008 	addiu	v0,v0,8
80003850:	00406021 	move	t4,v0
80003854:	24420008 	addiu	v0,v0,8
80003858:	00406821 	move	t5,v0
8000385c:	24420008 	addiu	v0,v0,8
80003860:	00407021 	move	t6,v0
80003864:	aca30000 	sw	v1,0(a1)
80003868:	aca00004 	sw	zero,4(a1)
8000386c:	acd60000 	sw	s6,0(a2)
80003870:	acc00004 	sw	zero,4(a2)
80003874:	acf70000 	sw	s7,0(a3)
80003878:	acf30004 	sw	s3,4(a3)
8000387c:	8fb0000c 	lw	s0,12(sp)
80003880:	24420008 	addiu	v0,v0,8
80003884:	24032000 	li	v1,8192
80003888:	ad100000 	sw	s0,0(t0)
8000388c:	ad000004 	sw	zero,4(t0)
80003890:	ad310000 	sw	s1,0(t1)
80003894:	ad200004 	sw	zero,4(t1)
80003898:	ad430004 	sw	v1,4(t2)
8000389c:	24030c00 	li	v1,3072
800038a0:	ad520000 	sw	s2,0(t2)
800038a4:	ad740000 	sw	s4,0(t3)
800038a8:	ad630004 	sw	v1,4(t3)
800038ac:	ad980000 	sw	t8,0(t4)
800038b0:	ad800004 	sw	zero,4(t4)
800038b4:	adb90000 	sw	t9,0(t5)
800038b8:	ada00004 	sw	zero,4(t5)
800038bc:	adde0000 	sw	s8,0(t6)
800038c0:	adc00004 	sw	zero,4(t6)
800038c4:	8fb00004 	lw	s0,4(sp)
800038c8:	00407821 	move	t7,v0
800038cc:	24420008 	addiu	v0,v0,8
800038d0:	adf00000 	sw	s0,0(t7)
800038d4:	adf50004 	sw	s5,4(t7)
800038d8:	ac820000 	sw	v0,0(a0)
800038dc:	8fbe0030 	lw	s8,48(sp)
800038e0:	8fb7002c 	lw	s7,44(sp)
800038e4:	8fb60028 	lw	s6,40(sp)
800038e8:	8fb50024 	lw	s5,36(sp)
800038ec:	8fb40020 	lw	s4,32(sp)
800038f0:	8fb3001c 	lw	s3,28(sp)
800038f4:	8fb20018 	lw	s2,24(sp)
800038f8:	8fb10014 	lw	s1,20(sp)
800038fc:	8fb00010 	lw	s0,16(sp)
80003900:	03e00008 	jr	ra
80003904:	27bd0038 	addiu	sp,sp,56

80003908 <spX2Draw>:
80003908:	27bdff70 	addiu	sp,sp,-144
8000390c:	afb10054 	sw	s1,84(sp)
80003910:	00808821 	move	s1,a0
80003914:	afbf0074 	sw	ra,116(sp)
80003918:	afbe0070 	sw	s8,112(sp)
8000391c:	afb7006c 	sw	s7,108(sp)
80003920:	afb60068 	sw	s6,104(sp)
80003924:	afb50064 	sw	s5,100(sp)
80003928:	afb40060 	sw	s4,96(sp)
8000392c:	afb3005c 	sw	s3,92(sp)
80003930:	afb20058 	sw	s2,88(sp)
80003934:	afb00050 	sw	s0,80(sp)
80003938:	f7b80088 	sdc1	$f24,136(sp)
8000393c:	f7b60080 	sdc1	$f22,128(sp)
80003940:	f7b40078 	sdc1	$f20,120(sp)
80003944:	96220014 	lhu	v0,20(s1)
80003948:	30420004 	andi	v0,v0,0x4
8000394c:	144002fc 	bnez	v0,80004540 <spX2Draw+0xc38>
80003950:	00001021 	move	v0,zero
80003954:	8e22003c 	lw	v0,60(s1)
80003958:	3c018001 	lui	at,0x8001
8000395c:	ac20c030 	sw	zero,-16336(at)
80003960:	14400003 	bnez	v0,80003970 <spX2Draw+0x68>
80003964:	afa20030 	sw	v0,48(sp)
80003968:	8e220038 	lw	v0,56(s1)
8000396c:	afa20030 	sw	v0,48(sp)
80003970:	8e3e0034 	lw	s8,52(s1)
80003974:	00006821 	move	t5,zero
80003978:	3c028001 	lui	v0,0x8001
8000397c:	9442c034 	lhu	v0,-16332(v0)
80003980:	8faf0030 	lw	t7,48(sp)
80003984:	30420400 	andi	v0,v0,0x400
80003988:	10400005 	beqz	v0,800039a0 <spX2Draw+0x98>
8000398c:	00007021 	move	t6,zero
80003990:	96220014 	lhu	v0,20(s1)
80003994:	00021027 	nor	v0,zero,v0
80003998:	3c018001 	lui	at,0x8001
8000399c:	a422c034 	sh	v0,-16332(at)
800039a0:	96230014 	lhu	v1,20(s1)
800039a4:	30620400 	andi	v0,v1,0x400
800039a8:	10400003 	beqz	v0,800039b8 <spX2Draw+0xb0>
800039ac:	00000000 	nop
800039b0:	3c018001 	lui	at,0x8001
800039b4:	a423c034 	sh	v1,-16332(at)
800039b8:	96220014 	lhu	v0,20(s1)
800039bc:	3c038001 	lui	v1,0x8001
800039c0:	9463c034 	lhu	v1,-16332(v1)
800039c4:	1043004f 	beq	v0,v1,80003b04 <spX2Draw+0x1fc>
800039c8:	30420001 	andi	v0,v0,0x1
800039cc:	10400007 	beqz	v0,800039ec <spX2Draw+0xe4>
800039d0:	30620001 	andi	v0,v1,0x1
800039d4:	1440000e 	bnez	v0,80003a10 <spX2Draw+0x108>
800039d8:	3c04e200 	lui	a0,0xe200
800039dc:	3484001c 	ori	a0,a0,0x1c
800039e0:	3c030050 	lui	v1,0x50
800039e4:	08000e80 	j	80003a00 <spX2Draw+0xf8>
800039e8:	34634240 	ori	v1,v1,0x4240
800039ec:	10400008 	beqz	v0,80003a10 <spX2Draw+0x108>
800039f0:	3c04e200 	lui	a0,0xe200
800039f4:	3484001c 	ori	a0,a0,0x1c
800039f8:	3c030f0a 	lui	v1,0xf0a
800039fc:	34637008 	ori	v1,v1,0x7008
80003a00:	25e20008 	addiu	v0,t7,8
80003a04:	afa20030 	sw	v0,48(sp)
80003a08:	ade40000 	sw	a0,0(t7)
80003a0c:	ade30004 	sw	v1,4(t7)
80003a10:	96220014 	lhu	v0,20(s1)
80003a14:	30420002 	andi	v0,v0,0x2
80003a18:	10400014 	beqz	v0,80003a6c <spX2Draw+0x164>
80003a1c:	00000000 	nop
80003a20:	3c028001 	lui	v0,0x8001
80003a24:	9442c034 	lhu	v0,-16332(v0)
80003a28:	30420002 	andi	v0,v0,0x2
80003a2c:	1440001a 	bnez	v0,80003a98 <spX2Draw+0x190>
80003a30:	3c04e200 	lui	a0,0xe200
80003a34:	8fa30030 	lw	v1,48(sp)
80003a38:	34841e01 	ori	a0,a0,0x1e01
80003a3c:	24620008 	addiu	v0,v1,8
80003a40:	afa20030 	sw	v0,48(sp)
80003a44:	3c02f900 	lui	v0,0xf900
80003a48:	ac620000 	sw	v0,0(v1)
80003a4c:	2402ff01 	li	v0,-255
80003a50:	ac620004 	sw	v0,4(v1)
80003a54:	24620010 	addiu	v0,v1,16
80003a58:	afa20030 	sw	v0,48(sp)
80003a5c:	24020001 	li	v0,1
80003a60:	ac640008 	sw	a0,8(v1)
80003a64:	08000ea6 	j	80003a98 <spX2Draw+0x190>
80003a68:	ac62000c 	sw	v0,12(v1)
80003a6c:	3c028001 	lui	v0,0x8001
80003a70:	9442c034 	lhu	v0,-16332(v0)
80003a74:	30420002 	andi	v0,v0,0x2
80003a78:	10400007 	beqz	v0,80003a98 <spX2Draw+0x190>
80003a7c:	3c04e200 	lui	a0,0xe200
80003a80:	8fa20030 	lw	v0,48(sp)
80003a84:	34841e01 	ori	a0,a0,0x1e01
80003a88:	24430008 	addiu	v1,v0,8
80003a8c:	afa30030 	sw	v1,48(sp)
80003a90:	ac440000 	sw	a0,0(v0)
80003a94:	ac400004 	sw	zero,4(v0)
80003a98:	96220014 	lhu	v0,20(s1)
80003a9c:	30420080 	andi	v0,v0,0x80
80003aa0:	1040000c 	beqz	v0,80003ad4 <spX2Draw+0x1cc>
80003aa4:	00000000 	nop
80003aa8:	3c028001 	lui	v0,0x8001
80003aac:	9442c034 	lhu	v0,-16332(v0)
80003ab0:	30420080 	andi	v0,v0,0x80
80003ab4:	14400013 	bnez	v0,80003b04 <spX2Draw+0x1fc>
80003ab8:	3c04e300 	lui	a0,0xe300
80003abc:	8fa30030 	lw	v1,48(sp)
80003ac0:	34841201 	ori	a0,a0,0x1201
80003ac4:	24620008 	addiu	v0,v1,8
80003ac8:	afa20030 	sw	v0,48(sp)
80003acc:	08000ebf 	j	80003afc <spX2Draw+0x1f4>
80003ad0:	24023000 	li	v0,12288
80003ad4:	3c028001 	lui	v0,0x8001
80003ad8:	9442c034 	lhu	v0,-16332(v0)
80003adc:	30420080 	andi	v0,v0,0x80
80003ae0:	10400008 	beqz	v0,80003b04 <spX2Draw+0x1fc>
80003ae4:	3c04e300 	lui	a0,0xe300
80003ae8:	8fa30030 	lw	v1,48(sp)
80003aec:	34841201 	ori	a0,a0,0x1201
80003af0:	24620008 	addiu	v0,v1,8
80003af4:	afa20030 	sw	v0,48(sp)
80003af8:	24022000 	li	v0,8192
80003afc:	ac640000 	sw	a0,0(v1)
80003b00:	ac620004 	sw	v0,4(v1)
80003b04:	96220014 	lhu	v0,20(s1)
80003b08:	3c018001 	lui	at,0x8001
80003b0c:	a422c034 	sh	v0,-16332(at)
80003b10:	30420008 	andi	v0,v0,0x8
80003b14:	10400008 	beqz	v0,80003b38 <spX2Draw+0x230>
80003b18:	3c02ee00 	lui	v0,0xee00
80003b1c:	8fa40030 	lw	a0,48(sp)
80003b20:	ac820000 	sw	v0,0(a0)
80003b24:	96220016 	lhu	v0,22(s1)
80003b28:	24830008 	addiu	v1,a0,8
80003b2c:	afa30030 	sw	v1,48(sp)
80003b30:	00021400 	sll	v0,v0,0x10
80003b34:	ac820004 	sw	v0,4(a0)
80003b38:	8fa50030 	lw	a1,48(sp)
80003b3c:	24a20008 	addiu	v0,a1,8
80003b40:	afa20030 	sw	v0,48(sp)
80003b44:	3c02fa00 	lui	v0,0xfa00
80003b48:	aca20000 	sw	v0,0(a1)
80003b4c:	92220018 	lbu	v0,24(s1)
80003b50:	92230019 	lbu	v1,25(s1)
80003b54:	9224001a 	lbu	a0,26(s1)
80003b58:	00021600 	sll	v0,v0,0x18
80003b5c:	00031c00 	sll	v1,v1,0x10
80003b60:	00431025 	or	v0,v0,v1
80003b64:	9223001b 	lbu	v1,27(s1)
80003b68:	00042200 	sll	a0,a0,0x8
80003b6c:	00441025 	or	v0,v0,a0
80003b70:	00431025 	or	v0,v0,v1
80003b74:	aca20004 	sw	v0,4(a1)
80003b78:	92220030 	lbu	v0,48(s1)
80003b7c:	2442fffd 	addiu	v0,v0,-3
80003b80:	2c420002 	sltiu	v0,v0,2
80003b84:	10400006 	beqz	v0,80003ba0 <spX2Draw+0x298>
80003b88:	240200ff 	li	v0,255
80003b8c:	9223001b 	lbu	v1,27(s1)
80003b90:	10620007 	beq	v1,v0,80003bb0 <spX2Draw+0x2a8>
80003b94:	3c02fc11 	lui	v0,0xfc11
80003b98:	08000ef3 	j	80003bcc <spX2Draw+0x2c4>
80003b9c:	3c04fc11 	lui	a0,0xfc11
80003ba0:	9223001b 	lbu	v1,27(s1)
80003ba4:	14620009 	bne	v1,v0,80003bcc <spX2Draw+0x2c4>
80003ba8:	3c04fc11 	lui	a0,0xfc11
80003bac:	3c02fc11 	lui	v0,0xfc11
80003bb0:	3442fe23 	ori	v0,v0,0xfe23
80003bb4:	24a30010 	addiu	v1,a1,16
80003bb8:	afa30030 	sw	v1,48(sp)
80003bbc:	aca20008 	sw	v0,8(a1)
80003bc0:	2402f3f9 	li	v0,-3079
80003bc4:	08000efa 	j	80003be8 <spX2Draw+0x2e0>
80003bc8:	aca2000c 	sw	v0,12(a1)
80003bcc:	34849623 	ori	a0,a0,0x9623
80003bd0:	3c03ff2f 	lui	v1,0xff2f
80003bd4:	3463ffff 	ori	v1,v1,0xffff
80003bd8:	24a20010 	addiu	v0,a1,16
80003bdc:	afa20030 	sw	v0,48(sp)
80003be0:	aca40008 	sw	a0,8(a1)
80003be4:	aca3000c 	sw	v1,12(a1)
80003be8:	92230030 	lbu	v1,48(s1)
80003bec:	24020002 	li	v0,2
80003bf0:	14620038 	bne	v1,v0,80003cd4 <spX2Draw+0x3cc>
80003bf4:	24020001 	li	v0,1
80003bf8:	8fa40030 	lw	a0,48(sp)
80003bfc:	3c02e300 	lui	v0,0xe300
80003c00:	34421001 	ori	v0,v0,0x1001
80003c04:	ac820000 	sw	v0,0(a0)
80003c08:	34028000 	li	v0,0x8000
80003c0c:	ac820004 	sw	v0,4(a0)
80003c10:	3c02fd10 	lui	v0,0xfd10
80003c14:	ac820008 	sw	v0,8(a0)
80003c18:	8e230020 	lw	v1,32(s1)
80003c1c:	3c060700 	lui	a2,0x700
80003c20:	3c02e800 	lui	v0,0xe800
80003c24:	ac820010 	sw	v0,16(a0)
80003c28:	ac800014 	sw	zero,20(a0)
80003c2c:	ac83000c 	sw	v1,12(a0)
80003c30:	8622001c 	lh	v0,28(s1)
80003c34:	3c05e600 	lui	a1,0xe600
80003c38:	3c03f000 	lui	v1,0xf000
80003c3c:	ac830028 	sw	v1,40(a0)
80003c40:	3c03f500 	lui	v1,0xf500
80003c44:	ac86001c 	sw	a2,28(a0)
80003c48:	ac850020 	sw	a1,32(a0)
80003c4c:	ac800024 	sw	zero,36(a0)
80003c50:	24420100 	addiu	v0,v0,256
80003c54:	304201ff 	andi	v0,v0,0x1ff
80003c58:	00431025 	or	v0,v0,v1
80003c5c:	ac820018 	sw	v0,24(a0)
80003c60:	8623001e 	lh	v1,30(s1)
80003c64:	24820008 	addiu	v0,a0,8
80003c68:	afa20030 	sw	v0,48(sp)
80003c6c:	24820010 	addiu	v0,a0,16
80003c70:	afa20030 	sw	v0,48(sp)
80003c74:	24820018 	addiu	v0,a0,24
80003c78:	afa20030 	sw	v0,48(sp)
80003c7c:	24820020 	addiu	v0,a0,32
80003c80:	afa20030 	sw	v0,48(sp)
80003c84:	24820028 	addiu	v0,a0,40
80003c88:	afa20030 	sw	v0,48(sp)
80003c8c:	24820030 	addiu	v0,a0,48
80003c90:	afa20030 	sw	v0,48(sp)
80003c94:	24820038 	addiu	v0,a0,56
80003c98:	afa20030 	sw	v0,48(sp)
80003c9c:	24820040 	addiu	v0,a0,64
80003ca0:	afa20030 	sw	v0,48(sp)
80003ca4:	3c02e700 	lui	v0,0xe700
80003ca8:	ac820030 	sw	v0,48(a0)
80003cac:	ac800034 	sw	zero,52(a0)
80003cb0:	ac850038 	sw	a1,56(a0)
80003cb4:	ac80003c 	sw	zero,60(a0)
80003cb8:	2463ffff 	addiu	v1,v1,-1
80003cbc:	306303ff 	andi	v1,v1,0x3ff
80003cc0:	00031b80 	sll	v1,v1,0xe
80003cc4:	00661825 	or	v1,v1,a2
80003cc8:	ac83002c 	sw	v1,44(a0)
80003ccc:	92230030 	lbu	v1,48(s1)
80003cd0:	24020001 	li	v0,1
80003cd4:	14620047 	bne	v1,v0,80003df4 <spX2Draw+0x4ec>
80003cd8:	00000000 	nop
80003cdc:	96220014 	lhu	v0,20(s1)
80003ce0:	30420020 	andi	v0,v0,0x20
80003ce4:	1040001e 	beqz	v0,80003d60 <spX2Draw+0x458>
80003ce8:	3c04e300 	lui	a0,0xe300
80003cec:	34841402 	ori	a0,a0,0x1402
80003cf0:	3c05e300 	lui	a1,0xe300
80003cf4:	34a51201 	ori	a1,a1,0x1201
80003cf8:	3c08fc17 	lui	t0,0xfc17
80003cfc:	3508fe2f 	ori	t0,t0,0xfe2f
80003d00:	3c0777fc 	lui	a3,0x77fc
80003d04:	34e7f87c 	ori	a3,a3,0xf87c
80003d08:	3c09ec15 	lui	t1,0xec15
80003d0c:	3529fd5d 	ori	t1,t1,0xfd5d
80003d10:	8fa20030 	lw	v0,48(sp)
80003d14:	3c063b78 	lui	a2,0x3b78
80003d18:	34c6e42a 	ori	a2,a2,0xe42a
80003d1c:	24430008 	addiu	v1,v0,8
80003d20:	afa30030 	sw	v1,48(sp)
80003d24:	24430010 	addiu	v1,v0,16
80003d28:	ac440000 	sw	a0,0(v0)
80003d2c:	ac400004 	sw	zero,4(v0)
80003d30:	afa30030 	sw	v1,48(sp)
80003d34:	24430018 	addiu	v1,v0,24
80003d38:	ac450008 	sw	a1,8(v0)
80003d3c:	ac40000c 	sw	zero,12(v0)
80003d40:	afa30030 	sw	v1,48(sp)
80003d44:	24430020 	addiu	v1,v0,32
80003d48:	ac480010 	sw	t0,16(v0)
80003d4c:	ac470014 	sw	a3,20(v0)
80003d50:	afa30030 	sw	v1,48(sp)
80003d54:	ac490018 	sw	t1,24(v0)
80003d58:	08000f7d 	j	80003df4 <spX2Draw+0x4ec>
80003d5c:	ac46001c 	sw	a2,28(v0)
80003d60:	34840a01 	ori	a0,a0,0xa01
80003d64:	3c05e300 	lui	a1,0xe300
80003d68:	34a51201 	ori	a1,a1,0x1201
80003d6c:	3c06e300 	lui	a2,0xe300
80003d70:	34c61402 	ori	a2,a2,0x1402
80003d74:	3c09ec15 	lui	t1,0xec15
80003d78:	3529fd5d 	ori	t1,t1,0xfd5d
80003d7c:	3c083b78 	lui	t0,0x3b78
80003d80:	3508e42a 	ori	t0,t0,0xe42a
80003d84:	3c0afc27 	lui	t2,0xfc27
80003d88:	354affff 	ori	t2,t2,0xffff
80003d8c:	8fa20030 	lw	v0,48(sp)
80003d90:	3c077ffd 	lui	a3,0x7ffd
80003d94:	34e77e38 	ori	a3,a3,0x7e38
80003d98:	24430008 	addiu	v1,v0,8
80003d9c:	afa30030 	sw	v1,48(sp)
80003da0:	3c030010 	lui	v1,0x10
80003da4:	ac430004 	sw	v1,4(v0)
80003da8:	24430010 	addiu	v1,v0,16
80003dac:	ac440000 	sw	a0,0(v0)
80003db0:	afa30030 	sw	v1,48(sp)
80003db4:	24032000 	li	v1,8192
80003db8:	ac43000c 	sw	v1,12(v0)
80003dbc:	24430018 	addiu	v1,v0,24
80003dc0:	ac450008 	sw	a1,8(v0)
80003dc4:	afa30030 	sw	v1,48(sp)
80003dc8:	24030a00 	li	v1,2560
80003dcc:	ac430014 	sw	v1,20(v0)
80003dd0:	24430020 	addiu	v1,v0,32
80003dd4:	ac460010 	sw	a2,16(v0)
80003dd8:	afa30030 	sw	v1,48(sp)
80003ddc:	24430028 	addiu	v1,v0,40
80003de0:	ac490018 	sw	t1,24(v0)
80003de4:	ac48001c 	sw	t0,28(v0)
80003de8:	afa30030 	sw	v1,48(sp)
80003dec:	ac4a0020 	sw	t2,32(v0)
80003df0:	ac470024 	sw	a3,36(v0)
80003df4:	96220014 	lhu	v0,20(s1)
80003df8:	30420010 	andi	v0,v0,0x10
80003dfc:	10400004 	beqz	v0,80003e10 <spX2Draw+0x508>
80003e00:	00000000 	nop
80003e04:	c6380008 	lwc1	$f24,8(s1)
80003e08:	08000f88 	j	80003e20 <spX2Draw+0x518>
80003e0c:	c634000c 	lwc1	$f20,12(s1)
80003e10:	3c013f80 	lui	at,0x3f80
80003e14:	4481a000 	mtc1	at,$f20
80003e18:	00000000 	nop
80003e1c:	4600a606 	mov.s	$f24,$f20
80003e20:	3c014480 	lui	at,0x4480
80003e24:	44810000 	mtc1	at,$f0
80003e28:	00000000 	nop
80003e2c:	46180083 	div.s	$f2,$f0,$f24
80003e30:	46140003 	div.s	$f0,$f0,$f20
80003e34:	3c013f00 	lui	at,0x3f00
80003e38:	44812000 	mtc1	at,$f4
80003e3c:	00000000 	nop
80003e40:	46041080 	add.s	$f2,$f2,$f4
80003e44:	46040000 	add.s	$f0,$f0,$f4
80003e48:	4600110d 	trunc.w.s	$f4,$f2
80003e4c:	44092000 	mfc1	t1,$f4
80003e50:	4600008d 	trunc.w.s	$f2,$f0
80003e54:	44081000 	mfc1	t0,$f2
80003e58:	13c0012d 	beqz	s8,80004310 <spX2Draw+0xa08>
80003e5c:	00000000 	nop
80003e60:	96220014 	lhu	v0,20(s1)
80003e64:	30420020 	andi	v0,v0,0x20
80003e68:	1040000b 	beqz	v0,80003e98 <spX2Draw+0x590>
80003e6c:	24020001 	li	v0,1
80003e70:	92230030 	lbu	v1,48(s1)
80003e74:	10620008 	beq	v1,v0,80003e98 <spX2Draw+0x590>
80003e78:	3c04e300 	lui	a0,0xe300
80003e7c:	8fa30030 	lw	v1,48(sp)
80003e80:	34840a01 	ori	a0,a0,0xa01
80003e84:	24620008 	addiu	v0,v1,8
80003e88:	afa20030 	sw	v0,48(sp)
80003e8c:	3c020020 	lui	v0,0x20
80003e90:	ac640000 	sw	a0,0(v1)
80003e94:	ac620004 	sw	v0,4(v1)
80003e98:	0000a021 	move	s4,zero
80003e9c:	44940000 	mtc1	s4,$f0
80003ea0:	00000000 	nop
80003ea4:	46800020 	cvt.s.w	$f0,$f0
80003ea8:	4600a002 	mul.s	$f0,$f20,$f0
80003eac:	86220002 	lh	v0,2(s1)
80003eb0:	44823000 	mtc1	v0,$f6
80003eb4:	00000000 	nop
80003eb8:	468031a0 	cvt.s.w	$f6,$f6
80003ebc:	46003100 	add.s	$f4,$f6,$f0
80003ec0:	3c013f7f 	lui	at,0x3f7f
80003ec4:	3421ff58 	ori	at,at,0xff58
80003ec8:	44814000 	mtc1	at,$f8
80003ecc:	00000000 	nop
80003ed0:	46082000 	add.s	$f0,$f4,$f8
80003ed4:	4600008d 	trunc.w.s	$f2,$f0
80003ed8:	44161000 	mfc1	s6,$f2
80003edc:	00000000 	nop
80003ee0:	44960000 	mtc1	s6,$f0
80003ee4:	00000000 	nop
80003ee8:	46800020 	cvt.s.w	$f0,$f0
80003eec:	46040001 	sub.s	$f0,$f0,$f4
80003ef0:	44881000 	mtc1	t0,$f2
80003ef4:	00000000 	nop
80003ef8:	468010a0 	cvt.s.w	$f2,$f2
80003efc:	46001082 	mul.s	$f2,$f2,$f0
80003f00:	96230014 	lhu	v1,20(s1)
80003f04:	4600100d 	trunc.w.s	$f0,$f2
80003f08:	44120000 	mfc1	s2,$f0
80003f0c:	00000000 	nop
80003f10:	26420010 	addiu	v0,s2,16
80003f14:	00029143 	sra	s2,v0,0x5
80003f18:	30620080 	andi	v0,v1,0x80
80003f1c:	10400002 	beqz	v0,80003f28 <spX2Draw+0x620>
80003f20:	00009821 	move	s3,zero
80003f24:	26520010 	addiu	s2,s2,16
80003f28:	30620100 	andi	v0,v1,0x100
80003f2c:	10400003 	beqz	v0,80003f3c <spX2Draw+0x634>
80003f30:	00000000 	nop
80003f34:	86220042 	lh	v0,66(s1)
80003f38:	02429021 	addu	s2,s2,v0
80003f3c:	862b002c 	lh	t3,44(s1)
80003f40:	448b0000 	mtc1	t3,$f0
80003f44:	00000000 	nop
80003f48:	46800020 	cvt.s.w	$f0,$f0
80003f4c:	46140002 	mul.s	$f0,$f0,$f20
80003f50:	46003000 	add.s	$f0,$f6,$f0
80003f54:	46080000 	add.s	$f0,$f0,$f8
80003f58:	4600008d 	trunc.w.s	$f2,$f0
80003f5c:	44101000 	mfc1	s0,$f2
80003f60:	30620020 	andi	v0,v1,0x20
80003f64:	10400005 	beqz	v0,80003f7c <spX2Draw+0x674>
80003f68:	00000000 	nop
80003f6c:	92220030 	lbu	v0,48(s1)
80003f70:	38420001 	xori	v0,v0,0x1
80003f74:	0002102b 	sltu	v0,zero,v0
80003f78:	02028023 	subu	s0,s0,v0
80003f7c:	86220028 	lh	v0,40(s1)
80003f80:	0282102a 	slt	v0,s4,v0
80003f84:	104000be 	beqz	v0,80004280 <spX2Draw+0x978>
80003f88:	0000b821 	move	s7,zero
80003f8c:	3c013f7f 	lui	at,0x3f7f
80003f90:	3421f972 	ori	at,at,0xf972
80003f94:	4481b000 	mtc1	at,$f22
80003f98:	27d50008 	addiu	s5,s8,8
80003f9c:	87c30000 	lh	v1,0(s8)
80003fa0:	186000b7 	blez	v1,80004280 <spX2Draw+0x978>
80003fa4:	00000000 	nop
80003fa8:	86220004 	lh	v0,4(s1)
80003fac:	02631821 	addu	v1,s3,v1
80003fb0:	0043102a 	slt	v0,v0,v1
80003fb4:	10400044 	beqz	v0,800040c8 <spX2Draw+0x7c0>
80003fb8:	00000000 	nop
80003fbc:	8624002c 	lh	a0,44(s1)
80003fc0:	0284a021 	addu	s4,s4,a0
80003fc4:	44940000 	mtc1	s4,$f0
80003fc8:	00000000 	nop
80003fcc:	46800020 	cvt.s.w	$f0,$f0
80003fd0:	46140002 	mul.s	$f0,$f0,$f20
80003fd4:	86220002 	lh	v0,2(s1)
80003fd8:	44823000 	mtc1	v0,$f6
80003fdc:	00000000 	nop
80003fe0:	468031a0 	cvt.s.w	$f6,$f6
80003fe4:	46003100 	add.s	$f4,$f6,$f0
80003fe8:	46162000 	add.s	$f0,$f4,$f22
80003fec:	4600008d 	trunc.w.s	$f2,$f0
80003ff0:	44161000 	mfc1	s6,$f2
80003ff4:	00000000 	nop
80003ff8:	44960000 	mtc1	s6,$f0
80003ffc:	00000000 	nop
80004000:	46800020 	cvt.s.w	$f0,$f0
80004004:	46040001 	sub.s	$f0,$f0,$f4
80004008:	44881000 	mtc1	t0,$f2
8000400c:	00000000 	nop
80004010:	468010a0 	cvt.s.w	$f2,$f2
80004014:	46001082 	mul.s	$f2,$f2,$f0
80004018:	00009821 	move	s3,zero
8000401c:	00006821 	move	t5,zero
80004020:	86220012 	lh	v0,18(s1)
80004024:	96230014 	lhu	v1,20(s1)
80004028:	01c27021 	addu	t6,t6,v0
8000402c:	4600100d 	trunc.w.s	$f0,$f2
80004030:	44120000 	mfc1	s2,$f0
80004034:	00000000 	nop
80004038:	26420010 	addiu	v0,s2,16
8000403c:	00029143 	sra	s2,v0,0x5
80004040:	30620080 	andi	v0,v1,0x80
80004044:	10400002 	beqz	v0,80004050 <spX2Draw+0x748>
80004048:	02845821 	addu	t3,s4,a0
8000404c:	26520010 	addiu	s2,s2,16
80004050:	30620100 	andi	v0,v1,0x100
80004054:	10400003 	beqz	v0,80004064 <spX2Draw+0x75c>
80004058:	00000000 	nop
8000405c:	86220042 	lh	v0,66(s1)
80004060:	02429021 	addu	s2,s2,v0
80004064:	448b0000 	mtc1	t3,$f0
80004068:	00000000 	nop
8000406c:	46800020 	cvt.s.w	$f0,$f0
80004070:	46140002 	mul.s	$f0,$f0,$f20
80004074:	46003000 	add.s	$f0,$f6,$f0
80004078:	46160000 	add.s	$f0,$f0,$f22
8000407c:	02ceb021 	addu	s6,s6,t6
80004080:	4600008d 	trunc.w.s	$f2,$f0
80004084:	44101000 	mfc1	s0,$f2
80004088:	30620020 	andi	v0,v1,0x20
8000408c:	10400005 	beqz	v0,800040a4 <spX2Draw+0x79c>
80004090:	020e8021 	addu	s0,s0,t6
80004094:	92220030 	lbu	v0,48(s1)
80004098:	38420001 	xori	v0,v0,0x1
8000409c:	0002102b 	sltu	v0,zero,v0
800040a0:	02028023 	subu	s0,s0,v0
800040a4:	86a20004 	lh	v0,4(s5)
800040a8:	14400002 	bnez	v0,800040b4 <spX2Draw+0x7ac>
800040ac:	00401821 	move	v1,v0
800040b0:	00801821 	move	v1,a0
800040b4:	86220006 	lh	v0,6(s1)
800040b8:	02831821 	addu	v1,s4,v1
800040bc:	0043102a 	slt	v0,v0,v1
800040c0:	1440006f 	bnez	v0,80004280 <spX2Draw+0x978>
800040c4:	00000000 	nop
800040c8:	44932000 	mtc1	s3,$f4
800040cc:	00000000 	nop
800040d0:	46802120 	cvt.s.w	$f4,$f4
800040d4:	46182102 	mul.s	$f4,$f4,$f24
800040d8:	86220000 	lh	v0,0(s1)
800040dc:	44823000 	mtc1	v0,$f6
800040e0:	00000000 	nop
800040e4:	468031a0 	cvt.s.w	$f6,$f6
800040e8:	46043100 	add.s	$f4,$f6,$f4
800040ec:	46162000 	add.s	$f0,$f4,$f22
800040f0:	4600008d 	trunc.w.s	$f2,$f0
800040f4:	44071000 	mfc1	a3,$f2
800040f8:	00000000 	nop
800040fc:	44871000 	mtc1	a3,$f2
80004100:	00000000 	nop
80004104:	468010a0 	cvt.s.w	$f2,$f2
80004108:	46041081 	sub.s	$f2,$f2,$f4
8000410c:	44890000 	mtc1	t1,$f0
80004110:	00000000 	nop
80004114:	46800020 	cvt.s.w	$f0,$f0
80004118:	46020002 	mul.s	$f0,$f0,$f2
8000411c:	96260014 	lhu	a2,20(s1)
80004120:	4600008d 	trunc.w.s	$f2,$f0
80004124:	44041000 	mfc1	a0,$f2
80004128:	00000000 	nop
8000412c:	24820010 	addiu	v0,a0,16
80004130:	00022143 	sra	a0,v0,0x5
80004134:	30c20080 	andi	v0,a2,0x80
80004138:	54400001 	bnezl	v0,80004140 <spX2Draw+0x838>
8000413c:	24840010 	addiu	a0,a0,16
80004140:	30c20100 	andi	v0,a2,0x100
80004144:	10400003 	beqz	v0,80004154 <spX2Draw+0x84c>
80004148:	00000000 	nop
8000414c:	86220040 	lh	v0,64(s1)
80004150:	00822021 	addu	a0,a0,v0
80004154:	87c20000 	lh	v0,0(s8)
80004158:	02626021 	addu	t4,s3,v0
8000415c:	448c0000 	mtc1	t4,$f0
80004160:	00000000 	nop
80004164:	46800020 	cvt.s.w	$f0,$f0
80004168:	46180002 	mul.s	$f0,$f0,$f24
8000416c:	46003000 	add.s	$f0,$f6,$f0
80004170:	46160000 	add.s	$f0,$f0,$f22
80004174:	86a30004 	lh	v1,4(s5)
80004178:	4600008d 	trunc.w.s	$f2,$f0
8000417c:	44051000 	mfc1	a1,$f2
80004180:	00000000 	nop
80004184:	10600014 	beqz	v1,800041d8 <spX2Draw+0x8d0>
80004188:	02835821 	addu	t3,s4,v1
8000418c:	448b1000 	mtc1	t3,$f2
80004190:	00000000 	nop
80004194:	468010a0 	cvt.s.w	$f2,$f2
80004198:	46141082 	mul.s	$f2,$f2,$f20
8000419c:	86220002 	lh	v0,2(s1)
800041a0:	44820000 	mtc1	v0,$f0
800041a4:	00000000 	nop
800041a8:	46800020 	cvt.s.w	$f0,$f0
800041ac:	46020000 	add.s	$f0,$f0,$f2
800041b0:	46160000 	add.s	$f0,$f0,$f22
800041b4:	4600008d 	trunc.w.s	$f2,$f0
800041b8:	44101000 	mfc1	s0,$f2
800041bc:	30c20020 	andi	v0,a2,0x20
800041c0:	10400005 	beqz	v0,800041d8 <spX2Draw+0x8d0>
800041c4:	020e8021 	addu	s0,s0,t6
800041c8:	92220030 	lbu	v0,48(s1)
800041cc:	38420001 	xori	v0,v0,0x1
800041d0:	0002102b 	sltu	v0,zero,v0
800041d4:	02028023 	subu	s0,s0,v0
800041d8:	96220014 	lhu	v0,20(s1)
800041dc:	00ed3821 	addu	a3,a3,t5
800041e0:	30420020 	andi	v0,v0,0x20
800041e4:	10400005 	beqz	v0,800041fc <spX2Draw+0x8f4>
800041e8:	00ad2821 	addu	a1,a1,t5
800041ec:	92220030 	lbu	v0,48(s1)
800041f0:	38420001 	xori	v0,v0,0x1
800041f4:	0002102b 	sltu	v0,zero,v0
800041f8:	00a22823 	subu	a1,a1,v0
800041fc:	8ea20000 	lw	v0,0(s5)
80004200:	10400015 	beqz	v0,80004258 <spX2Draw+0x950>
80004204:	03c03021 	move	a2,s8
80004208:	afa4001c 	sw	a0,28(sp)
8000420c:	27a40030 	addiu	a0,sp,48
80004210:	afa50014 	sw	a1,20(sp)
80004214:	02202821 	move	a1,s1
80004218:	afb60010 	sw	s6,16(sp)
8000421c:	afb00018 	sw	s0,24(sp)
80004220:	afb20020 	sw	s2,32(sp)
80004224:	afa90024 	sw	t1,36(sp)
80004228:	afa80028 	sw	t0,40(sp)
8000422c:	afa80038 	sw	t0,56(sp)
80004230:	afa9003c 	sw	t1,60(sp)
80004234:	afad0040 	sw	t5,64(sp)
80004238:	afae0044 	sw	t6,68(sp)
8000423c:	0c00089e 	jal	80002278 <drawbitmap>
80004240:	afaf0048 	sw	t7,72(sp)
80004244:	8faf0048 	lw	t7,72(sp)
80004248:	8fae0044 	lw	t6,68(sp)
8000424c:	8fad0040 	lw	t5,64(sp)
80004250:	8fa9003c 	lw	t1,60(sp)
80004254:	8fa80038 	lw	t0,56(sp)
80004258:	26f70001 	addiu	s7,s7,1
8000425c:	26b50010 	addiu	s5,s5,16
80004260:	87c40000 	lh	a0,0(s8)
80004264:	27de0010 	addiu	s8,s8,16
80004268:	86230010 	lh	v1,16(s1)
8000426c:	86220028 	lh	v0,40(s1)
80004270:	02649821 	addu	s3,s3,a0
80004274:	02e2102a 	slt	v0,s7,v0
80004278:	1440ff48 	bnez	v0,80003f9c <spX2Draw+0x694>
8000427c:	01a36821 	addu	t5,t5,v1
80004280:	96220014 	lhu	v0,20(s1)
80004284:	30420020 	andi	v0,v0,0x20
80004288:	10400007 	beqz	v0,800042a8 <spX2Draw+0x9a0>
8000428c:	3c04e300 	lui	a0,0xe300
80004290:	8fa20030 	lw	v0,48(sp)
80004294:	34840a01 	ori	a0,a0,0xa01
80004298:	24430008 	addiu	v1,v0,8
8000429c:	afa30030 	sw	v1,48(sp)
800042a0:	ac440000 	sw	a0,0(v0)
800042a4:	ac400004 	sw	zero,4(v0)
800042a8:	92230030 	lbu	v1,48(s1)
800042ac:	24020001 	li	v0,1
800042b0:	14620093 	bne	v1,v0,80004500 <spX2Draw+0xbf8>
800042b4:	24020002 	li	v0,2
800042b8:	3c04e300 	lui	a0,0xe300
800042bc:	34840a01 	ori	a0,a0,0xa01
800042c0:	3c05e300 	lui	a1,0xe300
800042c4:	34a51201 	ori	a1,a1,0x1201
800042c8:	8fa30030 	lw	v1,48(sp)
800042cc:	3c06e300 	lui	a2,0xe300
800042d0:	34c61402 	ori	a2,a2,0x1402
800042d4:	24620008 	addiu	v0,v1,8
800042d8:	afa20030 	sw	v0,48(sp)
800042dc:	24620010 	addiu	v0,v1,16
800042e0:	ac640000 	sw	a0,0(v1)
800042e4:	ac600004 	sw	zero,4(v1)
800042e8:	afa20030 	sw	v0,48(sp)
800042ec:	24022000 	li	v0,8192
800042f0:	ac62000c 	sw	v0,12(v1)
800042f4:	24620018 	addiu	v0,v1,24
800042f8:	ac650008 	sw	a1,8(v1)
800042fc:	afa20030 	sw	v0,48(sp)
80004300:	24020c00 	li	v0,3072
80004304:	ac660010 	sw	a2,16(v1)
80004308:	0800113e 	j	800044f8 <spX2Draw+0xbf0>
8000430c:	ac620014 	sw	v0,20(v1)
80004310:	86220004 	lh	v0,4(s1)
80004314:	44820000 	mtc1	v0,$f0
80004318:	00000000 	nop
8000431c:	46800020 	cvt.s.w	$f0,$f0
80004320:	46180002 	mul.s	$f0,$f0,$f24
80004324:	86220006 	lh	v0,6(s1)
80004328:	86330000 	lh	s3,0(s1)
8000432c:	44822000 	mtc1	v0,$f4
80004330:	00000000 	nop
80004334:	46802120 	cvt.s.w	$f4,$f4
80004338:	46142102 	mul.s	$f4,$f4,$f20
8000433c:	86340002 	lh	s4,2(s1)
80004340:	44931000 	mtc1	s3,$f2
80004344:	00000000 	nop
80004348:	468010a0 	cvt.s.w	$f2,$f2
8000434c:	46001080 	add.s	$f2,$f2,$f0
80004350:	44940000 	mtc1	s4,$f0
80004354:	00000000 	nop
80004358:	46800020 	cvt.s.w	$f0,$f0
8000435c:	46040000 	add.s	$f0,$f0,$f4
80004360:	3c013f80 	lui	at,0x3f80
80004364:	44812000 	mtc1	at,$f4
80004368:	00000000 	nop
8000436c:	46041081 	sub.s	$f2,$f2,$f4
80004370:	46040001 	sub.s	$f0,$f0,$f4
80004374:	3c058010 	lui	a1,0x8010
80004378:	8ca5d090 	lw	a1,-12144(a1)
8000437c:	4600110d 	trunc.w.s	$f4,$f2
80004380:	440c2000 	mfc1	t4,$f4
80004384:	4600008d 	trunc.w.s	$f2,$f0
80004388:	440b1000 	mfc1	t3,$f2
8000438c:	0265102a 	slt	v0,s3,a1
80004390:	10400059 	beqz	v0,800044f8 <spX2Draw+0xbf0>
80004394:	00000000 	nop
80004398:	3c068010 	lui	a2,0x8010
8000439c:	8cc6d094 	lw	a2,-12140(a2)
800043a0:	0286102a 	slt	v0,s4,a2
800043a4:	10400054 	beqz	v0,800044f8 <spX2Draw+0xbf0>
800043a8:	00000000 	nop
800043ac:	3c038010 	lui	v1,0x8010
800043b0:	8c63d098 	lw	v1,-12136(v1)
800043b4:	0183102a 	slt	v0,t4,v1
800043b8:	1440004f 	bnez	v0,800044f8 <spX2Draw+0xbf0>
800043bc:	00000000 	nop
800043c0:	3c048010 	lui	a0,0x8010
800043c4:	8c84d09c 	lw	a0,-12132(a0)
800043c8:	0164102a 	slt	v0,t3,a0
800043cc:	1440004a 	bnez	v0,800044f8 <spX2Draw+0xbf0>
800043d0:	0263102a 	slt	v0,s3,v1
800043d4:	54400001 	bnezl	v0,800043dc <spX2Draw+0xad4>
800043d8:	00609821 	move	s3,v1
800043dc:	0185102a 	slt	v0,t4,a1
800043e0:	50400001 	beqzl	v0,800043e8 <spX2Draw+0xae0>
800043e4:	24acffff 	addiu	t4,a1,-1
800043e8:	0284102a 	slt	v0,s4,a0
800043ec:	54400001 	bnezl	v0,800043f4 <spX2Draw+0xaec>
800043f0:	0080a021 	move	s4,a0
800043f4:	0166102a 	slt	v0,t3,a2
800043f8:	50400001 	beqzl	v0,80004400 <spX2Draw+0xaf8>
800043fc:	24cbffff 	addiu	t3,a2,-1
80004400:	3c098000 	lui	t1,0x8000
80004404:	35298000 	ori	t1,t1,0x8000
80004408:	3c08e300 	lui	t0,0xe300
8000440c:	35080a01 	ori	t0,t0,0xa01
80004410:	3c0ad700 	lui	t2,0xd700
80004414:	92230018 	lbu	v1,24(s1)
80004418:	92240019 	lbu	a0,25(s1)
8000441c:	9226001a 	lbu	a2,26(s1)
80004420:	8fa50030 	lw	a1,48(sp)
80004424:	9227001b 	lbu	a3,27(s1)
80004428:	354a0002 	ori	t2,t2,0x2
8000442c:	24a20008 	addiu	v0,a1,8
80004430:	afa20030 	sw	v0,48(sp)
80004434:	3c02d700 	lui	v0,0xd700
80004438:	aca20000 	sw	v0,0(a1)
8000443c:	24a20010 	addiu	v0,a1,16
80004440:	aca90004 	sw	t1,4(a1)
80004444:	afa20030 	sw	v0,48(sp)
80004448:	3c020030 	lui	v0,0x30
8000444c:	aca2000c 	sw	v0,12(a1)
80004450:	24a20018 	addiu	v0,a1,24
80004454:	aca80008 	sw	t0,8(a1)
80004458:	afa20030 	sw	v0,48(sp)
8000445c:	3c02f700 	lui	v0,0xf700
80004460:	00031a00 	sll	v1,v1,0x8
80004464:	3063f800 	andi	v1,v1,0xf800
80004468:	000420c0 	sll	a0,a0,0x3
8000446c:	308407c0 	andi	a0,a0,0x7c0
80004470:	00641825 	or	v1,v1,a0
80004474:	00063082 	srl	a2,a2,0x2
80004478:	30c6003e 	andi	a2,a2,0x3e
8000447c:	00661825 	or	v1,v1,a2
80004480:	000739c2 	srl	a3,a3,0x7
80004484:	00671825 	or	v1,v1,a3
80004488:	aca20010 	sw	v0,16(a1)
8000448c:	00031400 	sll	v0,v1,0x10
80004490:	00431025 	or	v0,v0,v1
80004494:	aca20014 	sw	v0,20(a1)
80004498:	24a20020 	addiu	v0,a1,32
8000449c:	318403ff 	andi	a0,t4,0x3ff
800044a0:	00042380 	sll	a0,a0,0xe
800044a4:	afa20030 	sw	v0,48(sp)
800044a8:	316203ff 	andi	v0,t3,0x3ff
800044ac:	00021080 	sll	v0,v0,0x2
800044b0:	3c03f600 	lui	v1,0xf600
800044b4:	00431025 	or	v0,v0,v1
800044b8:	00822025 	or	a0,a0,v0
800044bc:	326303ff 	andi	v1,s3,0x3ff
800044c0:	00031b80 	sll	v1,v1,0xe
800044c4:	328203ff 	andi	v0,s4,0x3ff
800044c8:	00021080 	sll	v0,v0,0x2
800044cc:	00621825 	or	v1,v1,v0
800044d0:	24a20028 	addiu	v0,a1,40
800044d4:	aca40018 	sw	a0,24(a1)
800044d8:	aca3001c 	sw	v1,28(a1)
800044dc:	afa20030 	sw	v0,48(sp)
800044e0:	24a20030 	addiu	v0,a1,48
800044e4:	aca80020 	sw	t0,32(a1)
800044e8:	aca00024 	sw	zero,36(a1)
800044ec:	afa20030 	sw	v0,48(sp)
800044f0:	acaa0028 	sw	t2,40(a1)
800044f4:	aca9002c 	sw	t1,44(a1)
800044f8:	92230030 	lbu	v1,48(s1)
800044fc:	24020002 	li	v0,2
80004500:	14620007 	bne	v1,v0,80004520 <spX2Draw+0xc18>
80004504:	3c04e300 	lui	a0,0xe300
80004508:	8fa20030 	lw	v0,48(sp)
8000450c:	34841001 	ori	a0,a0,0x1001
80004510:	24430008 	addiu	v1,v0,8
80004514:	afa30030 	sw	v1,48(sp)
80004518:	ac440000 	sw	a0,0(v0)
8000451c:	ac400004 	sw	zero,4(v0)
80004520:	8fa30030 	lw	v1,48(sp)
80004524:	01e01021 	move	v0,t7
80004528:	3c04df00 	lui	a0,0xdf00
8000452c:	24650008 	addiu	a1,v1,8
80004530:	afa50030 	sw	a1,48(sp)
80004534:	ac640000 	sw	a0,0(v1)
80004538:	ac600004 	sw	zero,4(v1)
8000453c:	ae25003c 	sw	a1,60(s1)
80004540:	8fbf0074 	lw	ra,116(sp)
80004544:	8fbe0070 	lw	s8,112(sp)
80004548:	8fb7006c 	lw	s7,108(sp)
8000454c:	8fb60068 	lw	s6,104(sp)
80004550:	8fb50064 	lw	s5,100(sp)
80004554:	8fb40060 	lw	s4,96(sp)
80004558:	8fb3005c 	lw	s3,92(sp)
8000455c:	8fb20058 	lw	s2,88(sp)
80004560:	8fb10054 	lw	s1,84(sp)
80004564:	8fb00050 	lw	s0,80(sp)
80004568:	d7b80088 	ldc1	$f24,136(sp)
8000456c:	d7b60080 	ldc1	$f22,128(sp)
80004570:	d7b40078 	ldc1	$f20,120(sp)
80004574:	03e00008 	jr	ra
80004578:	27bd0090 	addiu	sp,sp,144

8000457c <spX2Finish>:
8000457c:	00805021 	move	t2,a0
80004580:	8d490000 	lw	t1,0(t2)
80004584:	3c088000 	lui	t0,0x8000
80004588:	35088000 	ori	t0,t0,0x8000
8000458c:	3c07fcff 	lui	a3,0xfcff
80004590:	34e7ffff 	ori	a3,a3,0xffff
80004594:	3c06fffe 	lui	a2,0xfffe
80004598:	34c6793c 	ori	a2,a2,0x793c
8000459c:	3c038001 	lui	v1,0x8001
800045a0:	9463c034 	lhu	v1,-16332(v1)
800045a4:	3c02d700 	lui	v0,0xd700
800045a8:	01202021 	move	a0,t1
800045ac:	25290008 	addiu	t1,t1,8
800045b0:	01202821 	move	a1,t1
800045b4:	25290008 	addiu	t1,t1,8
800045b8:	30630001 	andi	v1,v1,0x1
800045bc:	ac820000 	sw	v0,0(a0)
800045c0:	ac880004 	sw	t0,4(a0)
800045c4:	aca70000 	sw	a3,0(a1)
800045c8:	10600009 	beqz	v1,800045f0 <spX2Finish+0x74>
800045cc:	aca60004 	sw	a2,4(a1)
800045d0:	01202021 	move	a0,t1
800045d4:	25290008 	addiu	t1,t1,8
800045d8:	3c03e200 	lui	v1,0xe200
800045dc:	3463001c 	ori	v1,v1,0x1c
800045e0:	3c020f0a 	lui	v0,0xf0a
800045e4:	34424000 	ori	v0,v0,0x4000
800045e8:	ac830000 	sw	v1,0(a0)
800045ec:	ac820004 	sw	v0,4(a0)
800045f0:	3c028001 	lui	v0,0x8001
800045f4:	9442c034 	lhu	v0,-16332(v0)
800045f8:	30420002 	andi	v0,v0,0x2
800045fc:	10400006 	beqz	v0,80004618 <spX2Finish+0x9c>
80004600:	01201821 	move	v1,t1
80004604:	25290008 	addiu	t1,t1,8
80004608:	3c02e200 	lui	v0,0xe200
8000460c:	34421e01 	ori	v0,v0,0x1e01
80004610:	ac620000 	sw	v0,0(v1)
80004614:	ac600004 	sw	zero,4(v1)
80004618:	01201821 	move	v1,t1
8000461c:	25290008 	addiu	t1,t1,8
80004620:	3c02df00 	lui	v0,0xdf00
80004624:	ac620000 	sw	v0,0(v1)
80004628:	ac600004 	sw	zero,4(v1)
8000462c:	03e00008 	jr	ra
80004630:	ad490000 	sw	t1,0(t2)
	...

80004640 <spScale>:
80004640:	3c013f80 	lui	at,0x3f80
80004644:	44812000 	mtc1	at,$f4
80004648:	27bdffe8 	addiu	sp,sp,-24
8000464c:	44850000 	mtc1	a1,$f0
80004650:	44861000 	mtc1	a2,$f2
80004654:	24020001 	li	v0,1
80004658:	afbf0010 	sw	ra,16(sp)
8000465c:	46040032 	c.eq.s	$f0,$f4
80004660:	e4800008 	swc1	$f0,8(a0)
80004664:	00000000 	nop
80004668:	45010002 	bc1t	80004674 <spScale+0x34>
8000466c:	e482000c 	swc1	$f2,12(a0)
80004670:	00001021 	move	v0,zero
80004674:	46041032 	c.eq.s	$f2,$f4
	...
80004680:	45010002 	bc1t	8000468c <spScale+0x4c>
80004684:	24030001 	li	v1,1
80004688:	00001821 	move	v1,zero
8000468c:	00431024 	and	v0,v0,v1
80004690:	10400005 	beqz	v0,800046a8 <spScale+0x68>
80004694:	00000000 	nop
80004698:	0c00087c 	jal	800021f0 <spClearAttribute>
8000469c:	24050010 	li	a1,16
800046a0:	080011ac 	j	800046b0 <spScale+0x70>
800046a4:	00000000 	nop
800046a8:	0c00088c 	jal	80002230 <spSetAttribute>
800046ac:	24050010 	li	a1,16
800046b0:	8fbf0010 	lw	ra,16(sp)
800046b4:	03e00008 	jr	ra
800046b8:	27bd0018 	addiu	sp,sp,24
800046bc:	00000000 	nop

800046c0 <osCreateThread>:
800046c0:	27bdffe8 	addiu	sp,sp,-24
800046c4:	afb00010 	sw	s0,16(sp)
800046c8:	00808021 	move	s0,a0
800046cc:	00e04821 	move	t1,a3
800046d0:	000747c3 	sra	t0,a3,0x1f
800046d4:	3c048000 	lui	a0,0x8000
800046d8:	24846110 	addiu	a0,a0,24848
800046dc:	00801821 	move	v1,a0
800046e0:	000417c3 	sra	v0,a0,0x1f
800046e4:	8fa70028 	lw	a3,40(sp)
800046e8:	3c040100 	lui	a0,0x100
800046ec:	34840800 	ori	a0,a0,0x800
800046f0:	afbf0014 	sw	ra,20(sp)
800046f4:	ae020100 	sw	v0,256(s0)
800046f8:	ae030104 	sw	v1,260(s0)
800046fc:	3402ff03 	li	v0,0xff03
80004700:	ae020118 	sw	v0,280(s0)
80004704:	2402003f 	li	v0,63
80004708:	ae020128 	sw	v0,296(s0)
8000470c:	24020001 	li	v0,1
80004710:	ae050014 	sw	a1,20(s0)
80004714:	ae000000 	sw	zero,0(s0)
80004718:	ae000008 	sw	zero,8(s0)
8000471c:	ae06011c 	sw	a2,284(s0)
80004720:	ae080038 	sw	t0,56(s0)
80004724:	ae09003c 	sw	t1,60(s0)
80004728:	ae04012c 	sw	a0,300(s0)
8000472c:	ae000018 	sw	zero,24(s0)
80004730:	a6020010 	sh	v0,16(s0)
80004734:	a6000012 	sh	zero,18(s0)
80004738:	8fa2002c 	lw	v0,44(sp)
8000473c:	00e05821 	move	t3,a3
80004740:	000757c3 	sra	t2,a3,0x1f
80004744:	ae020004 	sw	v0,4(s0)
80004748:	256bfff0 	addiu	t3,t3,-16
8000474c:	2d62fff0 	sltiu	v0,t3,-16
80004750:	254affff 	addiu	t2,t2,-1
80004754:	01425021 	addu	t2,t2,v0
80004758:	ae0a00f0 	sw	t2,240(s0)
8000475c:	0c001848 	jal	80006120 <__osDisableInt>
80004760:	ae0b00f4 	sw	t3,244(s0)
80004764:	3c038001 	lui	v1,0x8001
80004768:	8c63c04c 	lw	v1,-16308(v1)
8000476c:	00402021 	move	a0,v0
80004770:	3c018001 	lui	at,0x8001
80004774:	ac30c04c 	sw	s0,-16308(at)
80004778:	0c001864 	jal	80006190 <__osRestoreInt>
8000477c:	ae03000c 	sw	v1,12(s0)
80004780:	8fbf0014 	lw	ra,20(sp)
80004784:	8fb00010 	lw	s0,16(sp)
80004788:	03e00008 	jr	ra
8000478c:	27bd0018 	addiu	sp,sp,24

80004790 <osGetThreadPri>:
80004790:	14800003 	bnez	a0,800047a0 <osGetThreadPri+0x10>
80004794:	00000000 	nop
80004798:	3c048001 	lui	a0,0x8001
8000479c:	8c84c050 	lw	a0,-16304(a0)
800047a0:	03e00008 	jr	ra
800047a4:	8c820004 	lw	v0,4(a0)
	...

800047b0 <osSetThreadPri>:
800047b0:	27bdffe0 	addiu	sp,sp,-32
800047b4:	afb00010 	sw	s0,16(sp)
800047b8:	00808021 	move	s0,a0
800047bc:	afb10014 	sw	s1,20(sp)
800047c0:	00a08821 	move	s1,a1
800047c4:	afbf001c 	sw	ra,28(sp)
800047c8:	0c001848 	jal	80006120 <__osDisableInt>
800047cc:	afb20018 	sw	s2,24(sp)
800047d0:	16000003 	bnez	s0,800047e0 <osSetThreadPri+0x30>
800047d4:	00409021 	move	s2,v0
800047d8:	3c108001 	lui	s0,0x8001
800047dc:	8e10c050 	lw	s0,-16304(s0)
800047e0:	8e020004 	lw	v0,4(s0)
800047e4:	1051001c 	beq	v0,s1,80004858 <osSetThreadPri+0xa8>
800047e8:	00000000 	nop
800047ec:	3c028001 	lui	v0,0x8001
800047f0:	8c42c050 	lw	v0,-16304(v0)
800047f4:	1202000b 	beq	s0,v0,80004824 <osSetThreadPri+0x74>
800047f8:	ae110004 	sw	s1,4(s0)
800047fc:	96030010 	lhu	v1,16(s0)
80004800:	24020001 	li	v0,1
80004804:	10620007 	beq	v1,v0,80004824 <osSetThreadPri+0x74>
80004808:	00000000 	nop
8000480c:	8e040008 	lw	a0,8(s0)
80004810:	0c001268 	jal	800049a0 <__osDequeueThread>
80004814:	02002821 	move	a1,s0
80004818:	8e040008 	lw	a0,8(s0)
8000481c:	0c0017cd 	jal	80005f34 <__osEnqueueThread>
80004820:	02002821 	move	a1,s0
80004824:	3c048001 	lui	a0,0x8001
80004828:	8c84c050 	lw	a0,-16304(a0)
8000482c:	3c028001 	lui	v0,0x8001
80004830:	8c42c048 	lw	v0,-16312(v0)
80004834:	8c830004 	lw	v1,4(a0)
80004838:	8c420004 	lw	v0,4(v0)
8000483c:	0062182a 	slt	v1,v1,v0
80004840:	10600005 	beqz	v1,80004858 <osSetThreadPri+0xa8>
80004844:	24020002 	li	v0,2
80004848:	a4820010 	sh	v0,16(a0)
8000484c:	3c048001 	lui	a0,0x8001
80004850:	0c00178b 	jal	80005e2c <__osEnqueueAndYield>
80004854:	2484c048 	addiu	a0,a0,-16312
80004858:	0c001864 	jal	80006190 <__osRestoreInt>
8000485c:	02402021 	move	a0,s2
80004860:	8fbf001c 	lw	ra,28(sp)
80004864:	8fb20018 	lw	s2,24(sp)
80004868:	8fb10014 	lw	s1,20(sp)
8000486c:	8fb00010 	lw	s0,16(sp)
80004870:	03e00008 	jr	ra
80004874:	27bd0020 	addiu	sp,sp,32
	...

80004880 <osStartThread>:
80004880:	27bdffe0 	addiu	sp,sp,-32
80004884:	afb00010 	sw	s0,16(sp)
80004888:	00808021 	move	s0,a0
8000488c:	afbf001c 	sw	ra,28(sp)
80004890:	afb20018 	sw	s2,24(sp)
80004894:	0c001848 	jal	80006120 <__osDisableInt>
80004898:	afb10014 	sw	s1,20(sp)
8000489c:	96030010 	lhu	v1,16(s0)
800048a0:	00409021 	move	s2,v0
800048a4:	24020001 	li	v0,1
800048a8:	10620008 	beq	v1,v0,800048cc <osStartThread+0x4c>
800048ac:	24020008 	li	v0,8
800048b0:	1462001e 	bne	v1,v0,8000492c <osStartThread+0xac>
800048b4:	24020002 	li	v0,2
800048b8:	a6020010 	sh	v0,16(s0)
800048bc:	3c048001 	lui	a0,0x8001
800048c0:	2484c048 	addiu	a0,a0,-16312
800048c4:	08001249 	j	80004924 <osStartThread+0xa4>
800048c8:	02002821 	move	a1,s0
800048cc:	8e020008 	lw	v0,8(s0)
800048d0:	50400006 	beqzl	v0,800048ec <osStartThread+0x6c>
800048d4:	24020002 	li	v0,2
800048d8:	3c118001 	lui	s1,0x8001
800048dc:	2631c048 	addiu	s1,s1,-16312
800048e0:	14510007 	bne	v0,s1,80004900 <osStartThread+0x80>
800048e4:	02002821 	move	a1,s0
800048e8:	24020002 	li	v0,2
800048ec:	a6020010 	sh	v0,16(s0)
800048f0:	3c048001 	lui	a0,0x8001
800048f4:	2484c048 	addiu	a0,a0,-16312
800048f8:	08001249 	j	80004924 <osStartThread+0xa4>
800048fc:	02002821 	move	a1,s0
80004900:	8e040008 	lw	a0,8(s0)
80004904:	24020008 	li	v0,8
80004908:	0c0017cd 	jal	80005f34 <__osEnqueueThread>
8000490c:	a6020010 	sh	v0,16(s0)
80004910:	8e040008 	lw	a0,8(s0)
80004914:	0c0017df 	jal	80005f7c <__osPopThread>
80004918:	00000000 	nop
8000491c:	02202021 	move	a0,s1
80004920:	00402821 	move	a1,v0
80004924:	0c0017cd 	jal	80005f34 <__osEnqueueThread>
80004928:	00000000 	nop
8000492c:	3c048001 	lui	a0,0x8001
80004930:	8c84c050 	lw	a0,-16304(a0)
80004934:	14800005 	bnez	a0,8000494c <osStartThread+0xcc>
80004938:	00000000 	nop
8000493c:	0c0017e5 	jal	80005f94 <__osDispatchThread>
80004940:	00000000 	nop
80004944:	0800125e 	j	80004978 <osStartThread+0xf8>
80004948:	00000000 	nop
8000494c:	3c028001 	lui	v0,0x8001
80004950:	8c42c048 	lw	v0,-16312(v0)
80004954:	8c830004 	lw	v1,4(a0)
80004958:	8c420004 	lw	v0,4(v0)
8000495c:	0062182a 	slt	v1,v1,v0
80004960:	10600005 	beqz	v1,80004978 <osStartThread+0xf8>
80004964:	24020002 	li	v0,2
80004968:	a4820010 	sh	v0,16(a0)
8000496c:	3c048001 	lui	a0,0x8001
80004970:	0c00178b 	jal	80005e2c <__osEnqueueAndYield>
80004974:	2484c048 	addiu	a0,a0,-16312
80004978:	0c001864 	jal	80006190 <__osRestoreInt>
8000497c:	02402021 	move	a0,s2
80004980:	8fbf001c 	lw	ra,28(sp)
80004984:	8fb20018 	lw	s2,24(sp)
80004988:	8fb10014 	lw	s1,20(sp)
8000498c:	8fb00010 	lw	s0,16(sp)
80004990:	03e00008 	jr	ra
80004994:	27bd0020 	addiu	sp,sp,32
	...

800049a0 <__osDequeueThread>:
800049a0:	8c820000 	lw	v0,0(a0)
800049a4:	10400009 	beqz	v0,800049cc <__osDequeueThread+0x2c>
800049a8:	00000000 	nop
800049ac:	54450004 	bnel	v0,a1,800049c0 <__osDequeueThread+0x20>
800049b0:	00402021 	move	a0,v0
800049b4:	8c420000 	lw	v0,0(v0)
800049b8:	08001273 	j	800049cc <__osDequeueThread+0x2c>
800049bc:	ac820000 	sw	v0,0(a0)
800049c0:	8c420000 	lw	v0,0(v0)
800049c4:	1440fff9 	bnez	v0,800049ac <__osDequeueThread+0xc>
800049c8:	00000000 	nop
800049cc:	03e00008 	jr	ra
800049d0:	00000000 	nop
	...

800049e0 <osYieldThread>:
800049e0:	27bdffe8 	addiu	sp,sp,-24
800049e4:	afbf0014 	sw	ra,20(sp)
800049e8:	0c001848 	jal	80006120 <__osDisableInt>
800049ec:	afb00010 	sw	s0,16(sp)
800049f0:	3c038001 	lui	v1,0x8001
800049f4:	8c63c050 	lw	v1,-16304(v1)
800049f8:	3c048001 	lui	a0,0x8001
800049fc:	2484c048 	addiu	a0,a0,-16312
80004a00:	24050002 	li	a1,2
80004a04:	00408021 	move	s0,v0
80004a08:	0c00178b 	jal	80005e2c <__osEnqueueAndYield>
80004a0c:	a4650010 	sh	a1,16(v1)
80004a10:	0c001864 	jal	80006190 <__osRestoreInt>
80004a14:	02002021 	move	a0,s0
80004a18:	8fbf0014 	lw	ra,20(sp)
80004a1c:	8fb00010 	lw	s0,16(sp)
80004a20:	03e00008 	jr	ra
80004a24:	27bd0018 	addiu	sp,sp,24
	...

80004a30 <__osProbeTLB>:
80004a30:	40085000 310900ff 2401e000 00815024     @.P.1...$.....P$
80004a40:	012a4825 40895000 00000000 00000000     .*H%@.P.........
80004a50:	00000000 42000008 00000000 00000000     ....B...........
80004a60:	400b0000 3c018000 01615824 1560001a     @...<....aX$.`..
80004a70:	00000000 42000001 00000000 00000000     ....B...........
80004a80:	00000000 400b2800 216b2000 000b5842     ....@.(.!k ...XB
80004a90:	01646024 15800004 216bffff 40021000     .d`$....!k..@...
80004aa0:	10000002 00000000 40021800 304d0002     ........@...0M..
80004ab0:	11a00009 00000000 3c013fff 3421ffc0     ........<.?.4!..
80004ac0:	00411024 00021180 008b6824 004d1020     .A.$......h$.M. 
80004ad0:	10000002 00000000 2402ffff 40885000     ........$...@.P.
80004ae0:	03e00008 00000000 00000000 00000000     ................

80004af0 <osCreateViManager>:
80004af0:	27bdffd0 	addiu	sp,sp,-48
80004af4:	afb40028 	sw	s4,40(sp)
80004af8:	3c148001 	lui	s4,0x8001
80004afc:	2694c060 	addiu	s4,s4,-16288
80004b00:	afbf002c 	sw	ra,44(sp)
80004b04:	afb30024 	sw	s3,36(sp)
80004b08:	afb20020 	sw	s2,32(sp)
80004b0c:	afb1001c 	sw	s1,28(sp)
80004b10:	afb00018 	sw	s0,24(sp)
80004b14:	8e820000 	lw	v0,0(s4)
80004b18:	14400055 	bnez	v0,80004c70 <osCreateViManager+0x180>
80004b1c:	00808821 	move	s1,a0
80004b20:	0c001df8 	jal	800077e0 <__osTimerServicesInit>
80004b24:	2412ffff 	li	s2,-1
80004b28:	3c138010 	lui	s3,0x8010
80004b2c:	2673e260 	addiu	s3,s3,-7584
80004b30:	02602021 	move	a0,s3
80004b34:	3c058010 	lui	a1,0x8010
80004b38:	24a5e278 	addiu	a1,a1,-7560
80004b3c:	3c018001 	lui	at,0x8001
80004b40:	ac20c07c 	sw	zero,-16260(at)
80004b44:	0c00071c 	jal	80001c70 <osCreateMesgQueue>
80004b48:	24060005 	li	a2,5
80004b4c:	24040007 	li	a0,7
80004b50:	3c068010 	lui	a2,0x8010
80004b54:	24c6e290 	addiu	a2,a2,-7536
80004b58:	2402000d 	li	v0,13
80004b5c:	3c108010 	lui	s0,0x8010
80004b60:	2610e2a8 	addiu	s0,s0,-7512
80004b64:	a4c20000 	sh	v0,0(a2)
80004b68:	2402000e 	li	v0,14
80004b6c:	3c018010 	lui	at,0x8010
80004b70:	a020e292 	sb	zero,-7534(at)
80004b74:	3c018010 	lui	at,0x8010
80004b78:	ac20e294 	sw	zero,-7532(at)
80004b7c:	a6020000 	sh	v0,0(s0)
80004b80:	3c018010 	lui	at,0x8010
80004b84:	a020e2aa 	sb	zero,-7510(at)
80004b88:	3c018010 	lui	at,0x8010
80004b8c:	ac20e2ac 	sw	zero,-7508(at)
80004b90:	0c0007c0 	jal	80001f00 <osSetEventMesg>
80004b94:	02602821 	move	a1,s3
80004b98:	24040003 	li	a0,3
80004b9c:	02602821 	move	a1,s3
80004ba0:	0c0007c0 	jal	80001f00 <osSetEventMesg>
80004ba4:	02003021 	move	a2,s0
80004ba8:	0c0011e4 	jal	80004790 <osGetThreadPri>
80004bac:	00002021 	move	a0,zero
80004bb0:	00401821 	move	v1,v0
80004bb4:	0071102a 	slt	v0,v1,s1
80004bb8:	10400005 	beqz	v0,80004bd0 <osCreateViManager+0xe0>
80004bbc:	00000000 	nop
80004bc0:	00609021 	move	s2,v1
80004bc4:	00002021 	move	a0,zero
80004bc8:	0c0011ec 	jal	800047b0 <osSetThreadPri>
80004bcc:	02202821 	move	a1,s1
80004bd0:	0c001848 	jal	80006120 <__osDisableInt>
80004bd4:	00000000 	nop
80004bd8:	3c108010 	lui	s0,0x8010
80004bdc:	2610d0a8 	addiu	s0,s0,-12120
80004be0:	02002021 	move	a0,s0
80004be4:	00002821 	move	a1,zero
80004be8:	3c068000 	lui	a2,0x8000
80004bec:	24c64c90 	addiu	a2,a2,19600
80004bf0:	24030001 	li	v1,1
80004bf4:	ae830000 	sw	v1,0(s4)
80004bf8:	3c038010 	lui	v1,0x8010
80004bfc:	2463e260 	addiu	v1,v1,-7584
80004c00:	afb10014 	sw	s1,20(sp)
80004c04:	00408821 	move	s1,v0
80004c08:	02803821 	move	a3,s4
80004c0c:	3c018001 	lui	at,0x8001
80004c10:	ac30c064 	sw	s0,-16284(at)
80004c14:	3c018001 	lui	at,0x8001
80004c18:	ac33c068 	sw	s3,-16280(at)
80004c1c:	3c018001 	lui	at,0x8001
80004c20:	ac33c06c 	sw	s3,-16276(at)
80004c24:	3c018001 	lui	at,0x8001
80004c28:	ac20c070 	sw	zero,-16272(at)
80004c2c:	3c018001 	lui	at,0x8001
80004c30:	ac20c074 	sw	zero,-16268(at)
80004c34:	3c018001 	lui	at,0x8001
80004c38:	ac20c078 	sw	zero,-16264(at)
80004c3c:	0c0011b0 	jal	800046c0 <osCreateThread>
80004c40:	afa30010 	sw	v1,16(sp)
80004c44:	0c001eec 	jal	80007bb0 <__osViInit>
80004c48:	00000000 	nop
80004c4c:	0c001220 	jal	80004880 <osStartThread>
80004c50:	02002021 	move	a0,s0
80004c54:	0c001864 	jal	80006190 <__osRestoreInt>
80004c58:	02202021 	move	a0,s1
80004c5c:	2402ffff 	li	v0,-1
80004c60:	12420003 	beq	s2,v0,80004c70 <osCreateViManager+0x180>
80004c64:	00002021 	move	a0,zero
80004c68:	0c0011ec 	jal	800047b0 <osSetThreadPri>
80004c6c:	02402821 	move	a1,s2
80004c70:	8fbf002c 	lw	ra,44(sp)
80004c74:	8fb40028 	lw	s4,40(sp)
80004c78:	8fb30024 	lw	s3,36(sp)
80004c7c:	8fb20020 	lw	s2,32(sp)
80004c80:	8fb1001c 	lw	s1,28(sp)
80004c84:	8fb00018 	lw	s0,24(sp)
80004c88:	03e00008 	jr	ra
80004c8c:	27bd0030 	addiu	sp,sp,48

80004c90 <viMgrMain>:
80004c90:	27bdffd0 	addiu	sp,sp,-48
80004c94:	afb00018 	sw	s0,24(sp)
80004c98:	00808021 	move	s0,a0
80004c9c:	afbf002c 	sw	ra,44(sp)
80004ca0:	afb40028 	sw	s4,40(sp)
80004ca4:	afb30024 	sw	s3,36(sp)
80004ca8:	afb20020 	sw	s2,32(sp)
80004cac:	afb1001c 	sw	s1,28(sp)
80004cb0:	0c001f30 	jal	80007cc0 <__osViGetCurrentContext>
80004cb4:	afa00010 	sw	zero,16(sp)
80004cb8:	94420002 	lhu	v0,2(v0)
80004cbc:	3c018010 	lui	at,0x8010
80004cc0:	a422d0a0 	sh	v0,-12128(at)
80004cc4:	14400004 	bnez	v0,80004cd8 <viMgrMain+0x48>
80004cc8:	00008821 	move	s1,zero
80004ccc:	24020001 	li	v0,1
80004cd0:	3c018010 	lui	at,0x8010
80004cd4:	a422d0a0 	sh	v0,-12128(at)
80004cd8:	02009021 	move	s2,s0
80004cdc:	2414000d 	li	s4,13
80004ce0:	2413000e 	li	s3,14
80004ce4:	8e44000c 	lw	a0,12(s2)
80004ce8:	27a50010 	addiu	a1,sp,16
80004cec:	0c000728 	jal	80001ca0 <osRecvMesg>
80004cf0:	24060001 	li	a2,1
80004cf4:	8fa20010 	lw	v0,16(sp)
80004cf8:	94420000 	lhu	v0,0(v0)
80004cfc:	10540005 	beq	v0,s4,80004d14 <viMgrMain+0x84>
80004d00:	00000000 	nop
80004d04:	1053003c 	beq	v0,s3,80004df8 <viMgrMain+0x168>
80004d08:	00000000 	nop
80004d0c:	08001339 	j	80004ce4 <viMgrMain+0x54>
80004d10:	00000000 	nop
80004d14:	0c001428 	jal	800050a0 <__osViSwapContext>
80004d18:	00000000 	nop
80004d1c:	3c028010 	lui	v0,0x8010
80004d20:	9442d0a0 	lhu	v0,-12128(v0)
80004d24:	2442ffff 	addiu	v0,v0,-1
80004d28:	3c018010 	lui	at,0x8010
80004d2c:	a422d0a0 	sh	v0,-12128(at)
80004d30:	3042ffff 	andi	v0,v0,0xffff
80004d34:	1440000c 	bnez	v0,80004d68 <viMgrMain+0xd8>
80004d38:	00000000 	nop
80004d3c:	0c001f30 	jal	80007cc0 <__osViGetCurrentContext>
80004d40:	00000000 	nop
80004d44:	8c440010 	lw	a0,16(v0)
80004d48:	10800004 	beqz	a0,80004d5c <viMgrMain+0xcc>
80004d4c:	00408021 	move	s0,v0
80004d50:	8e050014 	lw	a1,20(s0)
80004d54:	0c000774 	jal	80001dd0 <osSendMesg>
80004d58:	00003021 	move	a2,zero
80004d5c:	96020002 	lhu	v0,2(s0)
80004d60:	3c018010 	lui	at,0x8010
80004d64:	a422d0a0 	sh	v0,-12128(at)
80004d68:	3c028001 	lui	v0,0x8001
80004d6c:	8c42dc94 	lw	v0,-9068(v0)
80004d70:	24420001 	addiu	v0,v0,1
80004d74:	3c018001 	lui	at,0x8001
80004d78:	1220000a 	beqz	s1,80004da4 <viMgrMain+0x114>
80004d7c:	ac22dc94 	sw	v0,-9068(at)
80004d80:	0c001d48 	jal	80007520 <osGetCount>
80004d84:	00008821 	move	s1,zero
80004d88:	00408021 	move	s0,v0
80004d8c:	02001821 	move	v1,s0
80004d90:	00001021 	move	v0,zero
80004d94:	3c018001 	lui	at,0x8001
80004d98:	ac22dc98 	sw	v0,-9064(at)
80004d9c:	3c018001 	lui	at,0x8001
80004da0:	ac23dc9c 	sw	v1,-9060(at)
80004da4:	3c108001 	lui	s0,0x8001
80004da8:	0c001d48 	jal	80007520 <osGetCount>
80004dac:	8e10dc90 	lw	s0,-9072(s0)
80004db0:	3c018001 	lui	at,0x8001
80004db4:	ac22dc90 	sw	v0,-9072(at)
80004db8:	00508023 	subu	s0,v0,s0
80004dbc:	3c028001 	lui	v0,0x8001
80004dc0:	8c42dc98 	lw	v0,-9064(v0)
80004dc4:	3c038001 	lui	v1,0x8001
80004dc8:	8c63dc9c 	lw	v1,-9060(v1)
80004dcc:	02002821 	move	a1,s0
80004dd0:	00002021 	move	a0,zero
80004dd4:	00651821 	addu	v1,v1,a1
80004dd8:	0065302b 	sltu	a2,v1,a1
80004ddc:	00441021 	addu	v0,v0,a0
80004de0:	00461021 	addu	v0,v0,a2
80004de4:	3c018001 	lui	at,0x8001
80004de8:	ac22dc98 	sw	v0,-9064(at)
80004dec:	3c018001 	lui	at,0x8001
80004df0:	08001339 	j	80004ce4 <viMgrMain+0x54>
80004df4:	ac23dc9c 	sw	v1,-9060(at)
80004df8:	0c001e0d 	jal	80007834 <__osTimerInterrupt>
80004dfc:	00000000 	nop
80004e00:	08001339 	j	80004ce4 <viMgrMain+0x54>
80004e04:	00000000 	nop
80004e08:	8fbf002c 	lw	ra,44(sp)
80004e0c:	8fb40028 	lw	s4,40(sp)
80004e10:	8fb30024 	lw	s3,36(sp)
80004e14:	8fb20020 	lw	s2,32(sp)
80004e18:	8fb1001c 	lw	s1,28(sp)
80004e1c:	8fb00018 	lw	s0,24(sp)
80004e20:	03e00008 	jr	ra
80004e24:	27bd0030 	addiu	sp,sp,48
	...

80004e30 <osViSetEvent>:
80004e30:	27bdffe0 	addiu	sp,sp,-32
80004e34:	afb00010 	sw	s0,16(sp)
80004e38:	00808021 	move	s0,a0
80004e3c:	afb10014 	sw	s1,20(sp)
80004e40:	00a08821 	move	s1,a1
80004e44:	afb20018 	sw	s2,24(sp)
80004e48:	afbf001c 	sw	ra,28(sp)
80004e4c:	0c001848 	jal	80006120 <__osDisableInt>
80004e50:	00c09021 	move	s2,a2
80004e54:	3c038001 	lui	v1,0x8001
80004e58:	8c63d314 	lw	v1,-11500(v1)
80004e5c:	00402021 	move	a0,v0
80004e60:	ac700010 	sw	s0,16(v1)
80004e64:	ac710014 	sw	s1,20(v1)
80004e68:	0c001864 	jal	80006190 <__osRestoreInt>
80004e6c:	a4720002 	sh	s2,2(v1)
80004e70:	8fbf001c 	lw	ra,28(sp)
80004e74:	8fb20018 	lw	s2,24(sp)
80004e78:	8fb10014 	lw	s1,20(sp)
80004e7c:	8fb00010 	lw	s0,16(sp)
80004e80:	03e00008 	jr	ra
80004e84:	27bd0020 	addiu	sp,sp,32
	...

80004e90 <osViSetMode>:
80004e90:	27bdffe8 	addiu	sp,sp,-24
80004e94:	afb00010 	sw	s0,16(sp)
80004e98:	afbf0014 	sw	ra,20(sp)
80004e9c:	0c001848 	jal	80006120 <__osDisableInt>
80004ea0:	00808021 	move	s0,a0
80004ea4:	3c048001 	lui	a0,0x8001
80004ea8:	8c84d314 	lw	a0,-11500(a0)
80004eac:	ac900008 	sw	s0,8(a0)
80004eb0:	8c850008 	lw	a1,8(a0)
80004eb4:	24030001 	li	v1,1
80004eb8:	a4830000 	sh	v1,0(a0)
80004ebc:	8ca30004 	lw	v1,4(a1)
80004ec0:	ac83000c 	sw	v1,12(a0)
80004ec4:	0c001864 	jal	80006190 <__osRestoreInt>
80004ec8:	00402021 	move	a0,v0
80004ecc:	8fbf0014 	lw	ra,20(sp)
80004ed0:	8fb00010 	lw	s0,16(sp)
80004ed4:	03e00008 	jr	ra
80004ed8:	27bd0018 	addiu	sp,sp,24
80004edc:	00000000 	nop

80004ee0 <osViSetSpecialFeatures>:
80004ee0:	27bdffe8 	addiu	sp,sp,-24
80004ee4:	afb00010 	sw	s0,16(sp)
80004ee8:	afbf0014 	sw	ra,20(sp)
80004eec:	0c001848 	jal	80006120 <__osDisableInt>
80004ef0:	00808021 	move	s0,a0
80004ef4:	00403021 	move	a2,v0
80004ef8:	32020001 	andi	v0,s0,0x1
80004efc:	10400007 	beqz	v0,80004f1c <osViSetSpecialFeatures+0x3c>
80004f00:	32020002 	andi	v0,s0,0x2
80004f04:	3c038001 	lui	v1,0x8001
80004f08:	8c63d314 	lw	v1,-11500(v1)
80004f0c:	8c62000c 	lw	v0,12(v1)
80004f10:	34420008 	ori	v0,v0,0x8
80004f14:	ac62000c 	sw	v0,12(v1)
80004f18:	32020002 	andi	v0,s0,0x2
80004f1c:	10400006 	beqz	v0,80004f38 <osViSetSpecialFeatures+0x58>
80004f20:	2404fff7 	li	a0,-9
80004f24:	3c028001 	lui	v0,0x8001
80004f28:	8c42d314 	lw	v0,-11500(v0)
80004f2c:	8c43000c 	lw	v1,12(v0)
80004f30:	00641824 	and	v1,v1,a0
80004f34:	ac43000c 	sw	v1,12(v0)
80004f38:	32020004 	andi	v0,s0,0x4
80004f3c:	10400007 	beqz	v0,80004f5c <osViSetSpecialFeatures+0x7c>
80004f40:	32020008 	andi	v0,s0,0x8
80004f44:	3c038001 	lui	v1,0x8001
80004f48:	8c63d314 	lw	v1,-11500(v1)
80004f4c:	8c62000c 	lw	v0,12(v1)
80004f50:	34420004 	ori	v0,v0,0x4
80004f54:	ac62000c 	sw	v0,12(v1)
80004f58:	32020008 	andi	v0,s0,0x8
80004f5c:	10400006 	beqz	v0,80004f78 <osViSetSpecialFeatures+0x98>
80004f60:	2404fffb 	li	a0,-5
80004f64:	3c028001 	lui	v0,0x8001
80004f68:	8c42d314 	lw	v0,-11500(v0)
80004f6c:	8c43000c 	lw	v1,12(v0)
80004f70:	00641824 	and	v1,v1,a0
80004f74:	ac43000c 	sw	v1,12(v0)
80004f78:	32020010 	andi	v0,s0,0x10
80004f7c:	10400007 	beqz	v0,80004f9c <osViSetSpecialFeatures+0xbc>
80004f80:	32020020 	andi	v0,s0,0x20
80004f84:	3c038001 	lui	v1,0x8001
80004f88:	8c63d314 	lw	v1,-11500(v1)
80004f8c:	8c62000c 	lw	v0,12(v1)
80004f90:	34420010 	ori	v0,v0,0x10
80004f94:	ac62000c 	sw	v0,12(v1)
80004f98:	32020020 	andi	v0,s0,0x20
80004f9c:	10400006 	beqz	v0,80004fb8 <osViSetSpecialFeatures+0xd8>
80004fa0:	2404ffef 	li	a0,-17
80004fa4:	3c028001 	lui	v0,0x8001
80004fa8:	8c42d314 	lw	v0,-11500(v0)
80004fac:	8c43000c 	lw	v1,12(v0)
80004fb0:	00641824 	and	v1,v1,a0
80004fb4:	ac43000c 	sw	v1,12(v0)
80004fb8:	32020040 	andi	v0,s0,0x40
80004fbc:	10400008 	beqz	v0,80004fe0 <osViSetSpecialFeatures+0x100>
80004fc0:	3c030001 	lui	v1,0x1
80004fc4:	3c048001 	lui	a0,0x8001
80004fc8:	8c84d314 	lw	a0,-11500(a0)
80004fcc:	8c82000c 	lw	v0,12(a0)
80004fd0:	00431025 	or	v0,v0,v1
80004fd4:	2403fcff 	li	v1,-769
80004fd8:	00431024 	and	v0,v0,v1
80004fdc:	ac82000c 	sw	v0,12(a0)
80004fe0:	32020080 	andi	v0,s0,0x80
80004fe4:	1040000c 	beqz	v0,80005018 <osViSetSpecialFeatures+0x138>
80004fe8:	3c02fffe 	lui	v0,0xfffe
80004fec:	3c048001 	lui	a0,0x8001
80004ff0:	8c84d314 	lw	a0,-11500(a0)
80004ff4:	8c83000c 	lw	v1,12(a0)
80004ff8:	8c850008 	lw	a1,8(a0)
80004ffc:	3442ffff 	ori	v0,v0,0xffff
80005000:	00621824 	and	v1,v1,v0
80005004:	ac83000c 	sw	v1,12(a0)
80005008:	8ca20004 	lw	v0,4(a1)
8000500c:	30420300 	andi	v0,v0,0x300
80005010:	00621825 	or	v1,v1,v0
80005014:	ac83000c 	sw	v1,12(a0)
80005018:	3c038001 	lui	v1,0x8001
8000501c:	8c63d314 	lw	v1,-11500(v1)
80005020:	94620000 	lhu	v0,0(v1)
80005024:	00c02021 	move	a0,a2
80005028:	34420008 	ori	v0,v0,0x8
8000502c:	0c001864 	jal	80006190 <__osRestoreInt>
80005030:	a4620000 	sh	v0,0(v1)
80005034:	8fbf0014 	lw	ra,20(sp)
80005038:	8fb00010 	lw	s0,16(sp)
8000503c:	03e00008 	jr	ra
80005040:	27bd0018 	addiu	sp,sp,24
	...

80005050 <osViSwapBuffer>:
80005050:	27bdffe8 	addiu	sp,sp,-24
80005054:	afb00010 	sw	s0,16(sp)
80005058:	afbf0014 	sw	ra,20(sp)
8000505c:	0c001848 	jal	80006120 <__osDisableInt>
80005060:	00808021 	move	s0,a0
80005064:	3c048001 	lui	a0,0x8001
80005068:	8c84d314 	lw	a0,-11500(a0)
8000506c:	94830000 	lhu	v1,0(a0)
80005070:	ac900004 	sw	s0,4(a0)
80005074:	34630010 	ori	v1,v1,0x10
80005078:	a4830000 	sh	v1,0(a0)
8000507c:	0c001864 	jal	80006190 <__osRestoreInt>
80005080:	00402021 	move	a0,v0
80005084:	8fbf0014 	lw	ra,20(sp)
80005088:	8fb00010 	lw	s0,16(sp)
8000508c:	03e00008 	jr	ra
80005090:	27bd0018 	addiu	sp,sp,24
	...

800050a0 <__osViSwapContext>:
800050a0:	27bdffd8 	addiu	sp,sp,-40
800050a4:	afb00010 	sw	s0,16(sp)
800050a8:	3c108001 	lui	s0,0x8001
800050ac:	8e10d314 	lw	s0,-11500(s0)
800050b0:	3c02a440 	lui	v0,0xa440
800050b4:	34420010 	ori	v0,v0,0x10
800050b8:	afbf0024 	sw	ra,36(sp)
800050bc:	afb40020 	sw	s4,32(sp)
800050c0:	afb3001c 	sw	s3,28(sp)
800050c4:	afb20018 	sw	s2,24(sp)
800050c8:	afb10014 	sw	s1,20(sp)
800050cc:	8c420000 	lw	v0,0(v0)
800050d0:	8e040004 	lw	a0,4(s0)
800050d4:	8e120008 	lw	s2,8(s0)
800050d8:	0c0006b8 	jal	80001ae0 <osVirtualToPhysical>
800050dc:	30510001 	andi	s1,v0,0x1
800050e0:	00111880 	sll	v1,s1,0x2
800050e4:	00711821 	addu	v1,v1,s1
800050e8:	00031880 	sll	v1,v1,0x2
800050ec:	02431821 	addu	v1,s2,v1
800050f0:	8c640028 	lw	a0,40(v1)
800050f4:	96030000 	lhu	v1,0(s0)
800050f8:	30630002 	andi	v1,v1,0x2
800050fc:	10600008 	beqz	v1,80005120 <__osViSwapContext+0x80>
80005100:	00443021 	addu	a2,v0,a0
80005104:	8e420020 	lw	v0,32(s2)
80005108:	8e030020 	lw	v1,32(s0)
8000510c:	2404f000 	li	a0,-4096
80005110:	00441024 	and	v0,v0,a0
80005114:	00621825 	or	v1,v1,v0
80005118:	0800144a 	j	80005128 <__osViSwapContext+0x88>
8000511c:	ae030020 	sw	v1,32(s0)
80005120:	8e420020 	lw	v0,32(s2)
80005124:	ae020020 	sw	v0,32(s0)
80005128:	96020000 	lhu	v0,0(s0)
8000512c:	30420004 	andi	v0,v0,0x4
80005130:	1040002b 	beqz	v0,800051e0 <__osViSwapContext+0x140>
80005134:	00111080 	sll	v0,s1,0x2
80005138:	00511021 	addu	v0,v0,s1
8000513c:	00021080 	sll	v0,v0,0x2
80005140:	02421021 	addu	v0,s2,v0
80005144:	8c42002c 	lw	v0,44(v0)
80005148:	30420fff 	andi	v0,v0,0xfff
8000514c:	44822000 	mtc1	v0,$f4
80005150:	00000000 	nop
80005154:	04410004 	bgez	v0,80005168 <__osViSwapContext+0xc8>
80005158:	46802121 	cvt.d.w	$f4,$f4
8000515c:	3c018001 	lui	at,0x8001
80005160:	d420d8a0 	ldc1	$f0,-10080(at)
80005164:	46202100 	add.d	$f4,$f4,$f0
80005168:	c6020024 	lwc1	$f2,36(s0)
8000516c:	46202020 	cvt.s.d	$f0,$f4
80005170:	46001082 	mul.s	$f2,$f2,$f0
80005174:	3c014f00 	lui	at,0x4f00
80005178:	44810000 	mtc1	at,$f0
8000517c:	00000000 	nop
80005180:	4602003e 	c.le.s	$f0,$f2
	...
8000518c:	45030006 	bc1tl	800051a8 <__osViSwapContext+0x108>
80005190:	46001001 	sub.s	$f0,$f2,$f0
80005194:	4600100d 	trunc.w.s	$f0,$f2
80005198:	44040000 	mfc1	a0,$f0
8000519c:	00000000 	nop
800051a0:	0800146f 	j	800051bc <__osViSwapContext+0x11c>
800051a4:	00111080 	sll	v0,s1,0x2
800051a8:	4600008d 	trunc.w.s	$f2,$f0
800051ac:	44041000 	mfc1	a0,$f2
800051b0:	3c028000 	lui	v0,0x8000
800051b4:	00822025 	or	a0,a0,v0
800051b8:	00111080 	sll	v0,s1,0x2
800051bc:	00511021 	addu	v0,v0,s1
800051c0:	00021080 	sll	v0,v0,0x2
800051c4:	02421021 	addu	v0,s2,v0
800051c8:	ae04002c 	sw	a0,44(s0)
800051cc:	8c42002c 	lw	v0,44(v0)
800051d0:	2403f000 	li	v1,-4096
800051d4:	00431024 	and	v0,v0,v1
800051d8:	0800147c 	j	800051f0 <__osViSwapContext+0x150>
800051dc:	00821025 	or	v0,a0,v0
800051e0:	00511021 	addu	v0,v0,s1
800051e4:	00021080 	sll	v0,v0,0x2
800051e8:	02421021 	addu	v0,s2,v0
800051ec:	8c42002c 	lw	v0,44(v0)
800051f0:	ae02002c 	sw	v0,44(s0)
800051f4:	8e53001c 	lw	s3,28(s2)
800051f8:	00111080 	sll	v0,s1,0x2
800051fc:	00511021 	addu	v0,v0,s1
80005200:	00021080 	sll	v0,v0,0x2
80005204:	02428821 	addu	s1,s2,v0
80005208:	96040000 	lhu	a0,0(s0)
8000520c:	3c058001 	lui	a1,0x8001
80005210:	8ca5c07c 	lw	a1,-16260(a1)
80005214:	8e230030 	lw	v1,48(s1)
80005218:	30820020 	andi	v0,a0,0x20
8000521c:	2c420001 	sltiu	v0,v0,1
80005220:	00021023 	negu	v0,v0
80005224:	02629824 	and	s3,s3,v0
80005228:	00051400 	sll	v0,a1,0x10
8000522c:	00621823 	subu	v1,v1,v0
80005230:	30840040 	andi	a0,a0,0x40
80005234:	10800005 	beqz	a0,8000524c <__osViSwapContext+0x1ac>
80005238:	0065a021 	addu	s4,v1,a1
8000523c:	8e040004 	lw	a0,4(s0)
80005240:	0c0006b8 	jal	80001ae0 <osVirtualToPhysical>
80005244:	ae00002c 	sw	zero,44(s0)
80005248:	00403021 	move	a2,v0
8000524c:	96020000 	lhu	v0,0(s0)
80005250:	30420080 	andi	v0,v0,0x80
80005254:	10400008 	beqz	v0,80005278 <__osViSwapContext+0x1d8>
80005258:	3c0303ff 	lui	v1,0x3ff
8000525c:	96020028 	lhu	v0,40(s0)
80005260:	8e040004 	lw	a0,4(s0)
80005264:	00021400 	sll	v0,v0,0x10
80005268:	00431024 	and	v0,v0,v1
8000526c:	0c0006b8 	jal	80001ae0 <osVirtualToPhysical>
80005270:	ae02002c 	sw	v0,44(s0)
80005274:	00403021 	move	a2,v0
80005278:	3c02a440 	lui	v0,0xa440
8000527c:	34420004 	ori	v0,v0,0x4
80005280:	3c03a440 	lui	v1,0xa440
80005284:	34630008 	ori	v1,v1,0x8
80005288:	3c04a440 	lui	a0,0xa440
8000528c:	34840014 	ori	a0,a0,0x14
80005290:	ac460000 	sw	a2,0(v0)
80005294:	8e420008 	lw	v0,8(s2)
80005298:	3c05a440 	lui	a1,0xa440
8000529c:	34a50018 	ori	a1,a1,0x18
800052a0:	ac620000 	sw	v0,0(v1)
800052a4:	8e42000c 	lw	v0,12(s2)
800052a8:	3c06a440 	lui	a2,0xa440
800052ac:	34c60020 	ori	a2,a2,0x20
800052b0:	ac820000 	sw	v0,0(a0)
800052b4:	8e420010 	lw	v0,16(s2)
800052b8:	3c03a440 	lui	v1,0xa440
800052bc:	3463001c 	ori	v1,v1,0x1c
800052c0:	aca20000 	sw	v0,0(a1)
800052c4:	8e420014 	lw	v0,20(s2)
800052c8:	3c04a440 	lui	a0,0xa440
800052cc:	34840024 	ori	a0,a0,0x24
800052d0:	ac620000 	sw	v0,0(v1)
800052d4:	8e420018 	lw	v0,24(s2)
800052d8:	3c03a440 	lui	v1,0xa440
800052dc:	34630028 	ori	v1,v1,0x28
800052e0:	acc20000 	sw	v0,0(a2)
800052e4:	ac930000 	sw	s3,0(a0)
800052e8:	ac740000 	sw	s4,0(v1)
800052ec:	8e230034 	lw	v1,52(s1)
800052f0:	3c02a440 	lui	v0,0xa440
800052f4:	3442002c 	ori	v0,v0,0x2c
800052f8:	ac430000 	sw	v1,0(v0)
800052fc:	8e230038 	lw	v1,56(s1)
80005300:	3c02a440 	lui	v0,0xa440
80005304:	3442000c 	ori	v0,v0,0xc
80005308:	ac430000 	sw	v1,0(v0)
8000530c:	8e030020 	lw	v1,32(s0)
80005310:	3c02a440 	lui	v0,0xa440
80005314:	34420030 	ori	v0,v0,0x30
80005318:	ac430000 	sw	v1,0(v0)
8000531c:	8e03002c 	lw	v1,44(s0)
80005320:	3c02a440 	lui	v0,0xa440
80005324:	34420034 	ori	v0,v0,0x34
80005328:	ac430000 	sw	v1,0(v0)
8000532c:	8e03000c 	lw	v1,12(s0)
80005330:	3c028001 	lui	v0,0x8001
80005334:	8c42d310 	lw	v0,-11504(v0)
80005338:	02003021 	move	a2,s0
8000533c:	24c80030 	addiu	t0,a2,48
80005340:	3c018001 	lui	at,0x8001
80005344:	ac26d310 	sw	a2,-11504(at)
80005348:	00403821 	move	a3,v0
8000534c:	3c02a440 	lui	v0,0xa440
80005350:	3c018001 	lui	at,0x8001
80005354:	ac27d314 	sw	a3,-11500(at)
80005358:	ac430000 	sw	v1,0(v0)
8000535c:	8cc20000 	lw	v0,0(a2)
80005360:	8cc30004 	lw	v1,4(a2)
80005364:	8cc40008 	lw	a0,8(a2)
80005368:	8cc5000c 	lw	a1,12(a2)
8000536c:	ace20000 	sw	v0,0(a3)
80005370:	ace30004 	sw	v1,4(a3)
80005374:	ace40008 	sw	a0,8(a3)
80005378:	ace5000c 	sw	a1,12(a3)
8000537c:	24c60010 	addiu	a2,a2,16
80005380:	14c8fff6 	bne	a2,t0,8000535c <__osViSwapContext+0x2bc>
80005384:	24e70010 	addiu	a3,a3,16
80005388:	8fbf0024 	lw	ra,36(sp)
8000538c:	8fb40020 	lw	s4,32(sp)
80005390:	8fb3001c 	lw	s3,28(sp)
80005394:	8fb20018 	lw	s2,24(sp)
80005398:	8fb10014 	lw	s1,20(sp)
8000539c:	8fb00010 	lw	s0,16(sp)
800053a0:	03e00008 	jr	ra
800053a4:	27bd0028 	addiu	sp,sp,40
	...

800053b0 <gcc2_compiled.>:
	...

80005410 <__createSpeedParam>:
80005410:	3c05a460 	lui	a1,0xa460
80005414:	34a50014 	ori	a1,a1,0x14
80005418:	3c06a460 	lui	a2,0xa460
8000541c:	34c60018 	ori	a2,a2,0x18
80005420:	3c07a460 	lui	a3,0xa460
80005424:	34e7001c 	ori	a3,a3,0x1c
80005428:	3c08a460 	lui	t0,0xa460
8000542c:	35080020 	ori	t0,t0,0x20
80005430:	3c09a460 	lui	t1,0xa460
80005434:	35290024 	ori	t1,t1,0x24
80005438:	3c04a460 	lui	a0,0xa460
8000543c:	34840028 	ori	a0,a0,0x28
80005440:	3c03a460 	lui	v1,0xa460
80005444:	3463002c 	ori	v1,v1,0x2c
80005448:	3c02a460 	lui	v0,0xa460
8000544c:	34420030 	ori	v0,v0,0x30
80005450:	8ca50000 	lw	a1,0(a1)
80005454:	8cc60000 	lw	a2,0(a2)
80005458:	8ce70000 	lw	a3,0(a3)
8000545c:	8d080000 	lw	t0,0(t0)
80005460:	8d290000 	lw	t1,0(t1)
80005464:	8c840000 	lw	a0,0(a0)
80005468:	8c630000 	lw	v1,0(v1)
8000546c:	8c4a0000 	lw	t2,0(v0)
80005470:	24020007 	li	v0,7
80005474:	3c018010 	lui	at,0x8010
80005478:	a022e57c 	sb	v0,-6788(at)
8000547c:	3c018010 	lui	at,0x8010
80005480:	a022e474 	sb	v0,-7052(at)
80005484:	3c018010 	lui	at,0x8010
80005488:	a025e57d 	sb	a1,-6787(at)
8000548c:	3c018010 	lui	at,0x8010
80005490:	a026e580 	sb	a2,-6784(at)
80005494:	3c018010 	lui	at,0x8010
80005498:	a027e57e 	sb	a3,-6786(at)
8000549c:	3c018010 	lui	at,0x8010
800054a0:	a028e57f 	sb	t0,-6785(at)
800054a4:	3c018010 	lui	at,0x8010
800054a8:	a029e475 	sb	t1,-7051(at)
800054ac:	3c018010 	lui	at,0x8010
800054b0:	a024e478 	sb	a0,-7048(at)
800054b4:	3c018010 	lui	at,0x8010
800054b8:	a023e476 	sb	v1,-7050(at)
800054bc:	3c018010 	lui	at,0x8010
800054c0:	03e00008 	jr	ra
800054c4:	a02ae477 	sb	t2,-7049(at)

800054c8 <__osInitialize_common>:
800054c8:	27bdffe0 	addiu	sp,sp,-32
800054cc:	24020001 	li	v0,1
800054d0:	afbf0018 	sw	ra,24(sp)
800054d4:	3c018001 	lui	at,0x8001
800054d8:	0c001d4c 	jal	80007530 <__osGetSR>
800054dc:	ac22dca4 	sw	v0,-9052(at)
800054e0:	3c042000 	lui	a0,0x2000
800054e4:	0c001d54 	jal	80007550 <__osSetSR>
800054e8:	00442025 	or	a0,v0,a0
800054ec:	3c040100 	lui	a0,0x100
800054f0:	0c001d50 	jal	80007540 <__osSetFpcCsr>
800054f4:	34840800 	ori	a0,a0,0x800
800054f8:	0c001d58 	jal	80007560 <__osSetWatchLo>
800054fc:	3c040490 	lui	a0,0x490
80005500:	3c041fc0 	lui	a0,0x1fc0
80005504:	348407fc 	ori	a0,a0,0x7fc
80005508:	0c001d98 	jal	80007660 <__osSiRawReadIo>
8000550c:	27a50010 	addiu	a1,sp,16
80005510:	1440fffc 	bnez	v0,80005504 <__osInitialize_common+0x3c>
80005514:	3c041fc0 	lui	a0,0x1fc0
80005518:	8fa50010 	lw	a1,16(sp)
8000551c:	3c041fc0 	lui	a0,0x1fc0
80005520:	348407fc 	ori	a0,a0,0x7fc
80005524:	0c001dac 	jal	800076b0 <__osSiRawWriteIo>
80005528:	34a50008 	ori	a1,a1,0x8
8000552c:	1440fffa 	bnez	v0,80005518 <__osInitialize_common+0x50>
80005530:	00000000 	nop
80005534:	3c028000 	lui	v0,0x8000
80005538:	244257b0 	addiu	v0,v0,22448
8000553c:	3c068000 	lui	a2,0x8000
80005540:	8c430000 	lw	v1,0(v0)
80005544:	8c440004 	lw	a0,4(v0)
80005548:	8c450008 	lw	a1,8(v0)
8000554c:	acc30000 	sw	v1,0(a2)
80005550:	acc40004 	sw	a0,4(a2)
80005554:	acc50008 	sw	a1,8(a2)
80005558:	8c43000c 	lw	v1,12(v0)
8000555c:	acc3000c 	sw	v1,12(a2)
80005560:	3c068000 	lui	a2,0x8000
80005564:	34c60080 	ori	a2,a2,0x80
80005568:	8c430000 	lw	v1,0(v0)
8000556c:	8c440004 	lw	a0,4(v0)
80005570:	8c450008 	lw	a1,8(v0)
80005574:	acc30000 	sw	v1,0(a2)
80005578:	acc40004 	sw	a0,4(a2)
8000557c:	acc50008 	sw	a1,8(a2)
80005580:	8c43000c 	lw	v1,12(v0)
80005584:	acc3000c 	sw	v1,12(a2)
80005588:	3c068000 	lui	a2,0x8000
8000558c:	34c60100 	ori	a2,a2,0x100
80005590:	8c430000 	lw	v1,0(v0)
80005594:	8c440004 	lw	a0,4(v0)
80005598:	8c450008 	lw	a1,8(v0)
8000559c:	acc30000 	sw	v1,0(a2)
800055a0:	acc40004 	sw	a0,4(a2)
800055a4:	acc50008 	sw	a1,8(a2)
800055a8:	8c43000c 	lw	v1,12(v0)
800055ac:	acc3000c 	sw	v1,12(a2)
800055b0:	3c068000 	lui	a2,0x8000
800055b4:	34c60180 	ori	a2,a2,0x180
800055b8:	8c430000 	lw	v1,0(v0)
800055bc:	8c440004 	lw	a0,4(v0)
800055c0:	8c450008 	lw	a1,8(v0)
800055c4:	acc30000 	sw	v1,0(a2)
800055c8:	acc40004 	sw	a0,4(a2)
800055cc:	acc50008 	sw	a1,8(a2)
800055d0:	8c43000c 	lw	v1,12(v0)
800055d4:	acc3000c 	sw	v1,12(a2)
800055d8:	3c048000 	lui	a0,0x8000
800055dc:	0c000698 	jal	80001a60 <osWritebackDCache>
800055e0:	24050190 	li	a1,400
800055e4:	3c048000 	lui	a0,0x8000
800055e8:	0c0019a4 	jal	80006690 <osInvalICache>
800055ec:	24050190 	li	a1,400
800055f0:	3c05a460 	lui	a1,0xa460
800055f4:	34a50014 	ori	a1,a1,0x14
800055f8:	3c06a460 	lui	a2,0xa460
800055fc:	34c60018 	ori	a2,a2,0x18
80005600:	3c07a460 	lui	a3,0xa460
80005604:	34e7001c 	ori	a3,a3,0x1c
80005608:	3c08a460 	lui	t0,0xa460
8000560c:	35080020 	ori	t0,t0,0x20
80005610:	3c09a460 	lui	t1,0xa460
80005614:	35290024 	ori	t1,t1,0x24
80005618:	3c04a460 	lui	a0,0xa460
8000561c:	34840028 	ori	a0,a0,0x28
80005620:	3c03a460 	lui	v1,0xa460
80005624:	3463002c 	ori	v1,v1,0x2c
80005628:	3c02a460 	lui	v0,0xa460
8000562c:	34420030 	ori	v0,v0,0x30
80005630:	8ca50000 	lw	a1,0(a1)
80005634:	8cc60000 	lw	a2,0(a2)
80005638:	8ce70000 	lw	a3,0(a3)
8000563c:	8d080000 	lw	t0,0(t0)
80005640:	8d290000 	lw	t1,0(t1)
80005644:	8c840000 	lw	a0,0(a0)
80005648:	8c630000 	lw	v1,0(v1)
8000564c:	8c4a0000 	lw	t2,0(v0)
80005650:	24020007 	li	v0,7
80005654:	3c018010 	lui	at,0x8010
80005658:	a022e57c 	sb	v0,-6788(at)
8000565c:	3c018010 	lui	at,0x8010
80005660:	a022e474 	sb	v0,-7052(at)
80005664:	3c018010 	lui	at,0x8010
80005668:	a025e57d 	sb	a1,-6787(at)
8000566c:	3c018010 	lui	at,0x8010
80005670:	a026e580 	sb	a2,-6784(at)
80005674:	3c018010 	lui	at,0x8010
80005678:	a027e57e 	sb	a3,-6786(at)
8000567c:	3c018010 	lui	at,0x8010
80005680:	a028e57f 	sb	t0,-6785(at)
80005684:	3c018010 	lui	at,0x8010
80005688:	a029e475 	sb	t1,-7051(at)
8000568c:	3c018010 	lui	at,0x8010
80005690:	a024e478 	sb	a0,-7048(at)
80005694:	3c018010 	lui	at,0x8010
80005698:	a023e476 	sb	v1,-7050(at)
8000569c:	3c018010 	lui	at,0x8010
800056a0:	0c001ed8 	jal	80007b60 <osUnmapTLBAll>
800056a4:	a02ae477 	sb	t2,-7049(at)
800056a8:	0c001ec0 	jal	80007b00 <osMapTLBRdb>
800056ac:	00000000 	nop
800056b0:	3c028001 	lui	v0,0x8001
800056b4:	8c42d200 	lw	v0,-11776(v0)
800056b8:	3c038001 	lui	v1,0x8001
800056bc:	8c63d204 	lw	v1,-11772(v1)
800056c0:	00022040 	sll	a0,v0,0x1
800056c4:	000337c2 	srl	a2,v1,0x1f
800056c8:	00862025 	or	a0,a0,a2
800056cc:	00032840 	sll	a1,v1,0x1
800056d0:	00a32821 	addu	a1,a1,v1
800056d4:	00a3302b 	sltu	a2,a1,v1
800056d8:	00822021 	addu	a0,a0,v0
800056dc:	00862021 	addu	a0,a0,a2
800056e0:	24060000 	li	a2,0
800056e4:	0c002461 	jal	80009184 <__udivdi3>
800056e8:	24070004 	li	a3,4
800056ec:	3c048000 	lui	a0,0x8000
800056f0:	8c84030c 	lw	a0,780(a0)
800056f4:	3c018001 	lui	at,0x8001
800056f8:	ac22d200 	sw	v0,-11776(at)
800056fc:	3c018001 	lui	at,0x8001
80005700:	14800005 	bnez	a0,80005718 <__osInitialize_common+0x250>
80005704:	ac23d204 	sw	v1,-11772(at)
80005708:	3c048000 	lui	a0,0x8000
8000570c:	2484031c 	addiu	a0,a0,796
80005710:	0c0006d0 	jal	80001b40 <bzero>
80005714:	24050040 	li	a1,64
80005718:	3c038000 	lui	v1,0x8000
8000571c:	8c630300 	lw	v1,768(v1)
80005720:	54600004 	bnezl	v1,80005734 <__osInitialize_common+0x26c>
80005724:	24020002 	li	v0,2
80005728:	3c0202f5 	lui	v0,0x2f5
8000572c:	080015d2 	j	80005748 <__osInitialize_common+0x280>
80005730:	3442b2d2 	ori	v0,v0,0xb2d2
80005734:	14620003 	bne	v1,v0,80005744 <__osInitialize_common+0x27c>
80005738:	3c0202e6 	lui	v0,0x2e6
8000573c:	080015d2 	j	80005748 <__osInitialize_common+0x280>
80005740:	3442025c 	ori	v0,v0,0x25c
80005744:	3442d354 	ori	v0,v0,0xd354
80005748:	3c018001 	lui	at,0x8001
8000574c:	0c001d44 	jal	80007510 <__osGetCause>
80005750:	ac22d208 	sw	v0,-11768(at)
80005754:	30421000 	andi	v0,v0,0x1000
80005758:	10400003 	beqz	v0,80005768 <__osInitialize_common+0x2a0>
8000575c:	3c03a450 	lui	v1,0xa450
80005760:	080015d8 	j	80005760 <__osInitialize_common+0x298>
80005764:	00000000 	nop
80005768:	34630008 	ori	v1,v1,0x8
8000576c:	3c04a450 	lui	a0,0xa450
80005770:	34840010 	ori	a0,a0,0x10
80005774:	3c05a450 	lui	a1,0xa450
80005778:	34a50014 	ori	a1,a1,0x14
8000577c:	24020001 	li	v0,1
80005780:	ac620000 	sw	v0,0(v1)
80005784:	24023fff 	li	v0,16383
80005788:	ac820000 	sw	v0,0(a0)
8000578c:	2402000f 	li	v0,15
80005790:	aca20000 	sw	v0,0(a1)
80005794:	8fbf0018 	lw	ra,24(sp)
80005798:	03e00008 	jr	ra
8000579c:	27bd0020 	addiu	sp,sp,32

800057a0 <__osInitialize_autodetect>:
800057a0:	03e00008 	jr	ra
800057a4:	00000000 	nop
	...

800057b0 <__osExceptionPreamble>:
800057b0:	3c1a8000 275a57c0 03400008 00000000     <...'ZW..@......

800057c0 <__osException>:
800057c0:	3c1a8010 275ae2c0 ff410020 401b6000     <...'Z...A. @.`.
800057d0:	af5b0118 2401fffc 0361d824 409b6000     .[..$....a.$@.`.
800057e0:	ff480058 ff490060 ff4a0068 af400018     .H.X.I.`.J.h.@..
800057f0:	40086800                                @.h.

800057f4 <savecontext>:
800057f4:	03404021 3c1a8001 8f5ac050 dd090020     .@@!<....Z.P... 
80005804:	ff490020 dd090118 ff490118 dd090058     .I. .....I.....X
80005814:	ff490058 dd090060 ff490060 dd090068     .I.X...`.I.`...h
80005824:	ff490068 ff420028 ff430030 ff440038     .I.h.B.(.C.0.D.8
80005834:	ff450040 ff460048 ff470050 ff4b0070     .E.@.F.H.G.P.K.p
80005844:	ff4c0078 ff4d0080 ff4e0088 ff4f0090     .L.x.M...N...O..
80005854:	ff500098 ff5100a0 ff5200a8 ff5300b0     .P...Q...R...S..
80005864:	ff5400b8 ff5500c0 ff5600c8 ff5700d0     .T...U...V...W..
80005874:	ff5800d8 ff5900e0 ff5c00e8 ff5d00f0     .X...Y...\...]..
80005884:	ff5e00f8 ff5f0100 00004012 ff480108     .^..._....@..H..
80005894:	00004010 ff480110 8f5b0118 3369ff00     ..@..H...[..3i..
800058a4:	11200013 00000000 3c088001 2508d210     . ......<...%...
800058b4:	8d080000 2401ffff 01015026 314aff00     ....$.....P&1J..
800058c4:	012a6025 3c01ffff 342100ff 03615824     .*`%<...4!...aX$
800058d4:	016c5825 af4b0118 3108ff00 01284824     .lX%.K..1....(H$
800058e4:	3c01ffff 342100ff 0361d824 0369d825     <...4!...a.$.i.%

800058f4 <savercp>:
800058f4:	3c09a430 8d29000c 1120000b 00000000     <..0.)... ......
80005904:	3c088001 2508d210 8d080000 00084402     <...%.........D.
80005914:	2401ffff 01014026 3108003f 8f4c0128     $.....@&1..?.L.(
80005924:	010c4024 01284825                       ..@$.(H%

8000592c <endrcp>:
8000592c:	af490128 40087000 af48011c 8f480018     .I.(@.p..H...H..
8000593c:	11000014 00000000 4448f800 00000000     ........DH......
8000594c:	af48012c f7400130 f7420138 f7440140     .H.,.@.0.B.8.D.@
8000595c:	f7460148 f7480150 f74a0158 f74c0160     .F.H.H.P.J.X.L.`
8000596c:	f74e0168 f7500170 f7520178 f7540180     .N.h.P.p.R.x.T..
8000597c:	f7560188 f7580190 f75a0198 f75c01a0     .V...X...Z...\..
8000598c:	f75e01a8 40086800 af480120 24090002     .^..@.h..H. $...
8000599c:	a7490010 3109007c 240a0024 112a00bf     .I..1..|$..$.*..
800059ac:	00000000 240a002c 112a0110 00000000     ....$..,.*......
800059bc:	240a0000 152a00d2 00000000              $....*......

800059c8 <handle_interrupt>:
800059c8:	03688024                                .h.$

800059cc <next_interrupt>:
800059cc:	3209ff00 00095302 15400003 00000000     2.....S..@......
800059dc:	00095202 214a0010 3c018001 002a0821     ..R.!J..<....*.!
800059ec:	902ad8b0 3c018001 002a0821 8c2ad8d0     .*..<....*.!.*..
800059fc:	01400008 00000000                       .@......

80005a04 <IP6_Hdlr>:
80005a04:	2401dfff 1000fff0 02018024              $..........$

80005a10 <IP7_Hdlr>:
80005a10:	2401bfff 1000ffed 02018024              $..........$

80005a1c <counter>:
80005a1c:	40095800 40895800 24040018 0c00174f     @.X.@.X.$......O
80005a2c:	00000000 3c01ffff 34217fff 1000ffe4     ....<...4!......
80005a3c:	02018024                                ...$

80005a40 <cart>:
80005a40:	2401f7ff 02018024 3c098001 2529d220     $......$<...%). 
80005a50:	21290008 8d2a0000 11400007 00000000     !)...*...@......
80005a60:	0140f809 8d3d0004 10400003 00000000     .@...=...@......
80005a70:	10000093 00000000 0c00174f 24040010     ...........O$...
80005a80:	1000ffd2 00000000                       ........

80005a88 <rcp>:
80005a88:	3c11a430 8e310008 3c088001 2508d210     <..0.1..<...%...
80005a98:	8d080000 00084402 02288824 32290001     ......D..(.$2)..
80005aa8:	11200014 00000000 3231003e 3c0ca404     . ......21.><...
80005ab8:	8d8c0010 34098008 3c01a404 ac290010     ....4...<....)..
80005ac8:	318c0300 11800007 00000000 0c00174f     1..............O
80005ad8:	24040020 12200044 00000000 10000005     $.. . .D........
80005ae8:	00000000                                ....

80005aec <sp_other_break>:
80005aec:	0c00174f 24040058 1220003e 00000000     ...O$..X. .>....

80005afc <vi>:
80005afc:	32290008 11200008 00000000 32310037     2)... ......21.7
80005b0c:	3c01a440 ac200010 0c00174f 24040038     <..@. .....O$..8
80005b1c:	12200034 00000000                       . .4....

80005b24 <ai>:
80005b24:	32290004 11200009 00000000 3231003b     2)... ......21.;
80005b34:	24090001 3c01a450 ac29000c 0c00174f     $...<..P.).....O
80005b44:	24040030 12200029 00000000              $..0. .)....

80005b50 <si>:
80005b50:	32290002 11200008 00000000 3231003d     2)... ......21.=
80005b60:	3c01a480 ac200018 0c00174f 24040028     <.... .....O$..(
80005b70:	1220001f 00000000                       . ......

80005b78 <pi>:
80005b78:	32290010 11200013 00000000 3231002f     2)... ......21./
80005b88:	24090002 3c01a460 ac290010 3c098001     $...<..`.)..<...
80005b98:	2529d248 8d2a0000 11400006 00000000     %).H.*...@......
80005ba8:	8d3d0004 0140f809 00402021 14400003     .=...@...@ !.@..
80005bb8:	00000000 0c00174f 24040040 1220000a     .......O$..@. ..
80005bc8:	00000000                                ....

80005bcc <dp>:
80005bcc:	32290020 11200007 00000000 3231001f     2). . ......21..
80005bdc:	24090800 3c01a430 ac290000 0c00174f     $...<..0.).....O
80005bec:	24040048                                $..H

80005bf0 <NoMoreRcpInts>:
80005bf0:	2401fbff 1000ff75 02018024              $......u...$

80005bfc <prenmi>:
80005bfc:	8f5b0118 2401efff 0361d824 af5b0118     .[..$....a.$.[..
80005c0c:	3c098001 2529d20c 8d2a0000 11400004     <...%)...*...@..
80005c1c:	00000000 2401efff 10000026 02018024     ....$......&...$

80005c2c <firstnmi>:
80005c2c:	240a0001 ad2a0000 0c00174f 24040070     $....*.....O$..p
80005c3c:	2401efff 02018024 3c0a8001 8d4ac048     $......$<....J.H
80005c4c:	8d5b0118 2401efff 0361d824 10000019     .[..$....a.$....
80005c5c:	ad5b0118                                .[..

80005c60 <sw2>:
80005c60:	2401fdff 01014024 40886800 24040008     $.....@$@.h.$...
80005c70:	0c00174f 00000000 2401fdff 1000ff53     ...O....$......S
80005c80:	02018024                                ...$

80005c84 <sw1>:
80005c84:	2401feff 01014024 40886800 24040000     $.....@$@.h.$...
80005c94:	0c00174f 00000000 2401feff 1000ff4a     ...O....$......J
80005ca4:	02018024                                ...$

80005ca8 <handle_break>:
80005ca8:	24090001 a7490012 0c00174f 24040050     $....I.....O$..P
80005cb8:	10000001 00000000                       ........

80005cc0 <redispatch>:
80005cc0:	8f490004 3c0a8001 8d4ac048 8d4b0004     .I..<....J.H.K..
80005cd0:	012b082a 10200007 00000000 03402821     .+.*. .......@(!
80005ce0:	3c048001 0c0017cd 2484c048 080017e5     <.......$..H....
80005cf0:	00000000                                ....

80005cf4 <enqueueRunning>:
80005cf4:	3c098001 2529c048 8d2a0000 af4a0000     <...%).H.*...J..
80005d04:	080017e5 ad3a0000                       .....:..

80005d0c <panic>:
80005d0c:	3c018001 ac3ac054 24090001 a7490010     <....:.T$....I..
80005d1c:	24090002 a7490012 400a4000 af4a0124     $....I..@.@..J.$
80005d2c:	0c00174f 24040060 080017e5 00000000     ...O$..`........

80005d3c <send_mesg>:
80005d3c:	03e09021 3c0a8010 254ae610 01445021     ...!<...%J...DP!
80005d4c:	8d490000 11200027 00000000 8d2b0008     .I... .'.....+..
80005d5c:	8d2c0010 016c082a 10200022 00000000     .,...l.*. ."....
80005d6c:	8d2d000c 01ab6821 01ac001a 15800002     .-....h!........
80005d7c:	00000000 0007000d 2401ffff 15810004     ........$.......
80005d8c:	3c018000 15a10002 00000000 0006000d     <...............
80005d9c:	00006810 8d2c0014 24010004 01a10018     ..h..,..$.......
80005dac:	00006812 018d6021 8d4d0004 ad8d0000     ..h...`!.M......
80005dbc:	256a0001 ad2a0008 8d2a0000 8d4b0000     %j...*...*...K..
80005dcc:	11600008 00000000 0c0017df 01202021     .`...........  !
80005ddc:	00405021 01402821 3c048001 0c0017cd     .@P!.@(!<.......
80005dec:	2484c048                                $..H

80005df0 <send_done>:
80005df0:	02400008 00000000                       .@......

80005df8 <handle_CpU>:
80005df8:	3c013000 01014824 00094f02 240a0001     <.0...H$..O.$...
80005e08:	152affc0 00000000 24090001 af490018     .*......$....I..
80005e18:	8f5b0118 3c012000 0361d825 1000ffb3     .[..<. ..a.%....
80005e28:	af5b0118                                .[..

80005e2c <__osEnqueueAndYield>:
80005e2c:	3c058001 8ca5c050 40086000 35080002     <......P@.`.5...
80005e3c:	aca80118 fcb00098 fcb100a0 fcb200a8     ................
80005e4c:	fcb300b0 fcb400b8 fcb500c0 fcb600c8     ................
80005e5c:	fcb700d0 fcbc00e8 fcbd00f0 fcbe00f8     ................
80005e6c:	fcbf0100 acbf011c 8cbb0018 1360000a     .............`..
80005e7c:	00000000 445bf800 00000000 acbb012c     ....D[.........,
80005e8c:	f4b40180 f4b60188 f4b80190 f4ba0198     ................
80005e9c:	f4bc01a0 f4be01a8 8cbb0118 3369ff00     ............3i..
80005eac:	1120000d 00000000 3c088001 2508d210     . ......<...%...
80005ebc:	8d080000 2401ffff 01014026 3108ff00     ....$.....@&1...
80005ecc:	01284825 3c01ffff 342100ff 0361d824     .(H%<...4!...a.$
80005edc:	0369d825 acbb0118 3c1ba430 8f7b000c     .i.%....<..0.{..
80005eec:	1360000b 00000000 3c1a8001 275ad210     .`......<...'Z..
80005efc:	8f5a0000 001ad402 2401ffff 0341d026     .Z......$....A.&
80005f0c:	335a003f 8ca80128 0348d024 037ad825     3Z.?...(.H.$.z.%
80005f1c:	10800003 acbb0128 0c0017cd 00000000     .......(........

80005f2c <noEnqueue>:
80005f2c:	080017e5 00000000                       ........

80005f34 <__osEnqueueThread>:
80005f34:	0080c821 8c980000 8caf0004 8f0e0004     ...!............
80005f44:	01cf082a 14200007 00000000 0300c821     ...*. .........!
80005f54:	8f180000 8f0e0004 01cf082a 1020fffb     ...........*. ..
80005f64:	00000000 8f380000 acb80000 af250000     .....8.......%..
80005f74:	03e00008 aca40008                       ........

80005f7c <__osPopThread>:
80005f7c:	8c820000 8c590000 03e00008 ac990000     .....Y..........

80005f8c <__osNop>:
80005f8c:	03e00008 00000000                       ........

80005f94 <__osDispatchThread>:
80005f94:	3c048001 0c0017df 2484c048 3c018001     <.......$..H<...
80005fa4:	ac22c050 24080004 a4480010 0040d021     .".P$....H...@.!

80005fb4 <__osDispatchThreadSave>:
80005fb4:	8f5b0118 3c088001 2508d210 8d080000     .[..<...%.......
80005fc4:	3108ff00 3369ff00 01284824 3c01ffff     1...3i...(H$<...
80005fd4:	342100ff 0361d824 0369d825 409b6000     4!...a.$.i.%@.`.
80005fe4:	df410020 df420028 df430030 df440038     .A. .B.(.C.0.D.8
80005ff4:	df450040 df460048 df470050 df480058     .E.@.F.H.G.P.H.X
80006004:	df490060 df4a0068 df4b0070 df4c0078     .I.`.J.h.K.p.L.x
80006014:	df4d0080 df4e0088 df4f0090 df500098     .M...N...O...P..
80006024:	df5100a0 df5200a8 df5300b0 df5400b8     .Q...R...S...T..
80006034:	df5500c0 df5600c8 df5700d0 df5800d8     .U...V...W...X..
80006044:	df5900e0 df5c00e8 df5d00f0 df5e00f8     .Y...\...]...^..
80006054:	df5f0100 df5b0108 03600013 df5b0110     ._...[...`...[..
80006064:	03600011 8f5b011c 409b7000 8f5b0018     .`...[..@.p..[..
80006074:	13600013 00000000 8f5b012c 44dbf800     .`.......[.,D...
80006084:	d7400130 d7420138 d7440140 d7460148     .@.0.B.8.D.@.F.H
80006094:	d7480150 d74a0158 d74c0160 d74e0168     .H.P.J.X.L.`.N.h
800060a4:	d7500170 d7520178 d7540180 d7560188     .P.p.R.x.T...V..
800060b4:	d7580190 d75a0198 d75c01a0 d75e01a8     .X...Z...\...^..
800060c4:	8f5b0128 3c1a8001 275ad210 8f5a0000     .[.(<...'Z...Z..
800060d4:	001ad402 037ad824 001bd840 3c1a8001     .....z.$...@<...
800060e4:	275ad900 037ad821 977b0000 3c1aa430     'Z...z.!.{..<..0
800060f4:	375a000c af5b0000 00000000 00000000     7Z...[..........
	...
8000610c:	42000018                                B...

80006110 <__osCleanupThread>:
80006110:	00002021 0c001dc0 00000000 00000000     .. !............

80006120 <__osDisableInt>:
80006120:	3c0a8001 254ad210 8d4b0000 316bff00     <...%J...K..1k..
80006130:	40086000 2401fffe 01014824 40896000     @.`.$.....H$@.`.
80006140:	31020001 8d480000 3108ff00 110b000e     1....H..1.......
80006150:	3c0a8001 254ac050 8d490118 312aff00     <...%J.P.I..1*..
80006160:	01485024 3c01ffff 342100ff 01214824     .HP$<...4!...!H$
80006170:	012a4825 2401fffe 01214824 40896000     .*H%$....!H$@.`.
	...

80006188 <No_Change_Global_Int>:
80006188:	03e00008 00000000                       ........

80006190 <__osRestoreInt>:
80006190:	40086000 01044025 40886000 00000000     @.`...@%@.`.....
800061a0:	00000000 03e00008 00000000 00000000     ................

800061b0 <osSetIntMask>:
800061b0:	400c6000 3182ff01 3c088001 2508d210     @.`.1...<...%...
800061c0:	8d0b0000 2401ffff 01614026 3108ff00     ....$....a@&1...
800061d0:	00481025 3c0aa430 8d4a000c 11400005     .H.%<..0.J...@..
800061e0:	000b4c02 2401ffff 01214826 3129003f     ..L.$....!H&1).?
800061f0:	01495025 000a5400 004a1025 3c01003f     .IP%..T..J.%<..?
80006200:	00814024 010b4024 000843c2 3c0a8001     ..@$..@$..C.<...
80006210:	01485021 954ad900 3c01a430 ac2a000c     .HP!.J..<..0.*..
80006220:	3088ff01 3169ff00 01094024 3c01ffff     0...1i....@$<...
80006230:	342100ff 01816024 01886025 408c6000     4!....`$..`%@.`.
	...
80006248:	03e00008 00000000                       ........

80006250 <__osSetGlobalIntMask>:
80006250:	27bdffe8 	addiu	sp,sp,-24
80006254:	afb00010 	sw	s0,16(sp)
80006258:	afbf0014 	sw	ra,20(sp)
8000625c:	0c001848 	jal	80006120 <__osDisableInt>
80006260:	00808021 	move	s0,a0
80006264:	3c038001 	lui	v1,0x8001
80006268:	8c63d210 	lw	v1,-11760(v1)
8000626c:	00701825 	or	v1,v1,s0
80006270:	3c018001 	lui	at,0x8001
80006274:	ac23d210 	sw	v1,-11760(at)
80006278:	0c001864 	jal	80006190 <__osRestoreInt>
8000627c:	00402021 	move	a0,v0
80006280:	8fbf0014 	lw	ra,20(sp)
80006284:	8fb00010 	lw	s0,16(sp)
80006288:	03e00008 	jr	ra
8000628c:	27bd0018 	addiu	sp,sp,24

80006290 <__osResetGlobalIntMask>:
80006290:	27bdffe8 	addiu	sp,sp,-24
80006294:	afb00010 	sw	s0,16(sp)
80006298:	afbf0014 	sw	ra,20(sp)
8000629c:	0c001848 	jal	80006120 <__osDisableInt>
800062a0:	00808021 	move	s0,a0
800062a4:	3c038001 	lui	v1,0x8001
800062a8:	8c63d210 	lw	v1,-11760(v1)
800062ac:	00108027 	nor	s0,zero,s0
800062b0:	36100401 	ori	s0,s0,0x401
800062b4:	00701824 	and	v1,v1,s0
800062b8:	3c018001 	lui	at,0x8001
800062bc:	ac23d210 	sw	v1,-11760(at)
800062c0:	0c001864 	jal	80006190 <__osRestoreInt>
800062c4:	00402021 	move	a0,v0
800062c8:	8fbf0014 	lw	ra,20(sp)
800062cc:	8fb00010 	lw	s0,16(sp)
800062d0:	03e00008 	jr	ra
800062d4:	27bd0018 	addiu	sp,sp,24
	...

800062e0 <__osPiRawStartDma>:
800062e0:	27bdffe0 	addiu	sp,sp,-32
800062e4:	afb00010 	sw	s0,16(sp)
800062e8:	00808021 	move	s0,a0
800062ec:	afb10014 	sw	s1,20(sp)
800062f0:	00a08821 	move	s1,a1
800062f4:	3c02a460 	lui	v0,0xa460
800062f8:	34420010 	ori	v0,v0,0x10
800062fc:	afbf001c 	sw	ra,28(sp)
80006300:	afb20018 	sw	s2,24(sp)
80006304:	8c420000 	lw	v0,0(v0)
80006308:	00c02021 	move	a0,a2
8000630c:	30420003 	andi	v0,v0,0x3
80006310:	10400007 	beqz	v0,80006330 <__osPiRawStartDma+0x50>
80006314:	00e09021 	move	s2,a3
80006318:	3c03a460 	lui	v1,0xa460
8000631c:	34630010 	ori	v1,v1,0x10
80006320:	8c620000 	lw	v0,0(v1)
80006324:	30420003 	andi	v0,v0,0x3
80006328:	1440fffd 	bnez	v0,80006320 <__osPiRawStartDma+0x40>
8000632c:	00000000 	nop
80006330:	0c0006b8 	jal	80001ae0 <osVirtualToPhysical>
80006334:	00000000 	nop
80006338:	3c06a460 	lui	a2,0xa460
8000633c:	34c60004 	ori	a2,a2,0x4
80006340:	3c051fff 	lui	a1,0x1fff
80006344:	3c038000 	lui	v1,0x8000
80006348:	8c630308 	lw	v1,776(v1)
8000634c:	34a5ffff 	ori	a1,a1,0xffff
80006350:	3c04a460 	lui	a0,0xa460
80006354:	ac820000 	sw	v0,0(a0)
80006358:	00711825 	or	v1,v1,s1
8000635c:	00651824 	and	v1,v1,a1
80006360:	acc30000 	sw	v1,0(a2)
80006364:	12000005 	beqz	s0,8000637c <__osPiRawStartDma+0x9c>
80006368:	24020001 	li	v0,1
8000636c:	12020006 	beq	s0,v0,80006388 <__osPiRawStartDma+0xa8>
80006370:	3c03a460 	lui	v1,0xa460
80006374:	080018e6 	j	80006398 <__osPiRawStartDma+0xb8>
80006378:	2402ffff 	li	v0,-1
8000637c:	3c03a460 	lui	v1,0xa460
80006380:	080018e3 	j	8000638c <__osPiRawStartDma+0xac>
80006384:	3463000c 	ori	v1,v1,0xc
80006388:	34630008 	ori	v1,v1,0x8
8000638c:	2642ffff 	addiu	v0,s2,-1
80006390:	ac620000 	sw	v0,0(v1)
80006394:	00001021 	move	v0,zero
80006398:	8fbf001c 	lw	ra,28(sp)
8000639c:	8fb20018 	lw	s2,24(sp)
800063a0:	8fb10014 	lw	s1,20(sp)
800063a4:	8fb00010 	lw	s0,16(sp)
800063a8:	03e00008 	jr	ra
800063ac:	27bd0020 	addiu	sp,sp,32

800063b0 <__osEPiRawReadIo>:
800063b0:	3c02a460 	lui	v0,0xa460
800063b4:	34420010 	ori	v0,v0,0x10
800063b8:	8c420000 	lw	v0,0(v0)
800063bc:	30420003 	andi	v0,v0,0x3
800063c0:	10400006 	beqz	v0,800063dc <__osEPiRawReadIo+0x2c>
800063c4:	3c03a460 	lui	v1,0xa460
800063c8:	34630010 	ori	v1,v1,0x10
800063cc:	8c620000 	lw	v0,0(v1)
800063d0:	30420003 	andi	v0,v0,0x3
800063d4:	1440fffd 	bnez	v0,800063cc <__osEPiRawReadIo+0x1c>
800063d8:	00000000 	nop
800063dc:	90880009 	lbu	t0,9(a0)
800063e0:	00081080 	sll	v0,t0,0x2
800063e4:	3c078001 	lui	a3,0x8001
800063e8:	00e23821 	addu	a3,a3,v0
800063ec:	8ce7bff0 	lw	a3,-16400(a3)
800063f0:	90820004 	lbu	v0,4(a0)
800063f4:	90e30004 	lbu	v1,4(a3)
800063f8:	1062003f 	beq	v1,v0,800064f8 <__osEPiRawReadIo+0x148>
800063fc:	00000000 	nop
80006400:	1500001a 	bnez	t0,8000646c <__osEPiRawReadIo+0xbc>
80006404:	00e01821 	move	v1,a3
80006408:	90620005 	lbu	v0,5(v1)
8000640c:	90870005 	lbu	a3,5(a0)
80006410:	10470003 	beq	v0,a3,80006420 <__osEPiRawReadIo+0x70>
80006414:	3c02a460 	lui	v0,0xa460
80006418:	34420014 	ori	v0,v0,0x14
8000641c:	ac470000 	sw	a3,0(v0)
80006420:	90620006 	lbu	v0,6(v1)
80006424:	90870006 	lbu	a3,6(a0)
80006428:	10470003 	beq	v0,a3,80006438 <__osEPiRawReadIo+0x88>
8000642c:	3c02a460 	lui	v0,0xa460
80006430:	3442001c 	ori	v0,v0,0x1c
80006434:	ac470000 	sw	a3,0(v0)
80006438:	90620007 	lbu	v0,7(v1)
8000643c:	90870007 	lbu	a3,7(a0)
80006440:	10470003 	beq	v0,a3,80006450 <__osEPiRawReadIo+0xa0>
80006444:	3c02a460 	lui	v0,0xa460
80006448:	34420020 	ori	v0,v0,0x20
8000644c:	ac470000 	sw	a3,0(v0)
80006450:	90620008 	lbu	v0,8(v1)
80006454:	90870008 	lbu	a3,8(a0)
80006458:	1047001d 	beq	v0,a3,800064d0 <__osEPiRawReadIo+0x120>
8000645c:	00000000 	nop
80006460:	3c02a460 	lui	v0,0xa460
80006464:	08001933 	j	800064cc <__osEPiRawReadIo+0x11c>
80006468:	34420018 	ori	v0,v0,0x18
8000646c:	90620005 	lbu	v0,5(v1)
80006470:	90870005 	lbu	a3,5(a0)
80006474:	10470003 	beq	v0,a3,80006484 <__osEPiRawReadIo+0xd4>
80006478:	3c02a460 	lui	v0,0xa460
8000647c:	34420024 	ori	v0,v0,0x24
80006480:	ac470000 	sw	a3,0(v0)
80006484:	90620006 	lbu	v0,6(v1)
80006488:	90870006 	lbu	a3,6(a0)
8000648c:	10470003 	beq	v0,a3,8000649c <__osEPiRawReadIo+0xec>
80006490:	3c02a460 	lui	v0,0xa460
80006494:	3442002c 	ori	v0,v0,0x2c
80006498:	ac470000 	sw	a3,0(v0)
8000649c:	90620007 	lbu	v0,7(v1)
800064a0:	90870007 	lbu	a3,7(a0)
800064a4:	10470003 	beq	v0,a3,800064b4 <__osEPiRawReadIo+0x104>
800064a8:	3c02a460 	lui	v0,0xa460
800064ac:	34420030 	ori	v0,v0,0x30
800064b0:	ac470000 	sw	a3,0(v0)
800064b4:	90620008 	lbu	v0,8(v1)
800064b8:	90870008 	lbu	a3,8(a0)
800064bc:	10470004 	beq	v0,a3,800064d0 <__osEPiRawReadIo+0x120>
800064c0:	00000000 	nop
800064c4:	3c02a460 	lui	v0,0xa460
800064c8:	34420028 	ori	v0,v0,0x28
800064cc:	ac470000 	sw	a3,0(v0)
800064d0:	90820004 	lbu	v0,4(a0)
800064d4:	a0620004 	sb	v0,4(v1)
800064d8:	90820005 	lbu	v0,5(a0)
800064dc:	a0620005 	sb	v0,5(v1)
800064e0:	90820006 	lbu	v0,6(a0)
800064e4:	a0620006 	sb	v0,6(v1)
800064e8:	90820007 	lbu	v0,7(a0)
800064ec:	a0620007 	sb	v0,7(v1)
800064f0:	90820008 	lbu	v0,8(a0)
800064f4:	a0620008 	sb	v0,8(v1)
800064f8:	8c82000c 	lw	v0,12(a0)
800064fc:	3c03a000 	lui	v1,0xa000
80006500:	00451025 	or	v0,v0,a1
80006504:	00431025 	or	v0,v0,v1
80006508:	8c420000 	lw	v0,0(v0)
8000650c:	acc20000 	sw	v0,0(a2)
80006510:	03e00008 	jr	ra
80006514:	00001021 	move	v0,zero
	...

80006520 <__osEPiRawWriteIo>:
80006520:	3c02a460 	lui	v0,0xa460
80006524:	34420010 	ori	v0,v0,0x10
80006528:	8c420000 	lw	v0,0(v0)
8000652c:	30420003 	andi	v0,v0,0x3
80006530:	10400006 	beqz	v0,8000654c <__osEPiRawWriteIo+0x2c>
80006534:	3c03a460 	lui	v1,0xa460
80006538:	34630010 	ori	v1,v1,0x10
8000653c:	8c620000 	lw	v0,0(v1)
80006540:	30420003 	andi	v0,v0,0x3
80006544:	1440fffd 	bnez	v0,8000653c <__osEPiRawWriteIo+0x1c>
80006548:	00000000 	nop
8000654c:	90880009 	lbu	t0,9(a0)
80006550:	00081080 	sll	v0,t0,0x2
80006554:	3c078001 	lui	a3,0x8001
80006558:	00e23821 	addu	a3,a3,v0
8000655c:	8ce7bff0 	lw	a3,-16400(a3)
80006560:	90820004 	lbu	v0,4(a0)
80006564:	90e30004 	lbu	v1,4(a3)
80006568:	1062003f 	beq	v1,v0,80006668 <__osEPiRawWriteIo+0x148>
8000656c:	00000000 	nop
80006570:	1500001a 	bnez	t0,800065dc <__osEPiRawWriteIo+0xbc>
80006574:	00e01821 	move	v1,a3
80006578:	90620005 	lbu	v0,5(v1)
8000657c:	90870005 	lbu	a3,5(a0)
80006580:	10470003 	beq	v0,a3,80006590 <__osEPiRawWriteIo+0x70>
80006584:	3c02a460 	lui	v0,0xa460
80006588:	34420014 	ori	v0,v0,0x14
8000658c:	ac470000 	sw	a3,0(v0)
80006590:	90620006 	lbu	v0,6(v1)
80006594:	90870006 	lbu	a3,6(a0)
80006598:	10470003 	beq	v0,a3,800065a8 <__osEPiRawWriteIo+0x88>
8000659c:	3c02a460 	lui	v0,0xa460
800065a0:	3442001c 	ori	v0,v0,0x1c
800065a4:	ac470000 	sw	a3,0(v0)
800065a8:	90620007 	lbu	v0,7(v1)
800065ac:	90870007 	lbu	a3,7(a0)
800065b0:	10470003 	beq	v0,a3,800065c0 <__osEPiRawWriteIo+0xa0>
800065b4:	3c02a460 	lui	v0,0xa460
800065b8:	34420020 	ori	v0,v0,0x20
800065bc:	ac470000 	sw	a3,0(v0)
800065c0:	90620008 	lbu	v0,8(v1)
800065c4:	90870008 	lbu	a3,8(a0)
800065c8:	1047001d 	beq	v0,a3,80006640 <__osEPiRawWriteIo+0x120>
800065cc:	00000000 	nop
800065d0:	3c02a460 	lui	v0,0xa460
800065d4:	0800198f 	j	8000663c <__osEPiRawWriteIo+0x11c>
800065d8:	34420018 	ori	v0,v0,0x18
800065dc:	90620005 	lbu	v0,5(v1)
800065e0:	90870005 	lbu	a3,5(a0)
800065e4:	10470003 	beq	v0,a3,800065f4 <__osEPiRawWriteIo+0xd4>
800065e8:	3c02a460 	lui	v0,0xa460
800065ec:	34420024 	ori	v0,v0,0x24
800065f0:	ac470000 	sw	a3,0(v0)
800065f4:	90620006 	lbu	v0,6(v1)
800065f8:	90870006 	lbu	a3,6(a0)
800065fc:	10470003 	beq	v0,a3,8000660c <__osEPiRawWriteIo+0xec>
80006600:	3c02a460 	lui	v0,0xa460
80006604:	3442002c 	ori	v0,v0,0x2c
80006608:	ac470000 	sw	a3,0(v0)
8000660c:	90620007 	lbu	v0,7(v1)
80006610:	90870007 	lbu	a3,7(a0)
80006614:	10470003 	beq	v0,a3,80006624 <__osEPiRawWriteIo+0x104>
80006618:	3c02a460 	lui	v0,0xa460
8000661c:	34420030 	ori	v0,v0,0x30
80006620:	ac470000 	sw	a3,0(v0)
80006624:	90620008 	lbu	v0,8(v1)
80006628:	90870008 	lbu	a3,8(a0)
8000662c:	10470004 	beq	v0,a3,80006640 <__osEPiRawWriteIo+0x120>
80006630:	00000000 	nop
80006634:	3c02a460 	lui	v0,0xa460
80006638:	34420028 	ori	v0,v0,0x28
8000663c:	ac470000 	sw	a3,0(v0)
80006640:	90820004 	lbu	v0,4(a0)
80006644:	a0620004 	sb	v0,4(v1)
80006648:	90820005 	lbu	v0,5(a0)
8000664c:	a0620005 	sb	v0,5(v1)
80006650:	90820006 	lbu	v0,6(a0)
80006654:	a0620006 	sb	v0,6(v1)
80006658:	90820007 	lbu	v0,7(a0)
8000665c:	a0620007 	sb	v0,7(v1)
80006660:	90820008 	lbu	v0,8(a0)
80006664:	a0620008 	sb	v0,8(v1)
80006668:	8c82000c 	lw	v0,12(a0)
8000666c:	3c03a000 	lui	v1,0xa000
80006670:	00451025 	or	v0,v0,a1
80006674:	00431025 	or	v0,v0,v1
80006678:	ac460000 	sw	a2,0(v0)
8000667c:	03e00008 	jr	ra
80006680:	00001021 	move	v0,zero
	...

80006690 <osInvalICache>:
80006690:	18a00011 00000000 240b4000 00ab082b     ........$.@....+
800066a0:	1020000f 00000000 00804021 00854821     . ........@!..H!
800066b0:	0109082b 10200008 00000000 2529ffe0     ...+. ......%)..
800066c0:	310a001f 010a4023 bd100000 0109082b     1.....@#.......+
800066d0:	1420fffd 25080020 03e00008 00000000     . ..%.. ........
800066e0:	3c088000 010b4821 2529ffe0 bd000000     <.....H!%)......
800066f0:	0109082b 1420fffd 25080020 03e00008     ...+. ..%.. ....
	...

80006710 <bcopy>:
80006710:	10c0001b 00a03821 10850019 00000000     ......8!........
80006720:	00a4082a 14200007 00000000 00861020     ...*. ......... 
80006730:	00a2082a 10200003 00000000 1000005c     ...*. .........\
80006740:	00000000                                ....

80006744 <goforwards>:
80006744:	28c10010 14200005 00000000 30820003     (.... ......0...
80006754:	30a30003 1043000b 00000000              0....C......

80006760 <forwards_bytecopy>:
80006760:	10c00007 00000000 00861821 80820000     ...........!....
80006770:	24840001 a0a20000 1483fffc 24a50001     $...........$...

80006780 <ret>:
80006780:	03e00008 00e01021                       .......!

80006788 <forwalignable>:
80006788:	1040001a 00000000 24010001 10410010     .@......$....A..
80006798:	00000000 24010002 10410007 00000000     ....$....A......
800067a8:	80820000 24840001 a0a20000 24a50001     ....$.......$...
800067b8:	1000000e 24c6ffff                       ....$...

800067c0 <forw_copy2>:
800067c0:	84820000 24840002 a4a20000 24a50002     ....$.......$...
800067d0:	10000008 24c6fffe                       ....$...

800067d8 <forw_copy3>:
800067d8:	80820000 84830001 24840003 a0a20000     ........$.......
800067e8:	a4a30001 24a50003 24c6fffd              ....$...$...

800067f4 <forwards>:
800067f4:	28c10020 14200015 00000000 8c820000     (.. . ..........
80006804:	8c830004 8c880008 8c89000c 8c8a0010     ................
80006814:	8c8b0014 8c8c0018 8c8d001c 24840020     ............$.. 
80006824:	aca20000 aca30004 aca80008 aca9000c     ................
80006834:	acaa0010 acab0014 acac0018 acad001c     ................
80006844:	24a50020 1000ffea 24c6ffe0              $.. ....$...

80006850 <forwards_16>:
80006850:	28c10010 1420000d 00000000 8c820000     (.... ..........
80006860:	8c830004 8c880008 8c89000c 24840010     ............$...
80006870:	aca20000 aca30004 aca80008 aca9000c     ................
80006880:	24a50010 1000fff2 24c6fff0              $.......$...

8000688c <forwards_4>:
8000688c:	28c10004 1420ffb3 00000000 8c820000     (.... ..........
8000689c:	24840004 aca20000 24a50004 1000fff8     $.......$.......
800068ac:	24c6fffc                                $...

800068b0 <gobackwards>:
800068b0:	00862020 00a62820 28c10010 14200005     ..  ..( (.... ..
800068c0:	00000000 30820003 30a30003 1043000d     ....0...0....C..
800068d0:	00000000                                ....

800068d4 <backwards_bytecopy>:
800068d4:	10c0ffaa 00000000 2484ffff 24a5ffff     ........$...$...
800068e4:	00861823 80820000 2484ffff a0a20000     ...#....$.......
800068f4:	1483fffc 24a5ffff 03e00008 00e01021     ....$..........!

80006904 <backalignable>:
80006904:	1040001a 00000000 24010003 10410010     .@......$....A..
80006914:	00000000 24010002 10410007 00000000     ....$....A......
80006924:	8082ffff 2484ffff a0a2ffff 24a5ffff     ....$.......$...
80006934:	1000000e 24c6ffff                       ....$...

8000693c <back_copy2>:
8000693c:	8482fffe 2484fffe a4a2fffe 24a5fffe     ....$.......$...
8000694c:	10000008 24c6fffe                       ....$...

80006954 <back_copy3>:
80006954:	8082ffff 8483fffd 2484fffd a0a2ffff     ........$.......
80006964:	a4a3fffd 24a5fffd 24c6fffd              ....$...$...

80006970 <backwards>:
80006970:	28c10020 14200015 00000000 8c82fffc     (.. . ..........
80006980:	8c83fff8 8c88fff4 8c89fff0 8c8affec     ................
80006990:	8c8bffe8 8c8cffe4 8c8dffe0 2484ffe0     ............$...
800069a0:	aca2fffc aca3fff8 aca8fff4 aca9fff0     ................
800069b0:	acaaffec acabffe8 acacffe4 acadffe0     ................
800069c0:	24a5ffe0 1000ffea 24c6ffe0              $.......$...

800069cc <backwards_16>:
800069cc:	28c10010 1420000d 00000000 8c82fffc     (.... ..........
800069dc:	8c83fff8 8c88fff4 8c89fff0 2484fff0     ............$...
800069ec:	aca2fffc aca3fff8 aca8fff4 aca9fff0     ................
800069fc:	24a5fff0 1000fff2 24c6fff0              $.......$...

80006a08 <backwards_4>:
80006a08:	28c10004 1420ffb1 00000000 8c82fffc     (.... ..........
80006a18:	2484fffc aca2fffc 24a5fffc 1000fff8     $.......$.......
80006a28:	24c6fffc 00000000                       $.......

80006a30 <strchr>:
80006a30:	90830000 	lbu	v1,0(a0)
80006a34:	80820000 	lb	v0,0(a0)
80006a38:	00052e00 	sll	a1,a1,0x18
80006a3c:	00052e03 	sra	a1,a1,0x18
80006a40:	10450008 	beq	v0,a1,80006a64 <strchr+0x34>
80006a44:	27bdfff0 	addiu	sp,sp,-16
80006a48:	14600003 	bnez	v1,80006a58 <strchr+0x28>
80006a4c:	24840001 	addiu	a0,a0,1
80006a50:	08001a9a 	j	80006a68 <strchr+0x38>
80006a54:	00001021 	move	v0,zero
80006a58:	80820000 	lb	v0,0(a0)
80006a5c:	1445fffa 	bne	v0,a1,80006a48 <strchr+0x18>
80006a60:	90830000 	lbu	v1,0(a0)
80006a64:	00801021 	move	v0,a0
80006a68:	03e00008 	jr	ra
80006a6c:	27bd0010 	addiu	sp,sp,16

80006a70 <strlen>:
80006a70:	80820000 	lb	v0,0(a0)
80006a74:	10400005 	beqz	v0,80006a8c <strlen+0x1c>
80006a78:	00801821 	move	v1,a0
80006a7c:	24630001 	addiu	v1,v1,1
80006a80:	80620000 	lb	v0,0(v1)
80006a84:	5440fffe 	bnezl	v0,80006a80 <strlen+0x10>
80006a88:	24630001 	addiu	v1,v1,1
80006a8c:	03e00008 	jr	ra
80006a90:	00641023 	subu	v0,v1,a0

80006a94 <memcpy>:
80006a94:	10c00007 	beqz	a2,80006ab4 <memcpy+0x20>
80006a98:	00801821 	move	v1,a0
80006a9c:	90a20000 	lbu	v0,0(a1)
80006aa0:	24a50001 	addiu	a1,a1,1
80006aa4:	24c6ffff 	addiu	a2,a2,-1
80006aa8:	a0620000 	sb	v0,0(v1)
80006aac:	14c0fffb 	bnez	a2,80006a9c <memcpy+0x8>
80006ab0:	24630001 	addiu	v1,v1,1
80006ab4:	03e00008 	jr	ra
80006ab8:	00801021 	move	v0,a0
80006abc:	00000000 	nop

80006ac0 <_Printf>:
80006ac0:	27bdff50 	addiu	sp,sp,-176
80006ac4:	afb400a0 	sw	s4,160(sp)
80006ac8:	0080a021 	move	s4,a0
80006acc:	afb3009c 	sw	s3,156(sp)
80006ad0:	00a09821 	move	s3,a1
80006ad4:	00c02821 	move	a1,a2
80006ad8:	afb500a4 	sw	s5,164(sp)
80006adc:	3c158001 	lui	s5,0x8001
80006ae0:	26b5d980 	addiu	s5,s5,-9856
80006ae4:	afbf00a8 	sw	ra,168(sp)
80006ae8:	afb20098 	sw	s2,152(sp)
80006aec:	afb10094 	sw	s1,148(sp)
80006af0:	afb00090 	sw	s0,144(sp)
80006af4:	afa700bc 	sw	a3,188(sp)
80006af8:	afa0003c 	sw	zero,60(sp)
80006afc:	80a20000 	lb	v0,0(a1)
80006b00:	90b10000 	lbu	s1,0(a1)
80006b04:	08001ac5 	j	80006b14 <_Printf+0x54>
80006b08:	00a09021 	move	s2,a1
80006b0c:	82420000 	lb	v0,0(s2)
80006b10:	92510000 	lbu	s1,0(s2)
80006b14:	0002182b 	sltu	v1,zero,v0
80006b18:	38420025 	xori	v0,v0,0x25
80006b1c:	0002102b 	sltu	v0,zero,v0
80006b20:	00621824 	and	v1,v1,v0
80006b24:	5460fff9 	bnezl	v1,80006b0c <_Printf+0x4c>
80006b28:	26520001 	addiu	s2,s2,1
80006b2c:	02458023 	subu	s0,s2,a1
80006b30:	1a000009 	blez	s0,80006b58 <_Printf+0x98>
80006b34:	02602021 	move	a0,s3
80006b38:	0280f809 	jalr	s4
80006b3c:	02003021 	move	a2,s0
80006b40:	00409821 	move	s3,v0
80006b44:	12600134 	beqz	s3,80007018 <_Printf+0x558>
80006b48:	00000000 	nop
80006b4c:	8fa2003c 	lw	v0,60(sp)
80006b50:	00501021 	addu	v0,v0,s0
80006b54:	afa2003c 	sw	v0,60(sp)
80006b58:	1220012f 	beqz	s1,80007018 <_Printf+0x558>
80006b5c:	26520001 	addiu	s2,s2,1
80006b60:	afa00040 	sw	zero,64(sp)
80006b64:	3c108001 	lui	s0,0x8001
80006b68:	2610d988 	addiu	s0,s0,-9848
80006b6c:	82450000 	lb	a1,0(s2)
80006b70:	0c001a8c 	jal	80006a30 <strchr>
80006b74:	02a02021 	move	a0,s5
80006b78:	10400009 	beqz	v0,80006ba0 <_Printf+0xe0>
80006b7c:	00551023 	subu	v0,v0,s5
80006b80:	00021080 	sll	v0,v0,0x2
80006b84:	00501021 	addu	v0,v0,s0
80006b88:	8fa30040 	lw	v1,64(sp)
80006b8c:	8c420000 	lw	v0,0(v0)
80006b90:	26520001 	addiu	s2,s2,1
80006b94:	00621825 	or	v1,v1,v0
80006b98:	08001adb 	j	80006b6c <_Printf+0xac>
80006b9c:	afa30040 	sw	v1,64(sp)
80006ba0:	82430000 	lb	v1,0(s2)
80006ba4:	2402002a 	li	v0,42
80006ba8:	14620011 	bne	v1,v0,80006bf0 <_Printf+0x130>
80006bac:	00602021 	move	a0,v1
80006bb0:	8fa200bc 	lw	v0,188(sp)
80006bb4:	2403fffc 	li	v1,-4
80006bb8:	24420003 	addiu	v0,v0,3
80006bbc:	00431024 	and	v0,v0,v1
80006bc0:	24430004 	addiu	v1,v0,4
80006bc4:	afa300bc 	sw	v1,188(sp)
80006bc8:	8c420000 	lw	v0,0(v0)
80006bcc:	04410006 	bgez	v0,80006be8 <_Printf+0x128>
80006bd0:	afa20038 	sw	v0,56(sp)
80006bd4:	8fa30040 	lw	v1,64(sp)
80006bd8:	00021023 	negu	v0,v0
80006bdc:	afa20038 	sw	v0,56(sp)
80006be0:	34630004 	ori	v1,v1,0x4
80006be4:	afa30040 	sw	v1,64(sp)
80006be8:	08001b12 	j	80006c48 <_Printf+0x188>
80006bec:	26520001 	addiu	s2,s2,1
80006bf0:	2482ffd0 	addiu	v0,a0,-48
80006bf4:	304200ff 	andi	v0,v0,0xff
80006bf8:	2c42000a 	sltiu	v0,v0,10
80006bfc:	10400012 	beqz	v0,80006c48 <_Printf+0x188>
80006c00:	afa00038 	sw	zero,56(sp)
80006c04:	8fa40038 	lw	a0,56(sp)
80006c08:	288203e7 	slti	v0,a0,999
80006c0c:	50400009 	beqzl	v0,80006c34 <_Printf+0x174>
80006c10:	26520001 	addiu	s2,s2,1
80006c14:	00041080 	sll	v0,a0,0x2
80006c18:	82430000 	lb	v1,0(s2)
80006c1c:	00441021 	addu	v0,v0,a0
80006c20:	00021040 	sll	v0,v0,0x1
80006c24:	00431021 	addu	v0,v0,v1
80006c28:	2442ffd0 	addiu	v0,v0,-48
80006c2c:	afa20038 	sw	v0,56(sp)
80006c30:	26520001 	addiu	s2,s2,1
80006c34:	92420000 	lbu	v0,0(s2)
80006c38:	2442ffd0 	addiu	v0,v0,-48
80006c3c:	2c42000a 	sltiu	v0,v0,10
80006c40:	1440fff0 	bnez	v0,80006c04 <_Printf+0x144>
80006c44:	00000000 	nop
80006c48:	82430000 	lb	v1,0(s2)
80006c4c:	2402002e 	li	v0,46
80006c50:	10620003 	beq	v1,v0,80006c60 <_Printf+0x1a0>
80006c54:	2402ffff 	li	v0,-1
80006c58:	08001b3d 	j	80006cf4 <_Printf+0x234>
80006c5c:	afa20034 	sw	v0,52(sp)
80006c60:	26520001 	addiu	s2,s2,1
80006c64:	82430000 	lb	v1,0(s2)
80006c68:	2402002a 	li	v0,42
80006c6c:	1462000b 	bne	v1,v0,80006c9c <_Printf+0x1dc>
80006c70:	00602021 	move	a0,v1
80006c74:	8fa300bc 	lw	v1,188(sp)
80006c78:	2402fffc 	li	v0,-4
80006c7c:	24630003 	addiu	v1,v1,3
80006c80:	00621824 	and	v1,v1,v0
80006c84:	24620004 	addiu	v0,v1,4
80006c88:	afa200bc 	sw	v0,188(sp)
80006c8c:	8c620000 	lw	v0,0(v1)
80006c90:	26520001 	addiu	s2,s2,1
80006c94:	08001b3d 	j	80006cf4 <_Printf+0x234>
80006c98:	afa20034 	sw	v0,52(sp)
80006c9c:	2482ffd0 	addiu	v0,a0,-48
80006ca0:	304200ff 	andi	v0,v0,0xff
80006ca4:	2c42000a 	sltiu	v0,v0,10
80006ca8:	10400012 	beqz	v0,80006cf4 <_Printf+0x234>
80006cac:	afa00034 	sw	zero,52(sp)
80006cb0:	8fa40034 	lw	a0,52(sp)
80006cb4:	288203e7 	slti	v0,a0,999
80006cb8:	50400009 	beqzl	v0,80006ce0 <_Printf+0x220>
80006cbc:	26520001 	addiu	s2,s2,1
80006cc0:	00041080 	sll	v0,a0,0x2
80006cc4:	82430000 	lb	v1,0(s2)
80006cc8:	00441021 	addu	v0,v0,a0
80006ccc:	00021040 	sll	v0,v0,0x1
80006cd0:	00431021 	addu	v0,v0,v1
80006cd4:	2442ffd0 	addiu	v0,v0,-48
80006cd8:	afa20034 	sw	v0,52(sp)
80006cdc:	26520001 	addiu	s2,s2,1
80006ce0:	92420000 	lbu	v0,0(s2)
80006ce4:	2442ffd0 	addiu	v0,v0,-48
80006ce8:	2c42000a 	sltiu	v0,v0,10
80006cec:	1440fff0 	bnez	v0,80006cb0 <_Printf+0x1f0>
80006cf0:	00000000 	nop
80006cf4:	82450000 	lb	a1,0(s2)
80006cf8:	3c048001 	lui	a0,0x8001
80006cfc:	2484d9a0 	addiu	a0,a0,-9824
80006d00:	0c001a8c 	jal	80006a30 <strchr>
80006d04:	00a08021 	move	s0,a1
80006d08:	10400003 	beqz	v0,80006d18 <_Printf+0x258>
80006d0c:	02001021 	move	v0,s0
80006d10:	08001b47 	j	80006d1c <_Printf+0x25c>
80006d14:	26520001 	addiu	s2,s2,1
80006d18:	00001021 	move	v0,zero
80006d1c:	a3a20044 	sb	v0,68(sp)
80006d20:	00021600 	sll	v0,v0,0x18
80006d24:	00021e03 	sra	v1,v0,0x18
80006d28:	2402006c 	li	v0,108
80006d2c:	14620007 	bne	v1,v0,80006d4c <_Printf+0x28c>
80006d30:	27a40010 	addiu	a0,sp,16
80006d34:	82420000 	lb	v0,0(s2)
80006d38:	14430004 	bne	v0,v1,80006d4c <_Printf+0x28c>
80006d3c:	2402004c 	li	v0,76
80006d40:	a3a20044 	sb	v0,68(sp)
80006d44:	26520001 	addiu	s2,s2,1
80006d48:	27a40010 	addiu	a0,sp,16
80006d4c:	82460000 	lb	a2,0(s2)
80006d50:	27a500bc 	addiu	a1,sp,188
80006d54:	0c001c10 	jal	80007040 <_Putfld>
80006d58:	27a70048 	addiu	a3,sp,72
80006d5c:	8fa3001c 	lw	v1,28(sp)
80006d60:	8fa20020 	lw	v0,32(sp)
80006d64:	00621821 	addu	v1,v1,v0
80006d68:	8fa20024 	lw	v0,36(sp)
80006d6c:	8fa40028 	lw	a0,40(sp)
80006d70:	8fa5002c 	lw	a1,44(sp)
80006d74:	00621821 	addu	v1,v1,v0
80006d78:	00641821 	addu	v1,v1,a0
80006d7c:	00651821 	addu	v1,v1,a1
80006d80:	8fa40030 	lw	a0,48(sp)
80006d84:	8fa50038 	lw	a1,56(sp)
80006d88:	8fa20040 	lw	v0,64(sp)
80006d8c:	00641821 	addu	v1,v1,a0
80006d90:	00a32823 	subu	a1,a1,v1
80006d94:	30420004 	andi	v0,v0,0x4
80006d98:	14400017 	bnez	v0,80006df8 <_Printf+0x338>
80006d9c:	afa50038 	sw	a1,56(sp)
80006da0:	18a00015 	blez	a1,80006df8 <_Printf+0x338>
80006da4:	00000000 	nop
80006da8:	00a08821 	move	s1,a1
80006dac:	2e220021 	sltiu	v0,s1,33
80006db0:	10400002 	beqz	v0,80006dbc <_Printf+0x2fc>
80006db4:	24100020 	li	s0,32
80006db8:	02208021 	move	s0,s1
80006dbc:	5a00000c 	blezl	s0,80006df0 <_Printf+0x330>
80006dc0:	02308823 	subu	s1,s1,s0
80006dc4:	02602021 	move	a0,s3
80006dc8:	3c058001 	lui	a1,0x8001
80006dcc:	24a5d250 	addiu	a1,a1,-11696
80006dd0:	0280f809 	jalr	s4
80006dd4:	02003021 	move	a2,s0
80006dd8:	00409821 	move	s3,v0
80006ddc:	1260008e 	beqz	s3,80007018 <_Printf+0x558>
80006de0:	02308823 	subu	s1,s1,s0
80006de4:	8fa2003c 	lw	v0,60(sp)
80006de8:	00501021 	addu	v0,v0,s0
80006dec:	afa2003c 	sw	v0,60(sp)
80006df0:	1e20ffef 	bgtz	s1,80006db0 <_Printf+0x2f0>
80006df4:	2e220021 	sltiu	v0,s1,33
80006df8:	8fa6001c 	lw	a2,28(sp)
80006dfc:	18c0000a 	blez	a2,80006e28 <_Printf+0x368>
80006e00:	02602021 	move	a0,s3
80006e04:	0280f809 	jalr	s4
80006e08:	27a50048 	addiu	a1,sp,72
80006e0c:	00409821 	move	s3,v0
80006e10:	12600081 	beqz	s3,80007018 <_Printf+0x558>
80006e14:	00000000 	nop
80006e18:	8fa2003c 	lw	v0,60(sp)
80006e1c:	8fa3001c 	lw	v1,28(sp)
80006e20:	00431021 	addu	v0,v0,v1
80006e24:	afa2003c 	sw	v0,60(sp)
80006e28:	8fa20020 	lw	v0,32(sp)
80006e2c:	18400015 	blez	v0,80006e84 <_Printf+0x3c4>
80006e30:	00000000 	nop
80006e34:	00408821 	move	s1,v0
80006e38:	2e220021 	sltiu	v0,s1,33
80006e3c:	10400002 	beqz	v0,80006e48 <_Printf+0x388>
80006e40:	24100020 	li	s0,32
80006e44:	02208021 	move	s0,s1
80006e48:	5a00000c 	blezl	s0,80006e7c <_Printf+0x3bc>
80006e4c:	02308823 	subu	s1,s1,s0
80006e50:	02602021 	move	a0,s3
80006e54:	3c058001 	lui	a1,0x8001
80006e58:	24a5d274 	addiu	a1,a1,-11660
80006e5c:	0280f809 	jalr	s4
80006e60:	02003021 	move	a2,s0
80006e64:	00409821 	move	s3,v0
80006e68:	1260006b 	beqz	s3,80007018 <_Printf+0x558>
80006e6c:	02308823 	subu	s1,s1,s0
80006e70:	8fa2003c 	lw	v0,60(sp)
80006e74:	00501021 	addu	v0,v0,s0
80006e78:	afa2003c 	sw	v0,60(sp)
80006e7c:	1e20ffef 	bgtz	s1,80006e3c <_Printf+0x37c>
80006e80:	2e220021 	sltiu	v0,s1,33
80006e84:	8fa60024 	lw	a2,36(sp)
80006e88:	18c0000b 	blez	a2,80006eb8 <_Printf+0x3f8>
80006e8c:	00000000 	nop
80006e90:	8fa50018 	lw	a1,24(sp)
80006e94:	0280f809 	jalr	s4
80006e98:	02602021 	move	a0,s3
80006e9c:	00409821 	move	s3,v0
80006ea0:	1260005d 	beqz	s3,80007018 <_Printf+0x558>
80006ea4:	00000000 	nop
80006ea8:	8fa2003c 	lw	v0,60(sp)
80006eac:	8fa30024 	lw	v1,36(sp)
80006eb0:	00431021 	addu	v0,v0,v1
80006eb4:	afa2003c 	sw	v0,60(sp)
80006eb8:	8fa20028 	lw	v0,40(sp)
80006ebc:	18400015 	blez	v0,80006f14 <_Printf+0x454>
80006ec0:	00000000 	nop
80006ec4:	00408821 	move	s1,v0
80006ec8:	2e220021 	sltiu	v0,s1,33
80006ecc:	10400002 	beqz	v0,80006ed8 <_Printf+0x418>
80006ed0:	24100020 	li	s0,32
80006ed4:	02208021 	move	s0,s1
80006ed8:	5a00000c 	blezl	s0,80006f0c <_Printf+0x44c>
80006edc:	02308823 	subu	s1,s1,s0
80006ee0:	02602021 	move	a0,s3
80006ee4:	3c058001 	lui	a1,0x8001
80006ee8:	24a5d274 	addiu	a1,a1,-11660
80006eec:	0280f809 	jalr	s4
80006ef0:	02003021 	move	a2,s0
80006ef4:	00409821 	move	s3,v0
80006ef8:	12600047 	beqz	s3,80007018 <_Printf+0x558>
80006efc:	02308823 	subu	s1,s1,s0
80006f00:	8fa2003c 	lw	v0,60(sp)
80006f04:	00501021 	addu	v0,v0,s0
80006f08:	afa2003c 	sw	v0,60(sp)
80006f0c:	1e20ffef 	bgtz	s1,80006ecc <_Printf+0x40c>
80006f10:	2e220021 	sltiu	v0,s1,33
80006f14:	8fa6002c 	lw	a2,44(sp)
80006f18:	18c0000c 	blez	a2,80006f4c <_Printf+0x48c>
80006f1c:	02602021 	move	a0,s3
80006f20:	8fa20018 	lw	v0,24(sp)
80006f24:	8fa50024 	lw	a1,36(sp)
80006f28:	0280f809 	jalr	s4
80006f2c:	00452821 	addu	a1,v0,a1
80006f30:	00409821 	move	s3,v0
80006f34:	12600038 	beqz	s3,80007018 <_Printf+0x558>
80006f38:	00000000 	nop
80006f3c:	8fa2003c 	lw	v0,60(sp)
80006f40:	8fa3002c 	lw	v1,44(sp)
80006f44:	00431021 	addu	v0,v0,v1
80006f48:	afa2003c 	sw	v0,60(sp)
80006f4c:	8fa20030 	lw	v0,48(sp)
80006f50:	18400015 	blez	v0,80006fa8 <_Printf+0x4e8>
80006f54:	00000000 	nop
80006f58:	00408821 	move	s1,v0
80006f5c:	2e220021 	sltiu	v0,s1,33
80006f60:	10400002 	beqz	v0,80006f6c <_Printf+0x4ac>
80006f64:	24100020 	li	s0,32
80006f68:	02208021 	move	s0,s1
80006f6c:	5a00000c 	blezl	s0,80006fa0 <_Printf+0x4e0>
80006f70:	02308823 	subu	s1,s1,s0
80006f74:	02602021 	move	a0,s3
80006f78:	3c058001 	lui	a1,0x8001
80006f7c:	24a5d274 	addiu	a1,a1,-11660
80006f80:	0280f809 	jalr	s4
80006f84:	02003021 	move	a2,s0
80006f88:	00409821 	move	s3,v0
80006f8c:	12600022 	beqz	s3,80007018 <_Printf+0x558>
80006f90:	02308823 	subu	s1,s1,s0
80006f94:	8fa2003c 	lw	v0,60(sp)
80006f98:	00501021 	addu	v0,v0,s0
80006f9c:	afa2003c 	sw	v0,60(sp)
80006fa0:	1e20ffef 	bgtz	s1,80006f60 <_Printf+0x4a0>
80006fa4:	2e220021 	sltiu	v0,s1,33
80006fa8:	8fa20040 	lw	v0,64(sp)
80006fac:	30420004 	andi	v0,v0,0x4
80006fb0:	1040fed2 	beqz	v0,80006afc <_Printf+0x3c>
80006fb4:	26450001 	addiu	a1,s2,1
80006fb8:	8fa20038 	lw	v0,56(sp)
80006fbc:	1840fecf 	blez	v0,80006afc <_Printf+0x3c>
80006fc0:	00408821 	move	s1,v0
80006fc4:	2e220021 	sltiu	v0,s1,33
80006fc8:	10400002 	beqz	v0,80006fd4 <_Printf+0x514>
80006fcc:	24100020 	li	s0,32
80006fd0:	02208021 	move	s0,s1
80006fd4:	5a00000c 	blezl	s0,80007008 <_Printf+0x548>
80006fd8:	02308823 	subu	s1,s1,s0
80006fdc:	02602021 	move	a0,s3
80006fe0:	3c058001 	lui	a1,0x8001
80006fe4:	24a5d250 	addiu	a1,a1,-11696
80006fe8:	0280f809 	jalr	s4
80006fec:	02003021 	move	a2,s0
80006ff0:	00409821 	move	s3,v0
80006ff4:	12600008 	beqz	s3,80007018 <_Printf+0x558>
80006ff8:	02308823 	subu	s1,s1,s0
80006ffc:	8fa2003c 	lw	v0,60(sp)
80007000:	00501021 	addu	v0,v0,s0
80007004:	afa2003c 	sw	v0,60(sp)
80007008:	1e20ffef 	bgtz	s1,80006fc8 <_Printf+0x508>
8000700c:	2e220021 	sltiu	v0,s1,33
80007010:	08001abf 	j	80006afc <_Printf+0x3c>
80007014:	26450001 	addiu	a1,s2,1
80007018:	8fa2003c 	lw	v0,60(sp)
8000701c:	8fbf00a8 	lw	ra,168(sp)
80007020:	8fb500a4 	lw	s5,164(sp)
80007024:	8fb400a0 	lw	s4,160(sp)
80007028:	8fb3009c 	lw	s3,156(sp)
8000702c:	8fb20098 	lw	s2,152(sp)
80007030:	8fb10094 	lw	s1,148(sp)
80007034:	8fb00090 	lw	s0,144(sp)
80007038:	03e00008 	jr	ra
8000703c:	27bd00b0 	addiu	sp,sp,176

80007040 <_Putfld>:
80007040:	27bdffe8 	addiu	sp,sp,-24
80007044:	afb00010 	sw	s0,16(sp)
80007048:	00808021 	move	s0,a0
8000704c:	00a04021 	move	t0,a1
80007050:	00e04821 	move	t1,a3
80007054:	00c03821 	move	a3,a2
80007058:	24c6ffdb 	addiu	a2,a2,-37
8000705c:	00063600 	sll	a2,a2,0x18
80007060:	00063603 	sra	a2,a2,0x18
80007064:	2cc20054 	sltiu	v0,a2,84
80007068:	afbf0014 	sw	ra,20(sp)
8000706c:	ae000020 	sw	zero,32(s0)
80007070:	ae00001c 	sw	zero,28(s0)
80007074:	ae000018 	sw	zero,24(s0)
80007078:	ae000014 	sw	zero,20(s0)
8000707c:	ae000010 	sw	zero,16(s0)
80007080:	1040011a 	beqz	v0,800074ec <_Putfld+0x4ac>
80007084:	ae00000c 	sw	zero,12(s0)
80007088:	00061080 	sll	v0,a2,0x2
8000708c:	3c018001 	lui	at,0x8001
80007090:	00220821 	addu	at,at,v0
80007094:	8c22d9a8 	lw	v0,-9816(at)
80007098:	00400008 	jr	v0
8000709c:	00000000 	nop
800070a0:	8e04000c 	lw	a0,12(s0)
800070a4:	24820001 	addiu	v0,a0,1
800070a8:	ae02000c 	sw	v0,12(s0)
800070ac:	8d020000 	lw	v0,0(t0)
800070b0:	2403fffc 	li	v1,-4
800070b4:	24420003 	addiu	v0,v0,3
800070b8:	00431024 	and	v0,v0,v1
800070bc:	24430004 	addiu	v1,v0,4
800070c0:	ad030000 	sw	v1,0(t0)
800070c4:	8c420000 	lw	v0,0(v0)
800070c8:	01242021 	addu	a0,t1,a0
800070cc:	08001d40 	j	80007500 <_Putfld+0x4c0>
800070d0:	a0820000 	sb	v0,0(a0)
800070d4:	82030034 	lb	v1,52(s0)
800070d8:	2402006c 	li	v0,108
800070dc:	1062000b 	beq	v1,v0,8000710c <_Putfld+0xcc>
800070e0:	2402004c 	li	v0,76
800070e4:	14620009 	bne	v1,v0,8000710c <_Putfld+0xcc>
800070e8:	2403fff8 	li	v1,-8
800070ec:	8d020000 	lw	v0,0(t0)
800070f0:	24420007 	addiu	v0,v0,7
800070f4:	00431024 	and	v0,v0,v1
800070f8:	24430008 	addiu	v1,v0,8
800070fc:	ad030000 	sw	v1,0(t0)
80007100:	8c430004 	lw	v1,4(v0)
80007104:	08001c4c 	j	80007130 <_Putfld+0xf0>
80007108:	8c420000 	lw	v0,0(v0)
8000710c:	8d020000 	lw	v0,0(t0)
80007110:	2403fffc 	li	v1,-4
80007114:	24420003 	addiu	v0,v0,3
80007118:	00431024 	and	v0,v0,v1
8000711c:	24430004 	addiu	v1,v0,4
80007120:	ad030000 	sw	v1,0(t0)
80007124:	8c420000 	lw	v0,0(v0)
80007128:	00401821 	move	v1,v0
8000712c:	000217c3 	sra	v0,v0,0x1f
80007130:	ae020000 	sw	v0,0(s0)
80007134:	ae030004 	sw	v1,4(s0)
80007138:	82030034 	lb	v1,52(s0)
8000713c:	24020068 	li	v0,104
80007140:	14620008 	bne	v1,v0,80007164 <_Putfld+0x124>
80007144:	00000000 	nop
80007148:	8e020000 	lw	v0,0(s0)
8000714c:	8e030004 	lw	v1,4(s0)
80007150:	00031400 	sll	v0,v1,0x10
80007154:	00022c03 	sra	a1,v0,0x10
80007158:	000227c3 	sra	a0,v0,0x1f
8000715c:	ae040000 	sw	a0,0(s0)
80007160:	ae050004 	sw	a1,4(s0)
80007164:	8e020000 	lw	v0,0(s0)
80007168:	04410007 	bgez	v0,80007188 <_Putfld+0x148>
8000716c:	00000000 	nop
80007170:	8e02000c 	lw	v0,12(s0)
80007174:	24430001 	addiu	v1,v0,1
80007178:	01221021 	addu	v0,t1,v0
8000717c:	ae03000c 	sw	v1,12(s0)
80007180:	08001c73 	j	800071cc <_Putfld+0x18c>
80007184:	2403002d 	li	v1,45
80007188:	8e030030 	lw	v1,48(s0)
8000718c:	30620002 	andi	v0,v1,0x2
80007190:	10400007 	beqz	v0,800071b0 <_Putfld+0x170>
80007194:	30620001 	andi	v0,v1,0x1
80007198:	8e02000c 	lw	v0,12(s0)
8000719c:	24430001 	addiu	v1,v0,1
800071a0:	01221021 	addu	v0,t1,v0
800071a4:	ae03000c 	sw	v1,12(s0)
800071a8:	08001c73 	j	800071cc <_Putfld+0x18c>
800071ac:	2403002b 	li	v1,43
800071b0:	10400046 	beqz	v0,800072cc <_Putfld+0x28c>
800071b4:	02002021 	move	a0,s0
800071b8:	8e02000c 	lw	v0,12(s0)
800071bc:	24430001 	addiu	v1,v0,1
800071c0:	01221021 	addu	v0,t1,v0
800071c4:	ae03000c 	sw	v1,12(s0)
800071c8:	24030020 	li	v1,32
800071cc:	08001cb2 	j	800072c8 <_Putfld+0x288>
800071d0:	a0430000 	sb	v1,0(v0)
800071d4:	82030034 	lb	v1,52(s0)
800071d8:	2402006c 	li	v0,108
800071dc:	1062000b 	beq	v1,v0,8000720c <_Putfld+0x1cc>
800071e0:	2402004c 	li	v0,76
800071e4:	14620009 	bne	v1,v0,8000720c <_Putfld+0x1cc>
800071e8:	2403fff8 	li	v1,-8
800071ec:	8d020000 	lw	v0,0(t0)
800071f0:	24420007 	addiu	v0,v0,7
800071f4:	00431024 	and	v0,v0,v1
800071f8:	24430008 	addiu	v1,v0,8
800071fc:	ad030000 	sw	v1,0(t0)
80007200:	8c430004 	lw	v1,4(v0)
80007204:	08001c8c 	j	80007230 <_Putfld+0x1f0>
80007208:	8c420000 	lw	v0,0(v0)
8000720c:	8d020000 	lw	v0,0(t0)
80007210:	2403fffc 	li	v1,-4
80007214:	24420003 	addiu	v0,v0,3
80007218:	00431024 	and	v0,v0,v1
8000721c:	24430004 	addiu	v1,v0,4
80007220:	ad030000 	sw	v1,0(t0)
80007224:	8c420000 	lw	v0,0(v0)
80007228:	00401821 	move	v1,v0
8000722c:	000217c3 	sra	v0,v0,0x1f
80007230:	ae020000 	sw	v0,0(s0)
80007234:	ae030004 	sw	v1,4(s0)
80007238:	82030034 	lb	v1,52(s0)
8000723c:	24020068 	li	v0,104
80007240:	14620004 	bne	v1,v0,80007254 <_Putfld+0x214>
80007244:	00001021 	move	v0,zero
80007248:	96030006 	lhu	v1,6(s0)
8000724c:	08001c98 	j	80007260 <_Putfld+0x220>
80007250:	00000000 	nop
80007254:	14600004 	bnez	v1,80007268 <_Putfld+0x228>
80007258:	00000000 	nop
8000725c:	8e030004 	lw	v1,4(s0)
80007260:	ae020000 	sw	v0,0(s0)
80007264:	ae030004 	sw	v1,4(s0)
80007268:	8e020030 	lw	v0,48(s0)
8000726c:	30420008 	andi	v0,v0,0x8
80007270:	10400016 	beqz	v0,800072cc <_Putfld+0x28c>
80007274:	02002021 	move	a0,s0
80007278:	8e02000c 	lw	v0,12(s0)
8000727c:	24430001 	addiu	v1,v0,1
80007280:	01221021 	addu	v0,t1,v0
80007284:	ae03000c 	sw	v1,12(s0)
80007288:	24030030 	li	v1,48
8000728c:	a0430000 	sb	v1,0(v0)
80007290:	00071600 	sll	v0,a3,0x18
80007294:	00021603 	sra	v0,v0,0x18
80007298:	38430078 	xori	v1,v0,0x78
8000729c:	2c630001 	sltiu	v1,v1,1
800072a0:	38420058 	xori	v0,v0,0x58
800072a4:	2c420001 	sltiu	v0,v0,1
800072a8:	00621825 	or	v1,v1,v0
800072ac:	10600007 	beqz	v1,800072cc <_Putfld+0x28c>
800072b0:	00000000 	nop
800072b4:	8e02000c 	lw	v0,12(s0)
800072b8:	24430001 	addiu	v1,v0,1
800072bc:	01221021 	addu	v0,t1,v0
800072c0:	ae03000c 	sw	v1,12(s0)
800072c4:	a0470000 	sb	a3,0(v0)
800072c8:	02002021 	move	a0,s0
800072cc:	8c82000c 	lw	v0,12(a0)
800072d0:	00072e00 	sll	a1,a3,0x18
800072d4:	00052e03 	sra	a1,a1,0x18
800072d8:	01221021 	addu	v0,t1,v0
800072dc:	0c001f34 	jal	80007cd0 <_Litob>
800072e0:	ac820008 	sw	v0,8(a0)
800072e4:	08001d40 	j	80007500 <_Putfld+0x4c0>
800072e8:	00000000 	nop
800072ec:	8d020000 	lw	v0,0(t0)
800072f0:	2403fff8 	li	v1,-8
800072f4:	24420007 	addiu	v0,v0,7
800072f8:	00431024 	and	v0,v0,v1
800072fc:	24430008 	addiu	v1,v0,8
80007300:	ad030000 	sw	v1,0(t0)
80007304:	d4400000 	ldc1	$f0,0(v0)
80007308:	f6000000 	sdc1	$f0,0(s0)
8000730c:	96020000 	lhu	v0,0(s0)
80007310:	30428000 	andi	v0,v0,0x8000
80007314:	10400007 	beqz	v0,80007334 <_Putfld+0x2f4>
80007318:	00000000 	nop
8000731c:	8e02000c 	lw	v0,12(s0)
80007320:	24430001 	addiu	v1,v0,1
80007324:	01221021 	addu	v0,t1,v0
80007328:	ae03000c 	sw	v1,12(s0)
8000732c:	08001cde 	j	80007378 <_Putfld+0x338>
80007330:	2403002d 	li	v1,45
80007334:	8e030030 	lw	v1,48(s0)
80007338:	30620002 	andi	v0,v1,0x2
8000733c:	10400007 	beqz	v0,8000735c <_Putfld+0x31c>
80007340:	30620001 	andi	v0,v1,0x1
80007344:	8e02000c 	lw	v0,12(s0)
80007348:	24430001 	addiu	v1,v0,1
8000734c:	01221021 	addu	v0,t1,v0
80007350:	ae03000c 	sw	v1,12(s0)
80007354:	08001cde 	j	80007378 <_Putfld+0x338>
80007358:	2403002b 	li	v1,43
8000735c:	10400008 	beqz	v0,80007380 <_Putfld+0x340>
80007360:	02002021 	move	a0,s0
80007364:	8e02000c 	lw	v0,12(s0)
80007368:	24430001 	addiu	v1,v0,1
8000736c:	01221021 	addu	v0,t1,v0
80007370:	ae03000c 	sw	v1,12(s0)
80007374:	24030020 	li	v1,32
80007378:	a0430000 	sb	v1,0(v0)
8000737c:	02002021 	move	a0,s0
80007380:	8c82000c 	lw	v0,12(a0)
80007384:	00072e00 	sll	a1,a3,0x18
80007388:	00052e03 	sra	a1,a1,0x18
8000738c:	01221021 	addu	v0,t1,v0
80007390:	0c001fc8 	jal	80007f20 <_Ldtob>
80007394:	ac820008 	sw	v0,8(a0)
80007398:	08001d40 	j	80007500 <_Putfld+0x4c0>
8000739c:	00000000 	nop
800073a0:	82030034 	lb	v1,52(s0)
800073a4:	24020068 	li	v0,104
800073a8:	1462000b 	bne	v1,v0,800073d8 <_Putfld+0x398>
800073ac:	2402006c 	li	v0,108
800073b0:	8d020000 	lw	v0,0(t0)
800073b4:	2403fffc 	li	v1,-4
800073b8:	24420003 	addiu	v0,v0,3
800073bc:	00431024 	and	v0,v0,v1
800073c0:	24430004 	addiu	v1,v0,4
800073c4:	ad030000 	sw	v1,0(t0)
800073c8:	8c430000 	lw	v1,0(v0)
800073cc:	8e02002c 	lw	v0,44(s0)
800073d0:	08001d40 	j	80007500 <_Putfld+0x4c0>
800073d4:	a4620000 	sh	v0,0(v1)
800073d8:	1062000f 	beq	v1,v0,80007418 <_Putfld+0x3d8>
800073dc:	2402004c 	li	v0,76
800073e0:	1462000d 	bne	v1,v0,80007418 <_Putfld+0x3d8>
800073e4:	2402fffc 	li	v0,-4
800073e8:	8d040000 	lw	a0,0(t0)
800073ec:	24840003 	addiu	a0,a0,3
800073f0:	00822024 	and	a0,a0,v0
800073f4:	24820004 	addiu	v0,a0,4
800073f8:	ad020000 	sw	v0,0(t0)
800073fc:	8e02002c 	lw	v0,44(s0)
80007400:	8c840000 	lw	a0,0(a0)
80007404:	00401821 	move	v1,v0
80007408:	00001021 	move	v0,zero
8000740c:	ac820000 	sw	v0,0(a0)
80007410:	08001d40 	j	80007500 <_Putfld+0x4c0>
80007414:	ac830004 	sw	v1,4(a0)
80007418:	8d020000 	lw	v0,0(t0)
8000741c:	2403fffc 	li	v1,-4
80007420:	24420003 	addiu	v0,v0,3
80007424:	00431024 	and	v0,v0,v1
80007428:	24430004 	addiu	v1,v0,4
8000742c:	ad030000 	sw	v1,0(t0)
80007430:	8c430000 	lw	v1,0(v0)
80007434:	8e02002c 	lw	v0,44(s0)
80007438:	08001d40 	j	80007500 <_Putfld+0x4c0>
8000743c:	ac620000 	sw	v0,0(v1)
80007440:	8d040000 	lw	a0,0(t0)
80007444:	2405fffc 	li	a1,-4
80007448:	24840003 	addiu	a0,a0,3
8000744c:	00852024 	and	a0,a0,a1
80007450:	24850004 	addiu	a1,a0,4
80007454:	ad050000 	sw	a1,0(t0)
80007458:	8c870000 	lw	a3,0(a0)
8000745c:	02002021 	move	a0,s0
80007460:	24050078 	li	a1,120
80007464:	8c86000c 	lw	a2,12(a0)
80007468:	00e01821 	move	v1,a3
8000746c:	000717c3 	sra	v0,a3,0x1f
80007470:	01263021 	addu	a2,t1,a2
80007474:	ac820000 	sw	v0,0(a0)
80007478:	ac830004 	sw	v1,4(a0)
8000747c:	0c001f34 	jal	80007cd0 <_Litob>
80007480:	ac860008 	sw	a2,8(a0)
80007484:	08001d40 	j	80007500 <_Putfld+0x4c0>
80007488:	00000000 	nop
8000748c:	8d020000 	lw	v0,0(t0)
80007490:	2403fffc 	li	v1,-4
80007494:	24420003 	addiu	v0,v0,3
80007498:	00431024 	and	v0,v0,v1
8000749c:	24430004 	addiu	v1,v0,4
800074a0:	ad030000 	sw	v1,0(t0)
800074a4:	8c440000 	lw	a0,0(v0)
800074a8:	0c001a9c 	jal	80006a70 <strlen>
800074ac:	ae040008 	sw	a0,8(s0)
800074b0:	8e030024 	lw	v1,36(s0)
800074b4:	04600012 	bltz	v1,80007500 <_Putfld+0x4c0>
800074b8:	ae020014 	sw	v0,20(s0)
800074bc:	0062102a 	slt	v0,v1,v0
800074c0:	5440000f 	bnezl	v0,80007500 <_Putfld+0x4c0>
800074c4:	ae030014 	sw	v1,20(s0)
800074c8:	08001d40 	j	80007500 <_Putfld+0x4c0>
800074cc:	00000000 	nop
800074d0:	8e02000c 	lw	v0,12(s0)
800074d4:	24430001 	addiu	v1,v0,1
800074d8:	01221021 	addu	v0,t1,v0
800074dc:	ae03000c 	sw	v1,12(s0)
800074e0:	24030025 	li	v1,37
800074e4:	08001d40 	j	80007500 <_Putfld+0x4c0>
800074e8:	a0430000 	sb	v1,0(v0)
800074ec:	8e02000c 	lw	v0,12(s0)
800074f0:	24430001 	addiu	v1,v0,1
800074f4:	01221021 	addu	v0,t1,v0
800074f8:	ae03000c 	sw	v1,12(s0)
800074fc:	a0470000 	sb	a3,0(v0)
80007500:	8fbf0014 	lw	ra,20(sp)
80007504:	8fb00010 	lw	s0,16(sp)
80007508:	03e00008 	jr	ra
8000750c:	27bd0018 	addiu	sp,sp,24

80007510 <__osGetCause>:
80007510:	40026800 03e00008 00000000 00000000     @.h.............

80007520 <osGetCount>:
80007520:	40024800 03e00008 00000000 00000000     @.H.............

80007530 <__osGetSR>:
80007530:	40026000 03e00008 00000000 00000000     @.`.............

80007540 <__osSetFpcCsr>:
80007540:	4442f800 44c4f800 03e00008 00000000     DB..D...........

80007550 <__osSetSR>:
80007550:	40846000 00000000 03e00008 00000000     @.`.............

80007560 <__osSetWatchLo>:
80007560:	40849000 00000000 03e00008 00000000     @...............

80007570 <__osSpDeviceBusy>:
80007570:	3c02a404 	lui	v0,0xa404
80007574:	34420010 	ori	v0,v0,0x10
80007578:	8c420000 	lw	v0,0(v0)
8000757c:	3042001c 	andi	v0,v0,0x1c
80007580:	03e00008 	jr	ra
80007584:	0002102b 	sltu	v0,zero,v0
	...

80007590 <__osSpSetStatus>:
80007590:	3c02a404 	lui	v0,0xa404
80007594:	34420010 	ori	v0,v0,0x10
80007598:	03e00008 	jr	ra
8000759c:	ac440000 	sw	a0,0(v0)

800075a0 <__osSpSetPc>:
800075a0:	3c02a404 	lui	v0,0xa404
800075a4:	34420010 	ori	v0,v0,0x10
800075a8:	8c420000 	lw	v0,0(v0)
800075ac:	30420001 	andi	v0,v0,0x1
800075b0:	10400004 	beqz	v0,800075c4 <__osSpSetPc+0x24>
800075b4:	3c02a408 	lui	v0,0xa408
800075b8:	ac440000 	sw	a0,0(v0)
800075bc:	08001d72 	j	800075c8 <__osSpSetPc+0x28>
800075c0:	00001021 	move	v0,zero
800075c4:	2402ffff 	li	v0,-1
800075c8:	03e00008 	jr	ra
800075cc:	00000000 	nop

800075d0 <__osSpRawStartDma>:
800075d0:	27bdffd8 	addiu	sp,sp,-40
800075d4:	afb20018 	sw	s2,24(sp)
800075d8:	00809021 	move	s2,a0
800075dc:	afb00010 	sw	s0,16(sp)
800075e0:	00a08021 	move	s0,a1
800075e4:	afb10014 	sw	s1,20(sp)
800075e8:	00c08821 	move	s1,a2
800075ec:	afb3001c 	sw	s3,28(sp)
800075f0:	afbf0020 	sw	ra,32(sp)
800075f4:	0c001d5c 	jal	80007570 <__osSpDeviceBusy>
800075f8:	00e09821 	move	s3,a3
800075fc:	14400010 	bnez	v0,80007640 <__osSpRawStartDma+0x70>
80007600:	2402ffff 	li	v0,-1
80007604:	3c02a404 	lui	v0,0xa404
80007608:	02202021 	move	a0,s1
8000760c:	0c0006b8 	jal	80001ae0 <osVirtualToPhysical>
80007610:	ac500000 	sw	s0,0(v0)
80007614:	3c03a404 	lui	v1,0xa404
80007618:	34630004 	ori	v1,v1,0x4
8000761c:	ac620000 	sw	v0,0(v1)
80007620:	16400003 	bnez	s2,80007630 <__osSpRawStartDma+0x60>
80007624:	3c03a404 	lui	v1,0xa404
80007628:	08001d8d 	j	80007634 <__osSpRawStartDma+0x64>
8000762c:	3463000c 	ori	v1,v1,0xc
80007630:	34630008 	ori	v1,v1,0x8
80007634:	2662ffff 	addiu	v0,s3,-1
80007638:	ac620000 	sw	v0,0(v1)
8000763c:	00001021 	move	v0,zero
80007640:	8fbf0020 	lw	ra,32(sp)
80007644:	8fb3001c 	lw	s3,28(sp)
80007648:	8fb20018 	lw	s2,24(sp)
8000764c:	8fb10014 	lw	s1,20(sp)
80007650:	8fb00010 	lw	s0,16(sp)
80007654:	03e00008 	jr	ra
80007658:	27bd0028 	addiu	sp,sp,40
8000765c:	00000000 	nop

80007660 <__osSiRawReadIo>:
80007660:	27bdffe0 	addiu	sp,sp,-32
80007664:	afb00010 	sw	s0,16(sp)
80007668:	00808021 	move	s0,a0
8000766c:	afb10014 	sw	s1,20(sp)
80007670:	afbf0018 	sw	ra,24(sp)
80007674:	0c002270 	jal	800089c0 <__osSiDeviceBusy>
80007678:	00a08821 	move	s1,a1
8000767c:	14400006 	bnez	v0,80007698 <__osSiRawReadIo+0x38>
80007680:	2402ffff 	li	v0,-1
80007684:	3c02a000 	lui	v0,0xa000
80007688:	02021025 	or	v0,s0,v0
8000768c:	8c430000 	lw	v1,0(v0)
80007690:	00001021 	move	v0,zero
80007694:	ae230000 	sw	v1,0(s1)
80007698:	8fbf0018 	lw	ra,24(sp)
8000769c:	8fb10014 	lw	s1,20(sp)
800076a0:	8fb00010 	lw	s0,16(sp)
800076a4:	03e00008 	jr	ra
800076a8:	27bd0020 	addiu	sp,sp,32
800076ac:	00000000 	nop

800076b0 <__osSiRawWriteIo>:
800076b0:	27bdffe0 	addiu	sp,sp,-32
800076b4:	afb00010 	sw	s0,16(sp)
800076b8:	00808021 	move	s0,a0
800076bc:	afb10014 	sw	s1,20(sp)
800076c0:	afbf0018 	sw	ra,24(sp)
800076c4:	0c002270 	jal	800089c0 <__osSiDeviceBusy>
800076c8:	00a08821 	move	s1,a1
800076cc:	54400005 	bnezl	v0,800076e4 <__osSiRawWriteIo+0x34>
800076d0:	2402ffff 	li	v0,-1
800076d4:	3c02a000 	lui	v0,0xa000
800076d8:	02021025 	or	v0,s0,v0
800076dc:	ac510000 	sw	s1,0(v0)
800076e0:	00001021 	move	v0,zero
800076e4:	8fbf0018 	lw	ra,24(sp)
800076e8:	8fb10014 	lw	s1,20(sp)
800076ec:	8fb00010 	lw	s0,16(sp)
800076f0:	03e00008 	jr	ra
800076f4:	27bd0020 	addiu	sp,sp,32
	...

80007700 <osDestroyThread>:
80007700:	27bdffe0 	addiu	sp,sp,-32
80007704:	afb00010 	sw	s0,16(sp)
80007708:	00808021 	move	s0,a0
8000770c:	afbf0018 	sw	ra,24(sp)
80007710:	0c001848 	jal	80006120 <__osDisableInt>
80007714:	afb10014 	sw	s1,20(sp)
80007718:	16000004 	bnez	s0,8000772c <osDestroyThread+0x2c>
8000771c:	00408821 	move	s1,v0
80007720:	3c108001 	lui	s0,0x8001
80007724:	08001dd2 	j	80007748 <osDestroyThread+0x48>
80007728:	8e10c050 	lw	s0,-16304(s0)
8000772c:	96030010 	lhu	v1,16(s0)
80007730:	24020001 	li	v0,1
80007734:	10620004 	beq	v1,v0,80007748 <osDestroyThread+0x48>
80007738:	00000000 	nop
8000773c:	8e040008 	lw	a0,8(s0)
80007740:	0c001268 	jal	800049a0 <__osDequeueThread>
80007744:	02002821 	move	a1,s0
80007748:	3c028001 	lui	v0,0x8001
8000774c:	8c42c04c 	lw	v0,-16308(v0)
80007750:	14500008 	bne	v0,s0,80007774 <osDestroyThread+0x74>
80007754:	00402021 	move	a0,v0
80007758:	8e02000c 	lw	v0,12(s0)
8000775c:	3c018001 	lui	at,0x8001
80007760:	08001de9 	j	800077a4 <osDestroyThread+0xa4>
80007764:	ac22c04c 	sw	v0,-16308(at)
80007768:	8e02000c 	lw	v0,12(s0)
8000776c:	08001de9 	j	800077a4 <osDestroyThread+0xa4>
80007770:	ac82000c 	sw	v0,12(a0)
80007774:	8c830004 	lw	v1,4(a0)
80007778:	2402ffff 	li	v0,-1
8000777c:	10620009 	beq	v1,v0,800077a4 <osDestroyThread+0xa4>
80007780:	00000000 	nop
80007784:	2403ffff 	li	v1,-1
80007788:	8c82000c 	lw	v0,12(a0)
8000778c:	1050fff6 	beq	v0,s0,80007768 <osDestroyThread+0x68>
80007790:	00000000 	nop
80007794:	00402021 	move	a0,v0
80007798:	8c820004 	lw	v0,4(a0)
8000779c:	1443fffa 	bne	v0,v1,80007788 <osDestroyThread+0x88>
800077a0:	00000000 	nop
800077a4:	3c028001 	lui	v0,0x8001
800077a8:	8c42c050 	lw	v0,-16304(v0)
800077ac:	16020003 	bne	s0,v0,800077bc <osDestroyThread+0xbc>
800077b0:	00000000 	nop
800077b4:	0c0017e5 	jal	80005f94 <__osDispatchThread>
800077b8:	00000000 	nop
800077bc:	0c001864 	jal	80006190 <__osRestoreInt>
800077c0:	02202021 	move	a0,s1
800077c4:	8fbf0018 	lw	ra,24(sp)
800077c8:	8fb10014 	lw	s1,20(sp)
800077cc:	8fb00010 	lw	s0,16(sp)
800077d0:	03e00008 	jr	ra
800077d4:	27bd0020 	addiu	sp,sp,32
	...

800077e0 <__osTimerServicesInit>:
800077e0:	3c028001 	lui	v0,0x8001
800077e4:	8c42d2a0 	lw	v0,-11616(v0)
800077e8:	00002021 	move	a0,zero
800077ec:	00002821 	move	a1,zero
800077f0:	3c018001 	lui	at,0x8001
800077f4:	ac24dc98 	sw	a0,-9064(at)
800077f8:	3c018001 	lui	at,0x8001
800077fc:	ac25dc9c 	sw	a1,-9060(at)
80007800:	3c018001 	lui	at,0x8001
80007804:	ac20dc90 	sw	zero,-9072(at)
80007808:	3c018001 	lui	at,0x8001
8000780c:	ac20dc94 	sw	zero,-9068(at)
80007810:	ac440010 	sw	a0,16(v0)
80007814:	ac450014 	sw	a1,20(v0)
80007818:	ac440008 	sw	a0,8(v0)
8000781c:	ac45000c 	sw	a1,12(v0)
80007820:	ac420004 	sw	v0,4(v0)
80007824:	ac420000 	sw	v0,0(v0)
80007828:	ac400018 	sw	zero,24(v0)
8000782c:	03e00008 	jr	ra
80007830:	ac40001c 	sw	zero,28(v0)

80007834 <__osTimerInterrupt>:
80007834:	3c038001 	lui	v1,0x8001
80007838:	8c63d2a0 	lw	v1,-11616(v1)
8000783c:	27bdffe8 	addiu	sp,sp,-24
80007840:	afbf0014 	sw	ra,20(sp)
80007844:	afb00010 	sw	s0,16(sp)
80007848:	8c620000 	lw	v0,0(v1)
8000784c:	10430044 	beq	v0,v1,80007960 <__osTimerInterrupt+0x12c>
80007850:	00000000 	nop
80007854:	3c028001 	lui	v0,0x8001
80007858:	8c42d2a0 	lw	v0,-11616(v0)
8000785c:	8c500000 	lw	s0,0(v0)
80007860:	16020006 	bne	s0,v0,8000787c <__osTimerInterrupt+0x48>
80007864:	00000000 	nop
80007868:	0c00226c 	jal	800089b0 <__osSetCompare>
8000786c:	00002021 	move	a0,zero
80007870:	3c018001 	lui	at,0x8001
80007874:	08001e58 	j	80007960 <__osTimerInterrupt+0x12c>
80007878:	ac20dca0 	sw	zero,-9056(at)
8000787c:	0c001d48 	jal	80007520 <osGetCount>
80007880:	00000000 	nop
80007884:	3c038001 	lui	v1,0x8001
80007888:	8c63dca0 	lw	v1,-9056(v1)
8000788c:	3c018001 	lui	at,0x8001
80007890:	ac22dca0 	sw	v0,-9056(at)
80007894:	00431023 	subu	v0,v0,v1
80007898:	8e030010 	lw	v1,16(s0)
8000789c:	00403821 	move	a3,v0
800078a0:	00003021 	move	a2,zero
800078a4:	00c3102b 	sltu	v0,a2,v1
800078a8:	14400007 	bnez	v0,800078c8 <__osTimerInterrupt+0x94>
800078ac:	00000000 	nop
800078b0:	14660010 	bne	v1,a2,800078f4 <__osTimerInterrupt+0xc0>
800078b4:	00000000 	nop
800078b8:	8e020014 	lw	v0,20(s0)
800078bc:	00e2102b 	sltu	v0,a3,v0
800078c0:	1040000c 	beqz	v0,800078f4 <__osTimerInterrupt+0xc0>
800078c4:	00000000 	nop
800078c8:	8e040010 	lw	a0,16(s0)
800078cc:	8e050014 	lw	a1,20(s0)
800078d0:	00a7102b 	sltu	v0,a1,a3
800078d4:	00a72823 	subu	a1,a1,a3
800078d8:	00862023 	subu	a0,a0,a2
800078dc:	00822023 	subu	a0,a0,v0
800078e0:	ae040010 	sw	a0,16(s0)
800078e4:	0c001e5c 	jal	80007970 <__osSetTimerIntr>
800078e8:	ae050014 	sw	a1,20(s0)
800078ec:	08001e58 	j	80007960 <__osTimerInterrupt+0x12c>
800078f0:	00000000 	nop
800078f4:	8e030004 	lw	v1,4(s0)
800078f8:	8e020000 	lw	v0,0(s0)
800078fc:	ac620000 	sw	v0,0(v1)
80007900:	8e030000 	lw	v1,0(s0)
80007904:	8e020004 	lw	v0,4(s0)
80007908:	ac620004 	sw	v0,4(v1)
8000790c:	8e040018 	lw	a0,24(s0)
80007910:	ae000000 	sw	zero,0(s0)
80007914:	10800004 	beqz	a0,80007928 <__osTimerInterrupt+0xf4>
80007918:	ae000004 	sw	zero,4(s0)
8000791c:	8e05001c 	lw	a1,28(s0)
80007920:	0c000774 	jal	80001dd0 <osSendMesg>
80007924:	00003021 	move	a2,zero
80007928:	8e020008 	lw	v0,8(s0)
8000792c:	14400004 	bnez	v0,80007940 <__osTimerInterrupt+0x10c>
80007930:	00000000 	nop
80007934:	8e02000c 	lw	v0,12(s0)
80007938:	1040ffc6 	beqz	v0,80007854 <__osTimerInterrupt+0x20>
8000793c:	00000000 	nop
80007940:	8e020008 	lw	v0,8(s0)
80007944:	8e03000c 	lw	v1,12(s0)
80007948:	02002021 	move	a0,s0
8000794c:	ac820010 	sw	v0,16(a0)
80007950:	0c001e7c 	jal	800079f0 <__osInsertTimer>
80007954:	ac830014 	sw	v1,20(a0)
80007958:	08001e15 	j	80007854 <__osTimerInterrupt+0x20>
8000795c:	00000000 	nop
80007960:	8fbf0014 	lw	ra,20(sp)
80007964:	8fb00010 	lw	s0,16(sp)
80007968:	03e00008 	jr	ra
8000796c:	27bd0018 	addiu	sp,sp,24

80007970 <__osSetTimerIntr>:
80007970:	27bdffd8 	addiu	sp,sp,-40
80007974:	afb30020 	sw	s3,32(sp)
80007978:	afb2001c 	sw	s2,28(sp)
8000797c:	00809021 	move	s2,a0
80007980:	00a09821 	move	s3,a1
80007984:	afbf0024 	sw	ra,36(sp)
80007988:	16400007 	bnez	s2,800079a8 <__osSetTimerIntr+0x38>
8000798c:	afb00018 	sw	s0,24(sp)
80007990:	16400003 	bnez	s2,800079a0 <__osSetTimerIntr+0x30>
80007994:	2e6201d4 	sltiu	v0,s3,468
80007998:	10400003 	beqz	v0,800079a8 <__osSetTimerIntr+0x38>
8000799c:	00000000 	nop
800079a0:	24120000 	li	s2,0
800079a4:	241301d4 	li	s3,468
800079a8:	0c001848 	jal	80006120 <__osDisableInt>
800079ac:	00000000 	nop
800079b0:	0c001d48 	jal	80007520 <osGetCount>
800079b4:	00408021 	move	s0,v0
800079b8:	3c018001 	lui	at,0x8001
800079bc:	ac22dca0 	sw	v0,-9056(at)
800079c0:	00402821 	move	a1,v0
800079c4:	00002021 	move	a0,zero
800079c8:	0c00226c 	jal	800089b0 <__osSetCompare>
800079cc:	02652021 	addu	a0,s3,a1
800079d0:	0c001864 	jal	80006190 <__osRestoreInt>
800079d4:	02002021 	move	a0,s0
800079d8:	8fbf0024 	lw	ra,36(sp)
800079dc:	8fb30020 	lw	s3,32(sp)
800079e0:	8fb2001c 	lw	s2,28(sp)
800079e4:	8fb00018 	lw	s0,24(sp)
800079e8:	03e00008 	jr	ra
800079ec:	27bd0028 	addiu	sp,sp,40

800079f0 <__osInsertTimer>:
800079f0:	27bdffe0 	addiu	sp,sp,-32
800079f4:	afb20018 	sw	s2,24(sp)
800079f8:	00809021 	move	s2,a0
800079fc:	afbf001c 	sw	ra,28(sp)
80007a00:	afb10014 	sw	s1,20(sp)
80007a04:	0c001848 	jal	80006120 <__osDisableInt>
80007a08:	afb00010 	sw	s0,16(sp)
80007a0c:	3c038001 	lui	v1,0x8001
80007a10:	8c63d2a0 	lw	v1,-11616(v1)
80007a14:	8c660000 	lw	a2,0(v1)
80007a18:	8e500010 	lw	s0,16(s2)
80007a1c:	8e510014 	lw	s1,20(s2)
80007a20:	10c30017 	beq	a2,v1,80007a80 <__osInsertTimer+0x90>
80007a24:	00403821 	move	a3,v0
80007a28:	08001e96 	j	80007a58 <__osInsertTimer+0x68>
80007a2c:	00000000 	nop
80007a30:	8cc20010 	lw	v0,16(a2)
80007a34:	8cc30014 	lw	v1,20(a2)
80007a38:	8cc60000 	lw	a2,0(a2)
80007a3c:	3c048001 	lui	a0,0x8001
80007a40:	8c84d2a0 	lw	a0,-11616(a0)
80007a44:	0223282b 	sltu	a1,s1,v1
80007a48:	02238823 	subu	s1,s1,v1
80007a4c:	02028023 	subu	s0,s0,v0
80007a50:	10c4000b 	beq	a2,a0,80007a80 <__osInsertTimer+0x90>
80007a54:	02058023 	subu	s0,s0,a1
80007a58:	8cc30010 	lw	v1,16(a2)
80007a5c:	0070102b 	sltu	v0,v1,s0
80007a60:	1440fff3 	bnez	v0,80007a30 <__osInsertTimer+0x40>
80007a64:	00000000 	nop
80007a68:	16030005 	bne	s0,v1,80007a80 <__osInsertTimer+0x90>
80007a6c:	00000000 	nop
80007a70:	8cc20014 	lw	v0,20(a2)
80007a74:	0051102b 	sltu	v0,v0,s1
80007a78:	1440ffed 	bnez	v0,80007a30 <__osInsertTimer+0x40>
80007a7c:	00000000 	nop
80007a80:	3c028001 	lui	v0,0x8001
80007a84:	8c42d2a0 	lw	v0,-11616(v0)
80007a88:	ae500010 	sw	s0,16(s2)
80007a8c:	ae510014 	sw	s1,20(s2)
80007a90:	50c2000a 	beql	a2,v0,80007abc <__osInsertTimer+0xcc>
80007a94:	ae460000 	sw	a2,0(s2)
80007a98:	8cc20010 	lw	v0,16(a2)
80007a9c:	8cc30014 	lw	v1,20(a2)
80007aa0:	0071202b 	sltu	a0,v1,s1
80007aa4:	00711823 	subu	v1,v1,s1
80007aa8:	00501023 	subu	v0,v0,s0
80007aac:	00441023 	subu	v0,v0,a0
80007ab0:	acc20010 	sw	v0,16(a2)
80007ab4:	acc30014 	sw	v1,20(a2)
80007ab8:	ae460000 	sw	a2,0(s2)
80007abc:	8cc20004 	lw	v0,4(a2)
80007ac0:	ae420004 	sw	v0,4(s2)
80007ac4:	8cc20004 	lw	v0,4(a2)
80007ac8:	00e02021 	move	a0,a3
80007acc:	ac520000 	sw	s2,0(v0)
80007ad0:	0c001864 	jal	80006190 <__osRestoreInt>
80007ad4:	acd20004 	sw	s2,4(a2)
80007ad8:	02001021 	move	v0,s0
80007adc:	02201821 	move	v1,s1
80007ae0:	8fbf001c 	lw	ra,28(sp)
80007ae4:	8fb20018 	lw	s2,24(sp)
80007ae8:	8fb10014 	lw	s1,20(sp)
80007aec:	8fb00010 	lw	s0,16(sp)
80007af0:	03e00008 	jr	ra
80007af4:	27bd0020 	addiu	sp,sp,32
	...

80007b00 <osMapTLBRdb>:
80007b00:	40085000 2409001f 40890000 40802800     @.P.$...@...@.(.
80007b10:	240a0017 3c09c000 40895000 3c098000     $...<...@.P.<...
80007b20:	00095982 016a5825 408b1000 24090001     ..Y..jX%@...$...
80007b30:	40891800 00000000 42000002 00000000     @.......B.......
	...
80007b4c:	40885000 03e00008 00000000 00000000     @.P.............
80007b5c:	00000000                                ....

80007b60 <osUnmapTLBAll>:
80007b60:	40085000 2409001e 3c0a8000 408a5000     @.P.$...<...@.P.
80007b70:	40801000 40801800 40890000 00000000     @...@...@.......
80007b80:	42000002 00000000 00000000 2129ffff     B...........!)..
80007b90:	0521fff9 00000000 40885000 03e00008     .!......@.P.....
	...

80007bb0 <__osViInit>:
80007bb0:	27bdffe8 	addiu	sp,sp,-24
80007bb4:	afb00010 	sw	s0,16(sp)
80007bb8:	3c108001 	lui	s0,0x8001
80007bbc:	2610d2b0 	addiu	s0,s0,-11600
80007bc0:	02002021 	move	a0,s0
80007bc4:	afbf0014 	sw	ra,20(sp)
80007bc8:	0c0006d0 	jal	80001b40 <bzero>
80007bcc:	24050060 	li	a1,96
80007bd0:	3c038000 	lui	v1,0x8000
80007bd4:	8c630300 	lw	v1,768(v1)
80007bd8:	3c018001 	lui	at,0x8001
80007bdc:	ac30d310 	sw	s0,-11504(at)
80007be0:	26100030 	addiu	s0,s0,48
80007be4:	24020001 	li	v0,1
80007be8:	3c018001 	lui	at,0x8001
80007bec:	a422d2e2 	sh	v0,-11550(at)
80007bf0:	3c018001 	lui	at,0x8001
80007bf4:	a422d2b2 	sh	v0,-11598(at)
80007bf8:	3c028000 	lui	v0,0x8000
80007bfc:	3c018001 	lui	at,0x8001
80007c00:	ac30d314 	sw	s0,-11500(at)
80007c04:	3c018001 	lui	at,0x8001
80007c08:	ac22d2e4 	sw	v0,-11548(at)
80007c0c:	3c018001 	lui	at,0x8001
80007c10:	ac22d2b4 	sw	v0,-11596(at)
80007c14:	14600004 	bnez	v1,80007c28 <__osViInit+0x78>
80007c18:	24020002 	li	v0,2
80007c1c:	3c028001 	lui	v0,0x8001
80007c20:	08001f11 	j	80007c44 <__osViInit+0x94>
80007c24:	2442d370 	addiu	v0,v0,-11408
80007c28:	14620004 	bne	v1,v0,80007c3c <__osViInit+0x8c>
80007c2c:	00000000 	nop
80007c30:	3c028001 	lui	v0,0x8001
80007c34:	08001f11 	j	80007c44 <__osViInit+0x94>
80007c38:	2442d3c0 	addiu	v0,v0,-11328
80007c3c:	3c028001 	lui	v0,0x8001
80007c40:	2442d320 	addiu	v0,v0,-11488
80007c44:	3c018001 	lui	at,0x8001
80007c48:	ac22d2e8 	sw	v0,-11544(at)
80007c4c:	3c038001 	lui	v1,0x8001
80007c50:	8c63d314 	lw	v1,-11500(v1)
80007c54:	8c640008 	lw	a0,8(v1)
80007c58:	24020020 	li	v0,32
80007c5c:	a4620000 	sh	v0,0(v1)
80007c60:	8c820004 	lw	v0,4(a0)
80007c64:	3c04a440 	lui	a0,0xa440
80007c68:	34840010 	ori	a0,a0,0x10
80007c6c:	ac62000c 	sw	v0,12(v1)
80007c70:	8c820000 	lw	v0,0(a0)
80007c74:	2c42000b 	sltiu	v0,v0,11
80007c78:	14400007 	bnez	v0,80007c98 <__osViInit+0xe8>
80007c7c:	3c02a440 	lui	v0,0xa440
80007c80:	3c03a440 	lui	v1,0xa440
80007c84:	34630010 	ori	v1,v1,0x10
80007c88:	8c620000 	lw	v0,0(v1)
80007c8c:	2c42000b 	sltiu	v0,v0,11
80007c90:	1040fffd 	beqz	v0,80007c88 <__osViInit+0xd8>
80007c94:	3c02a440 	lui	v0,0xa440
80007c98:	ac400000 	sw	zero,0(v0)
80007c9c:	0c001428 	jal	800050a0 <__osViSwapContext>
80007ca0:	00000000 	nop
80007ca4:	8fbf0014 	lw	ra,20(sp)
80007ca8:	8fb00010 	lw	s0,16(sp)
80007cac:	03e00008 	jr	ra
80007cb0:	27bd0018 	addiu	sp,sp,24
	...

80007cc0 <__osViGetCurrentContext>:
80007cc0:	3c028001 	lui	v0,0x8001
80007cc4:	03e00008 	jr	ra
80007cc8:	8c42d310 	lw	v0,-11504(v0)
80007ccc:	00000000 	nop

80007cd0 <_Litob>:
80007cd0:	27bdffa0 	addiu	sp,sp,-96
80007cd4:	afb10044 	sw	s1,68(sp)
80007cd8:	00808821 	move	s1,a0
80007cdc:	afb60058 	sw	s6,88(sp)
80007ce0:	3c168001 	lui	s6,0x8001
80007ce4:	26d6d410 	addiu	s6,s6,-11248
80007ce8:	00a02021 	move	a0,a1
80007cec:	00052e00 	sll	a1,a1,0x18
80007cf0:	00052e03 	sra	a1,a1,0x18
80007cf4:	24020058 	li	v0,88
80007cf8:	afbf005c 	sw	ra,92(sp)
80007cfc:	afb50054 	sw	s5,84(sp)
80007d00:	afb40050 	sw	s4,80(sp)
80007d04:	afb3004c 	sw	s3,76(sp)
80007d08:	afb20048 	sw	s2,72(sp)
80007d0c:	14a20003 	bne	a1,v0,80007d1c <_Litob+0x4c>
80007d10:	afb00040 	sw	s0,64(sp)
80007d14:	3c168001 	lui	s6,0x8001
80007d18:	26d6d424 	addiu	s6,s6,-11228
80007d1c:	2402006f 	li	v0,111
80007d20:	10a20009 	beq	a1,v0,80007d48 <_Litob+0x78>
80007d24:	38a30078 	xori	v1,a1,0x78
80007d28:	0003182b 	sltu	v1,zero,v1
80007d2c:	38a20058 	xori	v0,a1,0x58
80007d30:	0002102b 	sltu	v0,zero,v0
80007d34:	00621824 	and	v1,v1,v0
80007d38:	10600004 	beqz	v1,80007d4c <_Litob+0x7c>
80007d3c:	24130010 	li	s3,16
80007d40:	08001f53 	j	80007d4c <_Litob+0x7c>
80007d44:	2413000a 	li	s3,10
80007d48:	24130008 	li	s3,8
80007d4c:	8e340000 	lw	s4,0(s1)
80007d50:	8e350004 	lw	s5,4(s1)
80007d54:	00041600 	sll	v0,a0,0x18
80007d58:	00021603 	sra	v0,v0,0x18
80007d5c:	38430064 	xori	v1,v0,0x64
80007d60:	2c630001 	sltiu	v1,v1,1
80007d64:	38420069 	xori	v0,v0,0x69
80007d68:	2c420001 	sltiu	v0,v0,1
80007d6c:	00621825 	or	v1,v1,v0
80007d70:	10600008 	beqz	v1,80007d94 <_Litob+0xc4>
80007d74:	24120018 	li	s2,24
80007d78:	8e220000 	lw	v0,0(s1)
80007d7c:	04410005 	bgez	v0,80007d94 <_Litob+0xc4>
80007d80:	00000000 	nop
80007d84:	0015a823 	negu	s5,s5
80007d88:	0014a023 	negu	s4,s4
80007d8c:	0015102b 	sltu	v0,zero,s5
80007d90:	0282a023 	subu	s4,s4,v0
80007d94:	56800007 	bnezl	s4,80007db4 <_Litob+0xe4>
80007d98:	2652ffff 	addiu	s2,s2,-1
80007d9c:	56a00005 	bnezl	s5,80007db4 <_Litob+0xe4>
80007da0:	2652ffff 	addiu	s2,s2,-1
80007da4:	8e220024 	lw	v0,36(s1)
80007da8:	1040000d 	beqz	v0,80007de0 <_Litob+0x110>
80007dac:	02603821 	move	a3,s3
80007db0:	2652ffff 	addiu	s2,s2,-1
80007db4:	02603821 	move	a3,s3
80007db8:	00003021 	move	a2,zero
80007dbc:	02802021 	move	a0,s4
80007dc0:	02a02821 	move	a1,s5
80007dc4:	27b00018 	addiu	s0,sp,24
80007dc8:	0c0025cb 	jal	8000972c <__umoddi3>
80007dcc:	02128021 	addu	s0,s0,s2
80007dd0:	02c31021 	addu	v0,s6,v1
80007dd4:	90420000 	lbu	v0,0(v0)
80007dd8:	a2020000 	sb	v0,0(s0)
80007ddc:	02603821 	move	a3,s3
80007de0:	00003021 	move	a2,zero
80007de4:	02802021 	move	a0,s4
80007de8:	0c002461 	jal	80009184 <__udivdi3>
80007dec:	02a02821 	move	a1,s5
80007df0:	ae220000 	sw	v0,0(s1)
80007df4:	ae230004 	sw	v1,4(s1)
80007df8:	27a20018 	addiu	v0,sp,24
80007dfc:	02428021 	addu	s0,s2,v0
80007e00:	8e220000 	lw	v0,0(s1)
80007e04:	1c400006 	bgtz	v0,80007e20 <_Litob+0x150>
80007e08:	00001821 	move	v1,zero
80007e0c:	14400006 	bnez	v0,80007e28 <_Litob+0x158>
80007e10:	0012102a 	slt	v0,zero,s2
80007e14:	8e220004 	lw	v0,4(s1)
80007e18:	10400003 	beqz	v0,80007e28 <_Litob+0x158>
80007e1c:	0012102a 	slt	v0,zero,s2
80007e20:	24030001 	li	v1,1
80007e24:	0012102a 	slt	v0,zero,s2
80007e28:	00621024 	and	v0,v1,v0
80007e2c:	10400014 	beqz	v0,80007e80 <_Litob+0x1b0>
80007e30:	02601821 	move	v1,s3
80007e34:	8e260000 	lw	a2,0(s1)
80007e38:	8e270004 	lw	a3,4(s1)
80007e3c:	001317c3 	sra	v0,s3,0x1f
80007e40:	afa20010 	sw	v0,16(sp)
80007e44:	afa30014 	sw	v1,20(sp)
80007e48:	0c002299 	jal	80008a64 <lldiv>
80007e4c:	27a40030 	addiu	a0,sp,48
80007e50:	8fa20030 	lw	v0,48(sp)
80007e54:	8fa30034 	lw	v1,52(sp)
80007e58:	ae220000 	sw	v0,0(s1)
80007e5c:	ae230004 	sw	v1,4(s1)
80007e60:	8fa20038 	lw	v0,56(sp)
80007e64:	8fa3003c 	lw	v1,60(sp)
80007e68:	02c31021 	addu	v0,s6,v1
80007e6c:	90420000 	lbu	v0,0(v0)
80007e70:	2610ffff 	addiu	s0,s0,-1
80007e74:	2652ffff 	addiu	s2,s2,-1
80007e78:	08001f80 	j	80007e00 <_Litob+0x130>
80007e7c:	a2020000 	sb	v0,0(s0)
80007e80:	8e240008 	lw	a0,8(s1)
80007e84:	27a50018 	addiu	a1,sp,24
80007e88:	00b22821 	addu	a1,a1,s2
80007e8c:	24060018 	li	a2,24
80007e90:	00d23023 	subu	a2,a2,s2
80007e94:	0c001aa5 	jal	80006a94 <memcpy>
80007e98:	ae260014 	sw	a2,20(s1)
80007e9c:	8e240014 	lw	a0,20(s1)
80007ea0:	8e230024 	lw	v1,36(s1)
80007ea4:	0083102a 	slt	v0,a0,v1
80007ea8:	10400002 	beqz	v0,80007eb4 <_Litob+0x1e4>
80007eac:	00641023 	subu	v0,v1,a0
80007eb0:	ae220010 	sw	v0,16(s1)
80007eb4:	8e220024 	lw	v0,36(s1)
80007eb8:	0441000f 	bgez	v0,80007ef8 <_Litob+0x228>
80007ebc:	24030010 	li	v1,16
80007ec0:	8e220030 	lw	v0,48(s1)
80007ec4:	30420014 	andi	v0,v0,0x14
80007ec8:	1443000b 	bne	v0,v1,80007ef8 <_Litob+0x228>
80007ecc:	00000000 	nop
80007ed0:	8e220028 	lw	v0,40(s1)
80007ed4:	8e23000c 	lw	v1,12(s1)
80007ed8:	8e250010 	lw	a1,16(s1)
80007edc:	8e240014 	lw	a0,20(s1)
80007ee0:	00431023 	subu	v0,v0,v1
80007ee4:	00451023 	subu	v0,v0,a1
80007ee8:	00449023 	subu	s2,v0,a0
80007eec:	1a400002 	blez	s2,80007ef8 <_Litob+0x228>
80007ef0:	00b21021 	addu	v0,a1,s2
80007ef4:	ae220010 	sw	v0,16(s1)
80007ef8:	8fbf005c 	lw	ra,92(sp)
80007efc:	8fb60058 	lw	s6,88(sp)
80007f00:	8fb50054 	lw	s5,84(sp)
80007f04:	8fb40050 	lw	s4,80(sp)
80007f08:	8fb3004c 	lw	s3,76(sp)
80007f0c:	8fb20048 	lw	s2,72(sp)
80007f10:	8fb10044 	lw	s1,68(sp)
80007f14:	8fb00040 	lw	s0,64(sp)
80007f18:	03e00008 	jr	ra
80007f1c:	27bd0060 	addiu	sp,sp,96

80007f20 <_Ldtob>:
80007f20:	27bdff80 	addiu	sp,sp,-128
80007f24:	afb30054 	sw	s3,84(sp)
80007f28:	00809821 	move	s3,a0
80007f2c:	afb1004c 	sw	s1,76(sp)
80007f30:	27b10018 	addiu	s1,sp,24
80007f34:	afbf0060 	sw	ra,96(sp)
80007f38:	afb5005c 	sw	s5,92(sp)
80007f3c:	afb40058 	sw	s4,88(sp)
80007f40:	afb20050 	sw	s2,80(sp)
80007f44:	afb00048 	sw	s0,72(sp)
80007f48:	f7b80078 	sdc1	$f24,120(sp)
80007f4c:	f7b60070 	sdc1	$f22,112(sp)
80007f50:	f7b40068 	sdc1	$f20,104(sp)
80007f54:	8e630024 	lw	v1,36(s3)
80007f58:	d6740000 	ldc1	$f20,0(s3)
80007f5c:	04610003 	bgez	v1,80007f6c <_Ldtob+0x4c>
80007f60:	00a0a821 	move	s5,a1
80007f64:	08001fe6 	j	80007f98 <_Ldtob+0x78>
80007f68:	24020006 	li	v0,6
80007f6c:	1460000c 	bnez	v1,80007fa0 <_Ldtob+0x80>
80007f70:	27a40038 	addiu	a0,sp,56
80007f74:	00051600 	sll	v0,a1,0x18
80007f78:	00021603 	sra	v0,v0,0x18
80007f7c:	38430067 	xori	v1,v0,0x67
80007f80:	2c630001 	sltiu	v1,v1,1
80007f84:	38420047 	xori	v0,v0,0x47
80007f88:	2c420001 	sltiu	v0,v0,1
80007f8c:	00621825 	or	v1,v1,v0
80007f90:	10600003 	beqz	v1,80007fa0 <_Ldtob+0x80>
80007f94:	24020001 	li	v0,1
80007f98:	ae620024 	sw	v0,36(s3)
80007f9c:	27a40038 	addiu	a0,sp,56
80007fa0:	0c0020db 	jal	8000836c <_Ldunscale>
80007fa4:	02602821 	move	a1,s3
80007fa8:	00021400 	sll	v0,v0,0x10
80007fac:	00021c03 	sra	v1,v0,0x10
80007fb0:	18600010 	blez	v1,80007ff4 <_Ldtob+0xd4>
80007fb4:	24020002 	li	v0,2
80007fb8:	3c068001 	lui	a2,0x8001
80007fbc:	24c6db4c 	addiu	a2,a2,-9396
80007fc0:	8e670008 	lw	a3,8(s3)
80007fc4:	14620003 	bne	v1,v0,80007fd4 <_Ldtob+0xb4>
80007fc8:	24020003 	li	v0,3
80007fcc:	3c068001 	lui	a2,0x8001
80007fd0:	24c6db48 	addiu	a2,a2,-9400
80007fd4:	ae620014 	sw	v0,20(s3)
80007fd8:	80c20000 	lb	v0,0(a2)
80007fdc:	80c30001 	lb	v1,1(a2)
80007fe0:	80c40002 	lb	a0,2(a2)
80007fe4:	a0e20000 	sb	v0,0(a3)
80007fe8:	a0e30001 	sb	v1,1(a3)
80007fec:	080020cf 	j	8000833c <_Ldtob+0x41c>
80007ff0:	a0e40002 	sb	a0,2(a3)
80007ff4:	14600003 	bnez	v1,80008004 <_Ldtob+0xe4>
80007ff8:	00003821 	move	a3,zero
80007ffc:	080020c6 	j	80008318 <_Ldtob+0x3f8>
80008000:	a7a00038 	sh	zero,56(sp)
80008004:	44800000 	mtc1	zero,$f0
80008008:	44800800 	mtc1	zero,$f1
8000800c:	00000000 	nop
80008010:	4620a03c 	c.lt.d	$f20,$f0
	...
8000801c:	45030001 	bc1tl	80008024 <_Ldtob+0x104>
80008020:	4620a507 	neg.d	$f20,$f20
80008024:	87a30038 	lh	v1,56(sp)
80008028:	24027597 	li	v0,30103
8000802c:	00620018 	mult	v1,v0
80008030:	00001812 	mflo	v1
80008034:	3c0214f8 	lui	v0,0x14f8
80008038:	3442b589 	ori	v0,v0,0xb589
8000803c:	00620018 	mult	v1,v0
80008040:	00031fc3 	sra	v1,v1,0x1f
80008044:	00004010 	mfhi	t0
80008048:	00081343 	sra	v0,t0,0xd
8000804c:	00431023 	subu	v0,v0,v1
80008050:	2443fffc 	addiu	v1,v0,-4
80008054:	00031400 	sll	v0,v1,0x10
80008058:	00021403 	sra	v0,v0,0x10
8000805c:	04410013 	bgez	v0,800080ac <_Ldtob+0x18c>
80008060:	a7a30038 	sh	v1,56(sp)
80008064:	00021023 	negu	v0,v0
80008068:	24420003 	addiu	v0,v0,3
8000806c:	2403fffc 	li	v1,-4
80008070:	00431824 	and	v1,v0,v1
80008074:	00031023 	negu	v0,v1
80008078:	1860001f 	blez	v1,800080f8 <_Ldtob+0x1d8>
8000807c:	a7a20038 	sh	v0,56(sp)
80008080:	3c048001 	lui	a0,0x8001
80008084:	2484db00 	addiu	a0,a0,-9472
80008088:	30620001 	andi	v0,v1,0x1
8000808c:	10400003 	beqz	v0,8000809c <_Ldtob+0x17c>
80008090:	00031843 	sra	v1,v1,0x1
80008094:	d4800000 	ldc1	$f0,0(a0)
80008098:	4620a502 	mul.d	$f20,$f20,$f0
8000809c:	1c60fffa 	bgtz	v1,80008088 <_Ldtob+0x168>
800080a0:	24840008 	addiu	a0,a0,8
800080a4:	0800203e 	j	800080f8 <_Ldtob+0x1d8>
800080a8:	00000000 	nop
800080ac:	18400012 	blez	v0,800080f8 <_Ldtob+0x1d8>
800080b0:	2402fffc 	li	v0,-4
800080b4:	3c018001 	lui	at,0x8001
800080b8:	d422db50 	ldc1	$f2,-9392(at)
800080bc:	00621024 	and	v0,v1,v0
800080c0:	00021c00 	sll	v1,v0,0x10
800080c4:	00031c03 	sra	v1,v1,0x10
800080c8:	1860000a 	blez	v1,800080f4 <_Ldtob+0x1d4>
800080cc:	a7a20038 	sh	v0,56(sp)
800080d0:	3c048001 	lui	a0,0x8001
800080d4:	2484db00 	addiu	a0,a0,-9472
800080d8:	30620001 	andi	v0,v1,0x1
800080dc:	10400003 	beqz	v0,800080ec <_Ldtob+0x1cc>
800080e0:	00031843 	sra	v1,v1,0x1
800080e4:	d4800000 	ldc1	$f0,0(a0)
800080e8:	46201082 	mul.d	$f2,$f2,$f0
800080ec:	1c60fffa 	bgtz	v1,800080d8 <_Ldtob+0x1b8>
800080f0:	24840008 	addiu	a0,a0,8
800080f4:	4622a503 	div.d	$f20,$f20,$f2
800080f8:	8e640024 	lw	a0,36(s3)
800080fc:	00151600 	sll	v0,s5,0x18
80008100:	00021603 	sra	v0,v0,0x18
80008104:	24030066 	li	v1,102
80008108:	14430004 	bne	v0,v1,8000811c <_Ldtob+0x1fc>
8000810c:	24920006 	addiu	s2,a0,6
80008110:	87a30038 	lh	v1,56(sp)
80008114:	2482000a 	addiu	v0,a0,10
80008118:	00439021 	addu	s2,v0,v1
8000811c:	2a420014 	slti	v0,s2,20
80008120:	50400001 	beqzl	v0,80008128 <_Ldtob+0x208>
80008124:	24120013 	li	s2,19
80008128:	24020030 	li	v0,48
8000812c:	a2220000 	sb	v0,0(s1)
80008130:	26310001 	addiu	s1,s1,1
80008134:	4480c000 	mtc1	zero,$f24
80008138:	4480c800 	mtc1	zero,$f25
8000813c:	3c018001 	lui	at,0x8001
80008140:	d436db58 	ldc1	$f22,-9384(at)
80008144:	24140030 	li	s4,48
80008148:	4634c03c 	c.lt.d	$f24,$f20
8000814c:	24030001 	li	v1,1
80008150:	00000000 	nop
80008154:	45010002 	bc1t	80008160 <_Ldtob+0x240>
80008158:	0012102a 	slt	v0,zero,s2
8000815c:	00001821 	move	v1,zero
80008160:	00431024 	and	v0,v0,v1
80008164:	10400021 	beqz	v0,800081ec <_Ldtob+0x2cc>
80008168:	2652fff8 	addiu	s2,s2,-8
8000816c:	4620a00d 	trunc.w.d	$f0,$f20
80008170:	44050000 	mfc1	a1,$f0
80008174:	00000000 	nop
80008178:	1a400006 	blez	s2,80008194 <_Ldtob+0x274>
8000817c:	26310008 	addiu	s1,s1,8
80008180:	44850000 	mtc1	a1,$f0
80008184:	00000000 	nop
80008188:	46800021 	cvt.d.w	$f0,$f0
8000818c:	4620a001 	sub.d	$f0,$f20,$f0
80008190:	46360502 	mul.d	$f20,$f0,$f22
80008194:	18a00010 	blez	a1,800081d8 <_Ldtob+0x2b8>
80008198:	24100008 	li	s0,8
8000819c:	2610ffff 	addiu	s0,s0,-1
800081a0:	0600000d 	bltz	s0,800081d8 <_Ldtob+0x2b8>
800081a4:	27a40040 	addiu	a0,sp,64
800081a8:	0c002278 	jal	800089e0 <ldiv>
800081ac:	2406000a 	li	a2,10
800081b0:	8fa20044 	lw	v0,68(sp)
800081b4:	2631ffff 	addiu	s1,s1,-1
800081b8:	24420030 	addiu	v0,v0,48
800081bc:	a2220000 	sb	v0,0(s1)
800081c0:	8fa50040 	lw	a1,64(sp)
800081c4:	1ca0fff6 	bgtz	a1,800081a0 <_Ldtob+0x280>
800081c8:	2610ffff 	addiu	s0,s0,-1
800081cc:	08002077 	j	800081dc <_Ldtob+0x2bc>
800081d0:	00000000 	nop
800081d4:	a2340000 	sb	s4,0(s1)
800081d8:	2610ffff 	addiu	s0,s0,-1
800081dc:	0603fffd 	bgezl	s0,800081d4 <_Ldtob+0x2b4>
800081e0:	2631ffff 	addiu	s1,s1,-1
800081e4:	08002052 	j	80008148 <_Ldtob+0x228>
800081e8:	26310008 	addiu	s1,s1,8
800081ec:	2623ffff 	addiu	v1,s1,-1
800081f0:	27a20018 	addiu	v0,sp,24
800081f4:	00629023 	subu	s2,v1,v0
800081f8:	97a20038 	lhu	v0,56(sp)
800081fc:	83a30019 	lb	v1,25(sp)
80008200:	24420007 	addiu	v0,v0,7
80008204:	a7a20038 	sh	v0,56(sp)
80008208:	24020030 	li	v0,48
8000820c:	14620009 	bne	v1,v0,80008234 <_Ldtob+0x314>
80008210:	27b10019 	addiu	s1,sp,25
80008214:	24030030 	li	v1,48
80008218:	97a20038 	lhu	v0,56(sp)
8000821c:	26310001 	addiu	s1,s1,1
80008220:	2442ffff 	addiu	v0,v0,-1
80008224:	a7a20038 	sh	v0,56(sp)
80008228:	82220000 	lb	v0,0(s1)
8000822c:	1043fffa 	beq	v0,v1,80008218 <_Ldtob+0x2f8>
80008230:	2652ffff 	addiu	s2,s2,-1
80008234:	8e650024 	lw	a1,36(s3)
80008238:	00151600 	sll	v0,s5,0x18
8000823c:	00022603 	sra	a0,v0,0x18
80008240:	24020066 	li	v0,102
80008244:	14820005 	bne	a0,v0,8000825c <_Ldtob+0x33c>
80008248:	38830065 	xori	v1,a0,0x65
8000824c:	87a30038 	lh	v1,56(sp)
80008250:	24a20001 	addiu	v0,a1,1
80008254:	0800209c 	j	80008270 <_Ldtob+0x350>
80008258:	00433821 	addu	a3,v0,v1
8000825c:	2c630001 	sltiu	v1,v1,1
80008260:	38820045 	xori	v0,a0,0x45
80008264:	2c420001 	sltiu	v0,v0,1
80008268:	00621825 	or	v1,v1,v0
8000826c:	00a33821 	addu	a3,a1,v1
80008270:	00071400 	sll	v0,a3,0x10
80008274:	00021403 	sra	v0,v0,0x10
80008278:	0242102a 	slt	v0,s2,v0
8000827c:	54400001 	bnezl	v0,80008284 <_Ldtob+0x364>
80008280:	02403821 	move	a3,s2
80008284:	00071400 	sll	v0,a3,0x10
80008288:	00022403 	sra	a0,v0,0x10
8000828c:	18800022 	blez	a0,80008318 <_Ldtob+0x3f8>
80008290:	0092102a 	slt	v0,a0,s2
80008294:	10400008 	beqz	v0,800082b8 <_Ldtob+0x398>
80008298:	24030030 	li	v1,48
8000829c:	02241021 	addu	v0,s1,a0
800082a0:	80420000 	lb	v0,0(v0)
800082a4:	28420035 	slti	v0,v0,53
800082a8:	38420001 	xori	v0,v0,0x1
800082ac:	00021023 	negu	v0,v0
800082b0:	30420039 	andi	v0,v0,0x39
800082b4:	34430030 	ori	v1,v0,0x30
800082b8:	2485ffff 	addiu	a1,a0,-1
800082bc:	02252021 	addu	a0,s1,a1
800082c0:	80820000 	lb	v0,0(a0)
800082c4:	54430008 	bnel	v0,v1,800082e8 <_Ldtob+0x3c8>
800082c8:	24020039 	li	v0,57
800082cc:	00403021 	move	a2,v0
800082d0:	2484ffff 	addiu	a0,a0,-1
800082d4:	80820000 	lb	v0,0(a0)
800082d8:	24e7ffff 	addiu	a3,a3,-1
800082dc:	1046fffc 	beq	v0,a2,800082d0 <_Ldtob+0x3b0>
800082e0:	24a5ffff 	addiu	a1,a1,-1
800082e4:	24020039 	li	v0,57
800082e8:	14620004 	bne	v1,v0,800082fc <_Ldtob+0x3dc>
800082ec:	02251821 	addu	v1,s1,a1
800082f0:	90620000 	lbu	v0,0(v1)
800082f4:	24420001 	addiu	v0,v0,1
800082f8:	a0620000 	sb	v0,0(v1)
800082fc:	04a10007 	bgez	a1,8000831c <_Ldtob+0x3fc>
80008300:	02602021 	move	a0,s3
80008304:	97a20038 	lhu	v0,56(sp)
80008308:	2631ffff 	addiu	s1,s1,-1
8000830c:	24e70001 	addiu	a3,a3,1
80008310:	24420001 	addiu	v0,v0,1
80008314:	a7a20038 	sh	v0,56(sp)
80008318:	02602021 	move	a0,s3
8000831c:	00152e00 	sll	a1,s5,0x18
80008320:	87a20038 	lh	v0,56(sp)
80008324:	00052e03 	sra	a1,a1,0x18
80008328:	02203021 	move	a2,s1
8000832c:	00073c00 	sll	a3,a3,0x10
80008330:	00073c03 	sra	a3,a3,0x10
80008334:	0c002101 	jal	80008404 <_Genld>
80008338:	afa20010 	sw	v0,16(sp)
8000833c:	8fbf0060 	lw	ra,96(sp)
80008340:	8fb5005c 	lw	s5,92(sp)
80008344:	8fb40058 	lw	s4,88(sp)
80008348:	8fb30054 	lw	s3,84(sp)
8000834c:	8fb20050 	lw	s2,80(sp)
80008350:	8fb1004c 	lw	s1,76(sp)
80008354:	8fb00048 	lw	s0,72(sp)
80008358:	d7b80078 	ldc1	$f24,120(sp)
8000835c:	d7b60070 	ldc1	$f22,112(sp)
80008360:	d7b40068 	ldc1	$f20,104(sp)
80008364:	03e00008 	jr	ra
80008368:	27bd0080 	addiu	sp,sp,128

8000836c <_Ldunscale>:
8000836c:	94a30000 	lhu	v1,0(a1)
80008370:	30627ff0 	andi	v0,v1,0x7ff0
80008374:	00023902 	srl	a3,v0,0x4
80008378:	00e03021 	move	a2,a3
8000837c:	240207ff 	li	v0,2047
80008380:	14c20011 	bne	a2,v0,800083c8 <_Ldunscale+0x5c>
80008384:	00a04021 	move	t0,a1
80008388:	a4800000 	sh	zero,0(a0)
8000838c:	94a20000 	lhu	v0,0(a1)
80008390:	3042000f 	andi	v0,v0,0xf
80008394:	14400019 	bnez	v0,800083fc <_Ldunscale+0x90>
80008398:	24020002 	li	v0,2
8000839c:	94a20002 	lhu	v0,2(a1)
800083a0:	14400016 	bnez	v0,800083fc <_Ldunscale+0x90>
800083a4:	24020002 	li	v0,2
800083a8:	94a20004 	lhu	v0,4(a1)
800083ac:	14400013 	bnez	v0,800083fc <_Ldunscale+0x90>
800083b0:	24020002 	li	v0,2
800083b4:	94a20006 	lhu	v0,6(a1)
800083b8:	14400010 	bnez	v0,800083fc <_Ldunscale+0x90>
800083bc:	24020002 	li	v0,2
800083c0:	080020ff 	j	800083fc <_Ldunscale+0x90>
800083c4:	24020001 	li	v0,1
800083c8:	18c00007 	blez	a2,800083e8 <_Ldunscale+0x7c>
800083cc:	2402ffff 	li	v0,-1
800083d0:	3063800f 	andi	v1,v1,0x800f
800083d4:	34633ff0 	ori	v1,v1,0x3ff0
800083d8:	a5030000 	sh	v1,0(t0)
800083dc:	24e3fc02 	addiu	v1,a3,-1022
800083e0:	080020ff 	j	800083fc <_Ldunscale+0x90>
800083e4:	a4830000 	sh	v1,0(a0)
800083e8:	04c00003 	bltz	a2,800083f8 <_Ldunscale+0x8c>
800083ec:	00001021 	move	v0,zero
800083f0:	080020ff 	j	800083fc <_Ldunscale+0x90>
800083f4:	a4800000 	sh	zero,0(a0)
800083f8:	24020002 	li	v0,2
800083fc:	03e00008 	jr	ra
80008400:	00000000 	nop

80008404 <_Genld>:
80008404:	27bdffd0 	addiu	sp,sp,-48
80008408:	afb20018 	sw	s2,24(sp)
8000840c:	00c09021 	move	s2,a2
80008410:	8fa60040 	lw	a2,64(sp)
80008414:	afb10014 	sw	s1,20(sp)
80008418:	00808821 	move	s1,a0
8000841c:	afb3001c 	sw	s3,28(sp)
80008420:	00a09821 	move	s3,a1
80008424:	afb50024 	sw	s5,36(sp)
80008428:	00e0a821 	move	s5,a3
8000842c:	00073c00 	sll	a3,a3,0x10
80008430:	afbf0028 	sw	ra,40(sp)
80008434:	afb40020 	sw	s4,32(sp)
80008438:	afb00010 	sw	s0,16(sp)
8000843c:	1ce00004 	bgtz	a3,80008450 <_Genld+0x4c>
80008440:	00c0a021 	move	s4,a2
80008444:	24150001 	li	s5,1
80008448:	3c128001 	lui	s2,0x8001
8000844c:	2652db60 	addiu	s2,s2,-9376
80008450:	00051600 	sll	v0,a1,0x18
80008454:	00022603 	sra	a0,v0,0x18
80008458:	24050066 	li	a1,102
8000845c:	1085000f 	beq	a0,a1,8000849c <_Genld+0x98>
80008460:	38830067 	xori	v1,a0,0x67
80008464:	2c630001 	sltiu	v1,v1,1
80008468:	38820047 	xori	v0,a0,0x47
8000846c:	2c420001 	sltiu	v0,v0,1
80008470:	00621825 	or	v1,v1,v0
80008474:	106000b4 	beqz	v1,80008748 <_Genld+0x344>
80008478:	00061400 	sll	v0,a2,0x10
8000847c:	00021c03 	sra	v1,v0,0x10
80008480:	2862fffc 	slti	v0,v1,-4
80008484:	1440009b 	bnez	v0,800086f4 <_Genld+0x2f0>
80008488:	00131600 	sll	v0,s3,0x18
8000848c:	8e220024 	lw	v0,36(s1)
80008490:	0062102a 	slt	v0,v1,v0
80008494:	10400097 	beqz	v0,800086f4 <_Genld+0x2f0>
80008498:	00131600 	sll	v0,s3,0x18
8000849c:	10850011 	beq	a0,a1,800084e4 <_Genld+0xe0>
800084a0:	24d40001 	addiu	s4,a2,1
800084a4:	8e220030 	lw	v0,48(s1)
800084a8:	30420008 	andi	v0,v0,0x8
800084ac:	14400006 	bnez	v0,800084c8 <_Genld+0xc4>
800084b0:	00151c00 	sll	v1,s5,0x10
800084b4:	8e220024 	lw	v0,36(s1)
800084b8:	00031c03 	sra	v1,v1,0x10
800084bc:	0062102a 	slt	v0,v1,v0
800084c0:	54400001 	bnezl	v0,800084c8 <_Genld+0xc4>
800084c4:	ae230024 	sw	v1,36(s1)
800084c8:	8e230024 	lw	v1,36(s1)
800084cc:	00141400 	sll	v0,s4,0x10
800084d0:	00021403 	sra	v0,v0,0x10
800084d4:	00621823 	subu	v1,v1,v0
800084d8:	04610002 	bgez	v1,800084e4 <_Genld+0xe0>
800084dc:	ae230024 	sw	v1,36(s1)
800084e0:	ae200024 	sw	zero,36(s1)
800084e4:	00141400 	sll	v0,s4,0x10
800084e8:	00029c03 	sra	s3,v0,0x10
800084ec:	1e600036 	bgtz	s3,800085c8 <_Genld+0x1c4>
800084f0:	00151400 	sll	v0,s5,0x10
800084f4:	8e240014 	lw	a0,20(s1)
800084f8:	8e230008 	lw	v1,8(s1)
800084fc:	24820001 	addiu	v0,a0,1
80008500:	00641821 	addu	v1,v1,a0
80008504:	ae220014 	sw	v0,20(s1)
80008508:	24020030 	li	v0,48
8000850c:	a0620000 	sb	v0,0(v1)
80008510:	8e220024 	lw	v0,36(s1)
80008514:	1c400005 	bgtz	v0,8000852c <_Genld+0x128>
80008518:	00000000 	nop
8000851c:	8e220030 	lw	v0,48(s1)
80008520:	30420008 	andi	v0,v0,0x8
80008524:	10400009 	beqz	v0,8000854c <_Genld+0x148>
80008528:	00141400 	sll	v0,s4,0x10
8000852c:	8e240014 	lw	a0,20(s1)
80008530:	8e230008 	lw	v1,8(s1)
80008534:	24820001 	addiu	v0,a0,1
80008538:	00641821 	addu	v1,v1,a0
8000853c:	ae220014 	sw	v0,20(s1)
80008540:	2402002e 	li	v0,46
80008544:	a0620000 	sb	v0,0(v1)
80008548:	00141400 	sll	v0,s4,0x10
8000854c:	8e230024 	lw	v1,36(s1)
80008550:	00021403 	sra	v0,v0,0x10
80008554:	00021023 	negu	v0,v0
80008558:	0062102a 	slt	v0,v1,v0
8000855c:	54400001 	bnezl	v0,80008564 <_Genld+0x160>
80008560:	0003a023 	negu	s4,v1
80008564:	00141400 	sll	v0,s4,0x10
80008568:	8e240024 	lw	a0,36(s1)
8000856c:	00021403 	sra	v0,v0,0x10
80008570:	00021823 	negu	v1,v0
80008574:	ae230018 	sw	v1,24(s1)
80008578:	00822021 	addu	a0,a0,v0
8000857c:	00151400 	sll	v0,s5,0x10
80008580:	00021403 	sra	v0,v0,0x10
80008584:	0082102a 	slt	v0,a0,v0
80008588:	10400002 	beqz	v0,80008594 <_Genld+0x190>
8000858c:	ae240024 	sw	a0,36(s1)
80008590:	0080a821 	move	s5,a0
80008594:	02402821 	move	a1,s2
80008598:	8e220008 	lw	v0,8(s1)
8000859c:	8e240014 	lw	a0,20(s1)
800085a0:	00158400 	sll	s0,s5,0x10
800085a4:	00108403 	sra	s0,s0,0x10
800085a8:	02003021 	move	a2,s0
800085ac:	ae30001c 	sw	s0,28(s1)
800085b0:	0c001aa5 	jal	80006a94 <memcpy>
800085b4:	00442021 	addu	a0,v0,a0
800085b8:	8e220024 	lw	v0,36(s1)
800085bc:	00501023 	subu	v0,v0,s0
800085c0:	0800224f 	j	8000893c <_Genld+0x538>
800085c4:	ae220020 	sw	v0,32(s1)
800085c8:	00028403 	sra	s0,v0,0x10
800085cc:	0213102a 	slt	v0,s0,s3
800085d0:	1040001c 	beqz	v0,80008644 <_Genld+0x240>
800085d4:	02402821 	move	a1,s2
800085d8:	8e220008 	lw	v0,8(s1)
800085dc:	8e240014 	lw	a0,20(s1)
800085e0:	02003021 	move	a2,s0
800085e4:	0c001aa5 	jal	80006a94 <memcpy>
800085e8:	00442021 	addu	a0,v0,a0
800085ec:	8e230014 	lw	v1,20(s1)
800085f0:	8e240024 	lw	a0,36(s1)
800085f4:	02701023 	subu	v0,s3,s0
800085f8:	ae220018 	sw	v0,24(s1)
800085fc:	00701821 	addu	v1,v1,s0
80008600:	1c800005 	bgtz	a0,80008618 <_Genld+0x214>
80008604:	ae230014 	sw	v1,20(s1)
80008608:	8e220030 	lw	v0,48(s1)
8000860c:	30420008 	andi	v0,v0,0x8
80008610:	10400009 	beqz	v0,80008638 <_Genld+0x234>
80008614:	00000000 	nop
80008618:	8e220008 	lw	v0,8(s1)
8000861c:	8e230014 	lw	v1,20(s1)
80008620:	00431021 	addu	v0,v0,v1
80008624:	2403002e 	li	v1,46
80008628:	a0430000 	sb	v1,0(v0)
8000862c:	8e22001c 	lw	v0,28(s1)
80008630:	24420001 	addiu	v0,v0,1
80008634:	ae22001c 	sw	v0,28(s1)
80008638:	8e220024 	lw	v0,36(s1)
8000863c:	0800224f 	j	8000893c <_Genld+0x538>
80008640:	ae220020 	sw	v0,32(s1)
80008644:	8e220008 	lw	v0,8(s1)
80008648:	8e240014 	lw	a0,20(s1)
8000864c:	02603021 	move	a2,s3
80008650:	0c001aa5 	jal	80006a94 <memcpy>
80008654:	00442021 	addu	a0,v0,a0
80008658:	8e220014 	lw	v0,20(s1)
8000865c:	8e230024 	lw	v1,36(s1)
80008660:	02b4a823 	subu	s5,s5,s4
80008664:	00533021 	addu	a2,v0,s3
80008668:	1c600005 	bgtz	v1,80008680 <_Genld+0x27c>
8000866c:	ae260014 	sw	a2,20(s1)
80008670:	8e220030 	lw	v0,48(s1)
80008674:	30420008 	andi	v0,v0,0x8
80008678:	10400007 	beqz	v0,80008698 <_Genld+0x294>
8000867c:	00000000 	nop
80008680:	8e220008 	lw	v0,8(s1)
80008684:	24c30001 	addiu	v1,a2,1
80008688:	ae230014 	sw	v1,20(s1)
8000868c:	2403002e 	li	v1,46
80008690:	00461021 	addu	v0,v0,a2
80008694:	a0430000 	sb	v1,0(v0)
80008698:	8e230024 	lw	v1,36(s1)
8000869c:	00151400 	sll	v0,s5,0x10
800086a0:	00021403 	sra	v0,v0,0x10
800086a4:	0062102a 	slt	v0,v1,v0
800086a8:	54400001 	bnezl	v0,800086b0 <_Genld+0x2ac>
800086ac:	0060a821 	move	s5,v1
800086b0:	00142c00 	sll	a1,s4,0x10
800086b4:	00052c03 	sra	a1,a1,0x10
800086b8:	02452821 	addu	a1,s2,a1
800086bc:	8e220008 	lw	v0,8(s1)
800086c0:	8e240014 	lw	a0,20(s1)
800086c4:	00158400 	sll	s0,s5,0x10
800086c8:	00108403 	sra	s0,s0,0x10
800086cc:	02003021 	move	a2,s0
800086d0:	0c001aa5 	jal	80006a94 <memcpy>
800086d4:	00442021 	addu	a0,v0,a0
800086d8:	8e220014 	lw	v0,20(s1)
800086dc:	8e230024 	lw	v1,36(s1)
800086e0:	00501021 	addu	v0,v0,s0
800086e4:	00701823 	subu	v1,v1,s0
800086e8:	ae220014 	sw	v0,20(s1)
800086ec:	0800224f 	j	8000893c <_Genld+0x538>
800086f0:	ae230018 	sw	v1,24(s1)
800086f4:	00021603 	sra	v0,v0,0x18
800086f8:	38430067 	xori	v1,v0,0x67
800086fc:	2c640001 	sltiu	a0,v1,1
80008700:	38420047 	xori	v0,v0,0x47
80008704:	2c420001 	sltiu	v0,v0,1
80008708:	00821025 	or	v0,a0,v0
8000870c:	1040000e 	beqz	v0,80008748 <_Genld+0x344>
80008710:	00151c00 	sll	v1,s5,0x10
80008714:	8e220024 	lw	v0,36(s1)
80008718:	00031c03 	sra	v1,v1,0x10
8000871c:	0062102a 	slt	v0,v1,v0
80008720:	54400001 	bnezl	v0,80008728 <_Genld+0x324>
80008724:	ae230024 	sw	v1,36(s1)
80008728:	8e220024 	lw	v0,36(s1)
8000872c:	2442ffff 	addiu	v0,v0,-1
80008730:	04410002 	bgez	v0,8000873c <_Genld+0x338>
80008734:	ae220024 	sw	v0,36(s1)
80008738:	ae200024 	sw	zero,36(s1)
8000873c:	00041023 	negu	v0,a0
80008740:	30420065 	andi	v0,v0,0x65
80008744:	34530045 	ori	s3,v0,0x45
80008748:	8e240014 	lw	a0,20(s1)
8000874c:	24820001 	addiu	v0,a0,1
80008750:	ae220014 	sw	v0,20(s1)
80008754:	8e220008 	lw	v0,8(s1)
80008758:	92430000 	lbu	v1,0(s2)
8000875c:	00441021 	addu	v0,v0,a0
80008760:	a0430000 	sb	v1,0(v0)
80008764:	8e220024 	lw	v0,36(s1)
80008768:	1c400005 	bgtz	v0,80008780 <_Genld+0x37c>
8000876c:	26520001 	addiu	s2,s2,1
80008770:	8e220030 	lw	v0,48(s1)
80008774:	30420008 	andi	v0,v0,0x8
80008778:	10400008 	beqz	v0,8000879c <_Genld+0x398>
8000877c:	00000000 	nop
80008780:	8e240014 	lw	a0,20(s1)
80008784:	8e230008 	lw	v1,8(s1)
80008788:	24820001 	addiu	v0,a0,1
8000878c:	00641821 	addu	v1,v1,a0
80008790:	ae220014 	sw	v0,20(s1)
80008794:	2402002e 	li	v0,46
80008798:	a0620000 	sb	v0,0(v1)
8000879c:	8e230024 	lw	v1,36(s1)
800087a0:	18600015 	blez	v1,800087f8 <_Genld+0x3f4>
800087a4:	26a2ffff 	addiu	v0,s5,-1
800087a8:	0040a821 	move	s5,v0
800087ac:	00021400 	sll	v0,v0,0x10
800087b0:	00021403 	sra	v0,v0,0x10
800087b4:	0062102a 	slt	v0,v1,v0
800087b8:	54400001 	bnezl	v0,800087c0 <_Genld+0x3bc>
800087bc:	0060a821 	move	s5,v1
800087c0:	02402821 	move	a1,s2
800087c4:	8e220008 	lw	v0,8(s1)
800087c8:	8e240014 	lw	a0,20(s1)
800087cc:	00158400 	sll	s0,s5,0x10
800087d0:	00108403 	sra	s0,s0,0x10
800087d4:	02003021 	move	a2,s0
800087d8:	0c001aa5 	jal	80006a94 <memcpy>
800087dc:	00442021 	addu	a0,v0,a0
800087e0:	8e220014 	lw	v0,20(s1)
800087e4:	8e230024 	lw	v1,36(s1)
800087e8:	00501021 	addu	v0,v0,s0
800087ec:	00701823 	subu	v1,v1,s0
800087f0:	ae220014 	sw	v0,20(s1)
800087f4:	ae230018 	sw	v1,24(s1)
800087f8:	8e220008 	lw	v0,8(s1)
800087fc:	8e230014 	lw	v1,20(s1)
80008800:	00439021 	addu	s2,v0,v1
80008804:	a2530000 	sb	s3,0(s2)
80008808:	00141400 	sll	v0,s4,0x10
8000880c:	04400005 	bltz	v0,80008824 <_Genld+0x420>
80008810:	26520001 	addiu	s2,s2,1
80008814:	2402002b 	li	v0,43
80008818:	a2420000 	sb	v0,0(s2)
8000881c:	0800220d 	j	80008834 <_Genld+0x430>
80008820:	26520001 	addiu	s2,s2,1
80008824:	2402002d 	li	v0,45
80008828:	a2420000 	sb	v0,0(s2)
8000882c:	26520001 	addiu	s2,s2,1
80008830:	0014a023 	negu	s4,s4
80008834:	00142c00 	sll	a1,s4,0x10
80008838:	00052403 	sra	a0,a1,0x10
8000883c:	28820064 	slti	v0,a0,100
80008840:	14400027 	bnez	v0,800088e0 <_Genld+0x4dc>
80008844:	3c036666 	lui	v1,0x6666
80008848:	288203e8 	slti	v0,a0,1000
8000884c:	14400012 	bnez	v0,80008898 <_Genld+0x494>
80008850:	3c0351eb 	lui	v1,0x51eb
80008854:	3c021062 	lui	v0,0x1062
80008858:	34424dd3 	ori	v0,v0,0x4dd3
8000885c:	00820018 	mult	a0,v0
80008860:	000517c3 	sra	v0,a1,0x1f
80008864:	00004010 	mfhi	t0
80008868:	00081983 	sra	v1,t0,0x6
8000886c:	00621823 	subu	v1,v1,v0
80008870:	24620030 	addiu	v0,v1,48
80008874:	a2420000 	sb	v0,0(s2)
80008878:	26520001 	addiu	s2,s2,1
8000887c:	00031140 	sll	v0,v1,0x5
80008880:	00431023 	subu	v0,v0,v1
80008884:	00021080 	sll	v0,v0,0x2
80008888:	00431021 	addu	v0,v0,v1
8000888c:	000210c0 	sll	v0,v0,0x3
80008890:	0082a023 	subu	s4,a0,v0
80008894:	3c0351eb 	lui	v1,0x51eb
80008898:	3463851f 	ori	v1,v1,0x851f
8000889c:	00141400 	sll	v0,s4,0x10
800088a0:	00022403 	sra	a0,v0,0x10
800088a4:	00830018 	mult	a0,v1
800088a8:	000217c3 	sra	v0,v0,0x1f
800088ac:	00004010 	mfhi	t0
800088b0:	00081943 	sra	v1,t0,0x5
800088b4:	00621823 	subu	v1,v1,v0
800088b8:	24620030 	addiu	v0,v1,48
800088bc:	a2420000 	sb	v0,0(s2)
800088c0:	26520001 	addiu	s2,s2,1
800088c4:	00031040 	sll	v0,v1,0x1
800088c8:	00431021 	addu	v0,v0,v1
800088cc:	000210c0 	sll	v0,v0,0x3
800088d0:	00431021 	addu	v0,v0,v1
800088d4:	00021080 	sll	v0,v0,0x2
800088d8:	0082a023 	subu	s4,a0,v0
800088dc:	3c036666 	lui	v1,0x6666
800088e0:	34636667 	ori	v1,v1,0x6667
800088e4:	00141400 	sll	v0,s4,0x10
800088e8:	00022403 	sra	a0,v0,0x10
800088ec:	00830018 	mult	a0,v1
800088f0:	000217c3 	sra	v0,v0,0x1f
800088f4:	00004010 	mfhi	t0
800088f8:	00081883 	sra	v1,t0,0x2
800088fc:	00621823 	subu	v1,v1,v0
80008900:	24620030 	addiu	v0,v1,48
80008904:	a2420000 	sb	v0,0(s2)
80008908:	26520001 	addiu	s2,s2,1
8000890c:	00031080 	sll	v0,v1,0x2
80008910:	00431021 	addu	v0,v0,v1
80008914:	00021040 	sll	v0,v0,0x1
80008918:	00822023 	subu	a0,a0,v0
8000891c:	24840030 	addiu	a0,a0,48
80008920:	a2440000 	sb	a0,0(s2)
80008924:	8e220008 	lw	v0,8(s1)
80008928:	8e230014 	lw	v1,20(s1)
8000892c:	26520001 	addiu	s2,s2,1
80008930:	00431021 	addu	v0,v0,v1
80008934:	02421023 	subu	v0,s2,v0
80008938:	ae22001c 	sw	v0,28(s1)
8000893c:	8e220030 	lw	v0,48(s1)
80008940:	24030010 	li	v1,16
80008944:	30420014 	andi	v0,v0,0x14
80008948:	1443000f 	bne	v0,v1,80008988 <_Genld+0x584>
8000894c:	00000000 	nop
80008950:	8e22000c 	lw	v0,12(s1)
80008954:	8e230014 	lw	v1,20(s1)
80008958:	8e240018 	lw	a0,24(s1)
8000895c:	00431021 	addu	v0,v0,v1
80008960:	00441021 	addu	v0,v0,a0
80008964:	8e23001c 	lw	v1,28(s1)
80008968:	8e240020 	lw	a0,32(s1)
8000896c:	8e250028 	lw	a1,40(s1)
80008970:	00431021 	addu	v0,v0,v1
80008974:	00441821 	addu	v1,v0,a0
80008978:	0065102a 	slt	v0,v1,a1
8000897c:	10400002 	beqz	v0,80008988 <_Genld+0x584>
80008980:	00a31023 	subu	v0,a1,v1
80008984:	ae220010 	sw	v0,16(s1)
80008988:	8fbf0028 	lw	ra,40(sp)
8000898c:	8fb50024 	lw	s5,36(sp)
80008990:	8fb40020 	lw	s4,32(sp)
80008994:	8fb3001c 	lw	s3,28(sp)
80008998:	8fb20018 	lw	s2,24(sp)
8000899c:	8fb10014 	lw	s1,20(sp)
800089a0:	8fb00010 	lw	s0,16(sp)
800089a4:	03e00008 	jr	ra
800089a8:	27bd0030 	addiu	sp,sp,48
800089ac:	00000000 	nop

800089b0 <__osSetCompare>:
800089b0:	40845800 03e00008 00000000 00000000     @.X.............

800089c0 <__osSiDeviceBusy>:
800089c0:	3c02a480 	lui	v0,0xa480
800089c4:	34420018 	ori	v0,v0,0x18
800089c8:	8c420000 	lw	v0,0(v0)
800089cc:	30420003 	andi	v0,v0,0x3
800089d0:	03e00008 	jr	ra
800089d4:	0002102b 	sltu	v0,zero,v0
	...

800089e0 <ldiv>:
800089e0:	00a6001a 	div	zero,a1,a2
800089e4:	14c00002 	bnez	a2,800089f0 <ldiv+0x10>
800089e8:	00000000 	nop
800089ec:	0007000d 	break	0x7
800089f0:	2401ffff 	li	at,-1
800089f4:	14c10004 	bne	a2,at,80008a08 <ldiv+0x28>
800089f8:	3c018000 	lui	at,0x8000
800089fc:	14a10002 	bne	a1,at,80008a08 <ldiv+0x28>
80008a00:	00000000 	nop
80008a04:	0006000d 	break	0x6
80008a08:	00001812 	mflo	v1
	...
80008a14:	00c30018 	mult	a2,v1
80008a18:	00001012 	mflo	v0
80008a1c:	27bdfff8 	addiu	sp,sp,-8
80008a20:	00803821 	move	a3,a0
80008a24:	afa30000 	sw	v1,0(sp)
80008a28:	00a22823 	subu	a1,a1,v0
80008a2c:	04610006 	bgez	v1,80008a48 <ldiv+0x68>
80008a30:	afa50004 	sw	a1,4(sp)
80008a34:	18a00004 	blez	a1,80008a48 <ldiv+0x68>
80008a38:	24620001 	addiu	v0,v1,1
80008a3c:	afa20000 	sw	v0,0(sp)
80008a40:	00a61023 	subu	v0,a1,a2
80008a44:	afa20004 	sw	v0,4(sp)
80008a48:	8fa20000 	lw	v0,0(sp)
80008a4c:	8fa30004 	lw	v1,4(sp)
80008a50:	ace20000 	sw	v0,0(a3)
80008a54:	ace30004 	sw	v1,4(a3)
80008a58:	00e01021 	move	v0,a3
80008a5c:	03e00008 	jr	ra
80008a60:	27bd0008 	addiu	sp,sp,8

80008a64 <lldiv>:
80008a64:	27bdffc8 	addiu	sp,sp,-56
80008a68:	afb3002c 	sw	s3,44(sp)
80008a6c:	afb20028 	sw	s2,40(sp)
80008a70:	8fb20048 	lw	s2,72(sp)
80008a74:	8fb3004c 	lw	s3,76(sp)
80008a78:	afb40030 	sw	s4,48(sp)
80008a7c:	0080a021 	move	s4,a0
80008a80:	afb10024 	sw	s1,36(sp)
80008a84:	afb00020 	sw	s0,32(sp)
80008a88:	00c08021 	move	s0,a2
80008a8c:	00e08821 	move	s1,a3
80008a90:	02002021 	move	a0,s0
80008a94:	02202821 	move	a1,s1
80008a98:	afbf0034 	sw	ra,52(sp)
80008a9c:	02403021 	move	a2,s2
80008aa0:	0c0022e8 	jal	80008ba0 <__divdi3>
80008aa4:	02603821 	move	a3,s3
80008aa8:	00403021 	move	a2,v0
80008aac:	00603821 	move	a3,v1
80008ab0:	02670019 	multu	s3,a3
80008ab4:	00001010 	mfhi	v0
80008ab8:	00001812 	mflo	v1
	...
80008ac4:	02660018 	mult	s3,a2
80008ac8:	00002012 	mflo	a0
	...
80008ad4:	00f20018 	mult	a3,s2
80008ad8:	00002812 	mflo	a1
80008adc:	afa60010 	sw	a2,16(sp)
80008ae0:	afa70014 	sw	a3,20(sp)
80008ae4:	00441021 	addu	v0,v0,a0
80008ae8:	8fa40010 	lw	a0,16(sp)
80008aec:	00451021 	addu	v0,v0,a1
80008af0:	0223282b 	sltu	a1,s1,v1
80008af4:	02234823 	subu	t1,s1,v1
80008af8:	02024023 	subu	t0,s0,v0
80008afc:	01054023 	subu	t0,t0,a1
80008b00:	afa80018 	sw	t0,24(sp)
80008b04:	04810013 	bgez	a0,80008b54 <lldiv+0xf0>
80008b08:	afa9001c 	sw	t1,28(sp)
80008b0c:	8fa20018 	lw	v0,24(sp)
80008b10:	5c400006 	bgtzl	v0,80008b2c <lldiv+0xc8>
80008b14:	24e30001 	addiu	v1,a3,1
80008b18:	1440000e 	bnez	v0,80008b54 <lldiv+0xf0>
80008b1c:	00000000 	nop
80008b20:	8fa2001c 	lw	v0,28(sp)
80008b24:	1040000b 	beqz	v0,80008b54 <lldiv+0xf0>
80008b28:	24e30001 	addiu	v1,a3,1
80008b2c:	2c640001 	sltiu	a0,v1,1
80008b30:	00c41021 	addu	v0,a2,a0
80008b34:	afa20010 	sw	v0,16(sp)
80008b38:	afa30014 	sw	v1,20(sp)
80008b3c:	0133202b 	sltu	a0,t1,s3
80008b40:	01331823 	subu	v1,t1,s3
80008b44:	01121023 	subu	v0,t0,s2
80008b48:	00441023 	subu	v0,v0,a0
80008b4c:	afa20018 	sw	v0,24(sp)
80008b50:	afa3001c 	sw	v1,28(sp)
80008b54:	8fa20010 	lw	v0,16(sp)
80008b58:	8fa30014 	lw	v1,20(sp)
80008b5c:	8fa40018 	lw	a0,24(sp)
80008b60:	8fa5001c 	lw	a1,28(sp)
80008b64:	ae820000 	sw	v0,0(s4)
80008b68:	ae830004 	sw	v1,4(s4)
80008b6c:	ae840008 	sw	a0,8(s4)
80008b70:	ae85000c 	sw	a1,12(s4)
80008b74:	02801021 	move	v0,s4
80008b78:	8fbf0034 	lw	ra,52(sp)
80008b7c:	8fb40030 	lw	s4,48(sp)
80008b80:	8fb3002c 	lw	s3,44(sp)
80008b84:	8fb20028 	lw	s2,40(sp)
80008b88:	8fb10024 	lw	s1,36(sp)
80008b8c:	8fb00020 	lw	s0,32(sp)
80008b90:	03e00008 	jr	ra
80008b94:	27bd0038 	addiu	sp,sp,56
	...

80008ba0 <__divdi3>:
80008ba0:	04810006 	bgez	a0,80008bbc <__divdi3+0x1c>
80008ba4:	00004025 	move	t0,zero
80008ba8:	0005102b 	sltu	v0,zero,a1
80008bac:	00042023 	negu	a0,a0
80008bb0:	00822023 	subu	a0,a0,v0
80008bb4:	00052823 	negu	a1,a1
80008bb8:	2408ffff 	li	t0,-1
80008bbc:	04c10007 	bgez	a2,80008bdc <__divdi3+0x3c>
80008bc0:	00c06025 	move	t4,a2
80008bc4:	0007102b 	sltu	v0,zero,a3
80008bc8:	00063023 	negu	a2,a2
80008bcc:	00084027 	nor	t0,zero,t0
80008bd0:	00c23023 	subu	a2,a2,v0
80008bd4:	00073823 	negu	a3,a3
80008bd8:	00c06025 	move	t4,a2
80008bdc:	00e04825 	move	t1,a3
80008be0:	00a05025 	move	t2,a1
80008be4:	14c0004f 	bnez	a2,80008d24 <__divdi3+0x184>
80008be8:	00801025 	move	v0,a0
80008bec:	0087302b 	sltu	a2,a0,a3
80008bf0:	10c00071 	beqz	a2,80008db8 <__divdi3+0x218>
80008bf4:	3c060001 	lui	a2,0x1
80008bf8:	00e6302b 	sltu	a2,a3,a2
80008bfc:	14c000bf 	bnez	a2,80008efc <__divdi3+0x35c>
80008c00:	2ce30100 	sltiu	v1,a3,256
80008c04:	3c030100 	lui	v1,0x100
80008c08:	00e3182b 	sltu	v1,a3,v1
80008c0c:	14600157 	bnez	v1,8000916c <__divdi3+0x5cc>
80008c10:	00073402 	srl	a2,a3,0x10
80008c14:	00073602 	srl	a2,a3,0x18
80008c18:	240c0018 	li	t4,24
80008c1c:	3c0b8001 	lui	t3,0x8001
80008c20:	256bdb70 	addiu	t3,t3,-9360
80008c24:	00cb3021 	addu	a2,a2,t3
80008c28:	90c30000 	lbu	v1,0(a2)
80008c2c:	24060020 	li	a2,32
80008c30:	006c1821 	addu	v1,v1,t4
80008c34:	10c30006 	beq	a2,v1,80008c50 <__divdi3+0xb0>
80008c38:	00c35823 	subu	t3,a2,v1
80008c3c:	01643004 	sllv	a2,a0,t3
80008c40:	00651806 	srlv	v1,a1,v1
80008c44:	01674804 	sllv	t1,a3,t3
80008c48:	00661025 	or	v0,v1,a2
80008c4c:	01655004 	sllv	t2,a1,t3
80008c50:	00092c02 	srl	a1,t1,0x10
80008c54:	0045001b 	divu	zero,v0,a1
80008c58:	00a001f4 	teq	a1,zero,0x7
80008c5c:	312bffff 	andi	t3,t1,0xffff
80008c60:	000a1402 	srl	v0,t2,0x10
80008c64:	00006012 	mflo	t4
80008c68:	00002010 	mfhi	a0
80008c6c:	00042400 	sll	a0,a0,0x10
80008c70:	00821025 	or	v0,a0,v0
80008c74:	00001812 	mflo	v1
	...
80008c80:	016c0018 	mult	t3,t4
80008c84:	00003812 	mflo	a3
80008c88:	0047202b 	sltu	a0,v0,a3
80008c8c:	50800009 	beqzl	a0,80008cb4 <__divdi3+0x114>
80008c90:	00471023 	subu	v0,v0,a3
80008c94:	00491021 	addu	v0,v0,t1
80008c98:	0049202b 	sltu	a0,v0,t1
80008c9c:	14800004 	bnez	a0,80008cb0 <__divdi3+0x110>
80008ca0:	2583ffff 	addiu	v1,t4,-1
80008ca4:	0047202b 	sltu	a0,v0,a3
80008ca8:	54800132 	bnezl	a0,80009174 <__divdi3+0x5d4>
80008cac:	2583fffe 	addiu	v1,t4,-2
80008cb0:	00471023 	subu	v0,v0,a3
80008cb4:	0045001b 	divu	zero,v0,a1
80008cb8:	00a001f4 	teq	a1,zero,0x7
80008cbc:	314affff 	andi	t2,t2,0xffff
80008cc0:	00003812 	mflo	a3
80008cc4:	00001010 	mfhi	v0
80008cc8:	00021400 	sll	v0,v0,0x10
80008ccc:	004a1025 	or	v0,v0,t2
80008cd0:	00002812 	mflo	a1
	...
80008cdc:	01670018 	mult	t3,a3
80008ce0:	00003012 	mflo	a2
80008ce4:	0046202b 	sltu	a0,v0,a2
80008ce8:	50800009 	beqzl	a0,80008d10 <__divdi3+0x170>
80008cec:	00031c00 	sll	v1,v1,0x10
80008cf0:	01221021 	addu	v0,t1,v0
80008cf4:	0049482b 	sltu	t1,v0,t1
80008cf8:	15200004 	bnez	t1,80008d0c <__divdi3+0x16c>
80008cfc:	24e5ffff 	addiu	a1,a3,-1
80008d00:	0046102b 	sltu	v0,v0,a2
80008d04:	54400001 	bnezl	v0,80008d0c <__divdi3+0x16c>
80008d08:	24e5fffe 	addiu	a1,a3,-2
80008d0c:	00031c00 	sll	v1,v1,0x10
80008d10:	00651825 	or	v1,v1,a1
80008d14:	1500000a 	bnez	t0,80008d40 <__divdi3+0x1a0>
80008d18:	00001025 	move	v0,zero
80008d1c:	03e00008 	jr	ra
80008d20:	00000000 	nop
80008d24:	0086102b 	sltu	v0,a0,a2
80008d28:	1040000b 	beqz	v0,80008d58 <__divdi3+0x1b8>
80008d2c:	3c020001 	lui	v0,0x1
80008d30:	00001825 	move	v1,zero
80008d34:	00001025 	move	v0,zero
80008d38:	1100fff8 	beqz	t0,80008d1c <__divdi3+0x17c>
80008d3c:	00000000 	nop
80008d40:	0003202b 	sltu	a0,zero,v1
80008d44:	00021023 	negu	v0,v0
80008d48:	00441023 	subu	v0,v0,a0
80008d4c:	00031823 	negu	v1,v1
80008d50:	03e00008 	jr	ra
80008d54:	00000000 	nop
80008d58:	00c2102b 	sltu	v0,a2,v0
80008d5c:	1440006c 	bnez	v0,80008f10 <__divdi3+0x370>
80008d60:	2cc20100 	sltiu	v0,a2,256
80008d64:	3c020100 	lui	v0,0x100
80008d68:	00c2102b 	sltu	v0,a2,v0
80008d6c:	144000fb 	bnez	v0,8000915c <__divdi3+0x5bc>
80008d70:	00064c02 	srl	t1,a2,0x10
80008d74:	00064e02 	srl	t1,a2,0x18
80008d78:	240a0018 	li	t2,24
80008d7c:	3c028001 	lui	v0,0x8001
80008d80:	2442db70 	addiu	v0,v0,-9360
80008d84:	01221021 	addu	v0,t1,v0
80008d88:	90430000 	lbu	v1,0(v0)
80008d8c:	24020020 	li	v0,32
80008d90:	006a1821 	addu	v1,v1,t2
80008d94:	14430063 	bne	v0,v1,80008f24 <__divdi3+0x384>
80008d98:	00435823 	subu	t3,v0,v1
80008d9c:	00c4302b 	sltu	a2,a2,a0
80008da0:	54c000f0 	bnezl	a2,80009164 <__divdi3+0x5c4>
80008da4:	24030001 	li	v1,1
80008da8:	00a7182b 	sltu	v1,a1,a3
80008dac:	38630001 	xori	v1,v1,0x1
80008db0:	1000ffe1 	b	80008d38 <__divdi3+0x198>
80008db4:	00001025 	move	v0,zero
80008db8:	14e00006 	bnez	a3,80008dd4 <__divdi3+0x234>
80008dbc:	3c020001 	lui	v0,0x1
80008dc0:	24020001 	li	v0,1
80008dc4:	004c001b 	divu	zero,v0,t4
80008dc8:	018001f4 	teq	t4,zero,0x7
80008dcc:	00004812 	mflo	t1
80008dd0:	3c020001 	lui	v0,0x1
80008dd4:	0122102b 	sltu	v0,t1,v0
80008dd8:	14400043 	bnez	v0,80008ee8 <__divdi3+0x348>
80008ddc:	2d230100 	sltiu	v1,t1,256
80008de0:	3c020100 	lui	v0,0x100
80008de4:	0122102b 	sltu	v0,t1,v0
80008de8:	144000d8 	bnez	v0,8000914c <__divdi3+0x5ac>
80008dec:	00091402 	srl	v0,t1,0x10
80008df0:	00091602 	srl	v0,t1,0x18
80008df4:	240c0018 	li	t4,24
80008df8:	3c068001 	lui	a2,0x8001
80008dfc:	24c6db70 	addiu	a2,a2,-9360
80008e00:	00461021 	addu	v0,v0,a2
80008e04:	90430000 	lbu	v1,0(v0)
80008e08:	24020020 	li	v0,32
80008e0c:	006c1821 	addu	v1,v1,t4
80008e10:	1443008b 	bne	v0,v1,80009040 <__divdi3+0x4a0>
80008e14:	00436023 	subu	t4,v0,v1
80008e18:	00893023 	subu	a2,a0,t1
80008e1c:	00095c02 	srl	t3,t1,0x10
80008e20:	3127ffff 	andi	a3,t1,0xffff
80008e24:	24020001 	li	v0,1
80008e28:	00cb001b 	divu	zero,a2,t3
80008e2c:	016001f4 	teq	t3,zero,0x7
80008e30:	000a2402 	srl	a0,t2,0x10
80008e34:	00006812 	mflo	t5
80008e38:	00003010 	mfhi	a2
80008e3c:	00063400 	sll	a2,a2,0x10
80008e40:	00c42025 	or	a0,a2,a0
80008e44:	00001812 	mflo	v1
	...
80008e50:	01a70018 	mult	t5,a3
80008e54:	00006012 	mflo	t4
80008e58:	008c282b 	sltu	a1,a0,t4
80008e5c:	50a00009 	beqzl	a1,80008e84 <__divdi3+0x2e4>
80008e60:	008c2023 	subu	a0,a0,t4
80008e64:	00892021 	addu	a0,a0,t1
80008e68:	0089282b 	sltu	a1,a0,t1
80008e6c:	14a00004 	bnez	a1,80008e80 <__divdi3+0x2e0>
80008e70:	25a3ffff 	addiu	v1,t5,-1
80008e74:	008c282b 	sltu	a1,a0,t4
80008e78:	54a000c0 	bnezl	a1,8000917c <__divdi3+0x5dc>
80008e7c:	25a3fffe 	addiu	v1,t5,-2
80008e80:	008c2023 	subu	a0,a0,t4
80008e84:	008b001b 	divu	zero,a0,t3
80008e88:	016001f4 	teq	t3,zero,0x7
80008e8c:	314affff 	andi	t2,t2,0xffff
80008e90:	00005812 	mflo	t3
80008e94:	00002010 	mfhi	a0
80008e98:	00042400 	sll	a0,a0,0x10
80008e9c:	008a2025 	or	a0,a0,t2
80008ea0:	00002812 	mflo	a1
	...
80008eac:	01670018 	mult	t3,a3
80008eb0:	00003012 	mflo	a2
80008eb4:	0086382b 	sltu	a3,a0,a2
80008eb8:	50e00009 	beqzl	a3,80008ee0 <__divdi3+0x340>
80008ebc:	00031c00 	sll	v1,v1,0x10
80008ec0:	01242021 	addu	a0,t1,a0
80008ec4:	0089482b 	sltu	t1,a0,t1
80008ec8:	15200004 	bnez	t1,80008edc <__divdi3+0x33c>
80008ecc:	2565ffff 	addiu	a1,t3,-1
80008ed0:	0086202b 	sltu	a0,a0,a2
80008ed4:	54800001 	bnezl	a0,80008edc <__divdi3+0x33c>
80008ed8:	2565fffe 	addiu	a1,t3,-2
80008edc:	00031c00 	sll	v1,v1,0x10
80008ee0:	1000ff95 	b	80008d38 <__divdi3+0x198>
80008ee4:	00651825 	or	v1,v1,a1
80008ee8:	1460ffc3 	bnez	v1,80008df8 <__divdi3+0x258>
80008eec:	01201025 	move	v0,t1
80008ef0:	00091202 	srl	v0,t1,0x8
80008ef4:	1000ffc0 	b	80008df8 <__divdi3+0x258>
80008ef8:	240c0008 	li	t4,8
80008efc:	1460ff47 	bnez	v1,80008c1c <__divdi3+0x7c>
80008f00:	00e03025 	move	a2,a3
80008f04:	00073202 	srl	a2,a3,0x8
80008f08:	1000ff44 	b	80008c1c <__divdi3+0x7c>
80008f0c:	240c0008 	li	t4,8
80008f10:	54400090 	bnezl	v0,80009154 <__divdi3+0x5b4>
80008f14:	00c04825 	move	t1,a2
80008f18:	00064a02 	srl	t1,a2,0x8
80008f1c:	1000ff97 	b	80008d7c <__divdi3+0x1dc>
80008f20:	240a0008 	li	t2,8
80008f24:	00671006 	srlv	v0,a3,v1
80008f28:	01663004 	sllv	a2,a2,t3
80008f2c:	00463025 	or	a2,v0,a2
80008f30:	00066402 	srl	t4,a2,0x10
80008f34:	00641006 	srlv	v0,a0,v1
80008f38:	004c001b 	divu	zero,v0,t4
80008f3c:	018001f4 	teq	t4,zero,0x7
80008f40:	30ceffff 	andi	t6,a2,0xffff
80008f44:	00651806 	srlv	v1,a1,v1
80008f48:	01642004 	sllv	a0,a0,t3
80008f4c:	00642025 	or	a0,v1,a0
80008f50:	00044c02 	srl	t1,a0,0x10
80008f54:	00007812 	mflo	t7
80008f58:	00005010 	mfhi	t2
80008f5c:	000a5400 	sll	t2,t2,0x10
80008f60:	01494825 	or	t1,t2,t1
80008f64:	00001012 	mflo	v0
	...
80008f70:	01cf0018 	mult	t6,t7
80008f74:	00006812 	mflo	t5
80008f78:	012d182b 	sltu	v1,t1,t5
80008f7c:	1060000a 	beqz	v1,80008fa8 <__divdi3+0x408>
80008f80:	01673804 	sllv	a3,a3,t3
80008f84:	01264821 	addu	t1,t1,a2
80008f88:	0126182b 	sltu	v1,t1,a2
80008f8c:	14600006 	bnez	v1,80008fa8 <__divdi3+0x408>
80008f90:	25e2ffff 	addiu	v0,t7,-1
80008f94:	012d182b 	sltu	v1,t1,t5
80008f98:	50600004 	beqzl	v1,80008fac <__divdi3+0x40c>
80008f9c:	012d4823 	subu	t1,t1,t5
80008fa0:	25e2fffe 	addiu	v0,t7,-2
80008fa4:	01264821 	addu	t1,t1,a2
80008fa8:	012d4823 	subu	t1,t1,t5
80008fac:	012c001b 	divu	zero,t1,t4
80008fb0:	018001f4 	teq	t4,zero,0x7
80008fb4:	3084ffff 	andi	a0,a0,0xffff
80008fb8:	00006012 	mflo	t4
80008fbc:	00004810 	mfhi	t1
80008fc0:	00094c00 	sll	t1,t1,0x10
80008fc4:	01242025 	or	a0,t1,a0
80008fc8:	00001812 	mflo	v1
	...
80008fd4:	01cc0018 	mult	t6,t4
80008fd8:	00005012 	mflo	t2
80008fdc:	008a482b 	sltu	t1,a0,t2
80008fe0:	5120000b 	beqzl	t1,80009010 <__divdi3+0x470>
80008fe4:	00021400 	sll	v0,v0,0x10
80008fe8:	00862021 	addu	a0,a0,a2
80008fec:	0086482b 	sltu	t1,a0,a2
80008ff0:	15200006 	bnez	t1,8000900c <__divdi3+0x46c>
80008ff4:	2583ffff 	addiu	v1,t4,-1
80008ff8:	008a482b 	sltu	t1,a0,t2
80008ffc:	51200004 	beqzl	t1,80009010 <__divdi3+0x470>
80009000:	00021400 	sll	v0,v0,0x10
80009004:	2583fffe 	addiu	v1,t4,-2
80009008:	00862021 	addu	a0,a0,a2
8000900c:	00021400 	sll	v0,v0,0x10
80009010:	00431825 	or	v1,v0,v1
80009014:	00670019 	multu	v1,a3
80009018:	008a2023 	subu	a0,a0,t2
8000901c:	00003010 	mfhi	a2
80009020:	0086102b 	sltu	v0,a0,a2
80009024:	00003812 	mflo	a3
80009028:	54400046 	bnezl	v0,80009144 <__divdi3+0x5a4>
8000902c:	2463ffff 	addiu	v1,v1,-1
80009030:	50860040 	beql	a0,a2,80009134 <__divdi3+0x594>
80009034:	01652804 	sllv	a1,a1,t3
80009038:	1000ff3f 	b	80008d38 <__divdi3+0x198>
8000903c:	00001025 	move	v0,zero
80009040:	01894804 	sllv	t1,t1,t4
80009044:	00641006 	srlv	v0,a0,v1
80009048:	00095c02 	srl	t3,t1,0x10
8000904c:	004b001b 	divu	zero,v0,t3
80009050:	016001f4 	teq	t3,zero,0x7
80009054:	3127ffff 	andi	a3,t1,0xffff
80009058:	00651806 	srlv	v1,a1,v1
8000905c:	01855004 	sllv	t2,a1,t4
80009060:	01843004 	sllv	a2,a0,t4
80009064:	00663025 	or	a2,v1,a2
80009068:	00067402 	srl	t6,a2,0x10
8000906c:	00006812 	mflo	t5
80009070:	00001010 	mfhi	v0
80009074:	00021c00 	sll	v1,v0,0x10
80009078:	006e1025 	or	v0,v1,t6
8000907c:	00002812 	mflo	a1
	...
80009088:	00ed0018 	mult	a3,t5
8000908c:	00002012 	mflo	a0
80009090:	0044182b 	sltu	v1,v0,a0
80009094:	5060000b 	beqzl	v1,800090c4 <__divdi3+0x524>
80009098:	00441023 	subu	v0,v0,a0
8000909c:	00491021 	addu	v0,v0,t1
800090a0:	0049182b 	sltu	v1,v0,t1
800090a4:	14600006 	bnez	v1,800090c0 <__divdi3+0x520>
800090a8:	25a5ffff 	addiu	a1,t5,-1
800090ac:	0044182b 	sltu	v1,v0,a0
800090b0:	50600004 	beqzl	v1,800090c4 <__divdi3+0x524>
800090b4:	00441023 	subu	v0,v0,a0
800090b8:	25a5fffe 	addiu	a1,t5,-2
800090bc:	00491021 	addu	v0,v0,t1
800090c0:	00441023 	subu	v0,v0,a0
800090c4:	004b001b 	divu	zero,v0,t3
800090c8:	016001f4 	teq	t3,zero,0x7
800090cc:	30c3ffff 	andi	v1,a2,0xffff
800090d0:	00006812 	mflo	t5
800090d4:	00001010 	mfhi	v0
800090d8:	00023400 	sll	a2,v0,0x10
800090dc:	00c33025 	or	a2,a2,v1
800090e0:	00006012 	mflo	t4
	...
800090ec:	00ed0018 	mult	a3,t5
800090f0:	00002012 	mflo	a0
800090f4:	00c4102b 	sltu	v0,a2,a0
800090f8:	1040000b 	beqz	v0,80009128 <__divdi3+0x588>
800090fc:	00051400 	sll	v0,a1,0x10
80009100:	00c93021 	addu	a2,a2,t1
80009104:	00c9102b 	sltu	v0,a2,t1
80009108:	14400006 	bnez	v0,80009124 <__divdi3+0x584>
8000910c:	25acffff 	addiu	t4,t5,-1
80009110:	00c4102b 	sltu	v0,a2,a0
80009114:	50400004 	beqzl	v0,80009128 <__divdi3+0x588>
80009118:	00051400 	sll	v0,a1,0x10
8000911c:	25acfffe 	addiu	t4,t5,-2
80009120:	00c93021 	addu	a2,a2,t1
80009124:	00051400 	sll	v0,a1,0x10
80009128:	00c43023 	subu	a2,a2,a0
8000912c:	1000ff3e 	b	80008e28 <__divdi3+0x288>
80009130:	004c1025 	or	v0,v0,t4
80009134:	00a7282b 	sltu	a1,a1,a3
80009138:	50a0feff 	beqzl	a1,80008d38 <__divdi3+0x198>
8000913c:	00001025 	move	v0,zero
80009140:	2463ffff 	addiu	v1,v1,-1
80009144:	1000fefc 	b	80008d38 <__divdi3+0x198>
80009148:	00001025 	move	v0,zero
8000914c:	1000ff2a 	b	80008df8 <__divdi3+0x258>
80009150:	240c0010 	li	t4,16
80009154:	1000ff09 	b	80008d7c <__divdi3+0x1dc>
80009158:	00005025 	move	t2,zero
8000915c:	1000ff07 	b	80008d7c <__divdi3+0x1dc>
80009160:	240a0010 	li	t2,16
80009164:	1000fef4 	b	80008d38 <__divdi3+0x198>
80009168:	00001025 	move	v0,zero
8000916c:	1000feab 	b	80008c1c <__divdi3+0x7c>
80009170:	240c0010 	li	t4,16
80009174:	1000fece 	b	80008cb0 <__divdi3+0x110>
80009178:	00491021 	addu	v0,v0,t1
8000917c:	1000ff40 	b	80008e80 <__divdi3+0x2e0>
80009180:	00892021 	addu	a0,a0,t1

80009184 <__udivdi3>:
80009184:	00c01825 	move	v1,a2
80009188:	00a04025 	move	t0,a1
8000918c:	14c0004f 	bnez	a2,800092cc <__udivdi3+0x148>
80009190:	00801025 	move	v0,a0
80009194:	0087302b 	sltu	a2,a0,a3
80009198:	10c0006c 	beqz	a2,8000934c <__udivdi3+0x1c8>
8000919c:	3c060001 	lui	a2,0x1
800091a0:	00e6302b 	sltu	a2,a3,a2
800091a4:	14c000bc 	bnez	a2,80009498 <__udivdi3+0x314>
800091a8:	2ce90100 	sltiu	t1,a3,256
800091ac:	3c030100 	lui	v1,0x100
800091b0:	00e3182b 	sltu	v1,a3,v1
800091b4:	14600157 	bnez	v1,80009714 <__udivdi3+0x590>
800091b8:	00073402 	srl	a2,a3,0x10
800091bc:	00073602 	srl	a2,a3,0x18
800091c0:	24030018 	li	v1,24
800091c4:	3c098001 	lui	t1,0x8001
800091c8:	2529db70 	addiu	t1,t1,-9360
800091cc:	00c93021 	addu	a2,a2,t1
800091d0:	90c60000 	lbu	a2,0(a2)
800091d4:	24090020 	li	t1,32
800091d8:	00c33021 	addu	a2,a2,v1
800091dc:	11260006 	beq	t1,a2,800091f8 <__udivdi3+0x74>
800091e0:	01261823 	subu	v1,t1,a2
800091e4:	00641004 	sllv	v0,a0,v1
800091e8:	00c53006 	srlv	a2,a1,a2
800091ec:	00673804 	sllv	a3,a3,v1
800091f0:	00c21025 	or	v0,a2,v0
800091f4:	00654004 	sllv	t0,a1,v1
800091f8:	00071c02 	srl	v1,a3,0x10
800091fc:	0043001b 	divu	zero,v0,v1
80009200:	006001f4 	teq	v1,zero,0x7
80009204:	30eaffff 	andi	t2,a3,0xffff
80009208:	00081402 	srl	v0,t0,0x10
8000920c:	00005812 	mflo	t3
80009210:	00002010 	mfhi	a0
80009214:	00042400 	sll	a0,a0,0x10
80009218:	00821025 	or	v0,a0,v0
8000921c:	00002812 	mflo	a1
	...
80009228:	014b0018 	mult	t2,t3
8000922c:	00004812 	mflo	t1
80009230:	0049202b 	sltu	a0,v0,t1
80009234:	50800009 	beqzl	a0,8000925c <__udivdi3+0xd8>
80009238:	00491023 	subu	v0,v0,t1
8000923c:	00471021 	addu	v0,v0,a3
80009240:	0047202b 	sltu	a0,v0,a3
80009244:	14800004 	bnez	a0,80009258 <__udivdi3+0xd4>
80009248:	2565ffff 	addiu	a1,t3,-1
8000924c:	0049202b 	sltu	a0,v0,t1
80009250:	54800132 	bnezl	a0,8000971c <__udivdi3+0x598>
80009254:	2565fffe 	addiu	a1,t3,-2
80009258:	00491023 	subu	v0,v0,t1
8000925c:	0043001b 	divu	zero,v0,v1
80009260:	006001f4 	teq	v1,zero,0x7
80009264:	3108ffff 	andi	t0,t0,0xffff
80009268:	00004812 	mflo	t1
8000926c:	00001010 	mfhi	v0
80009270:	00021400 	sll	v0,v0,0x10
80009274:	00481025 	or	v0,v0,t0
80009278:	00002012 	mflo	a0
	...
80009284:	01490018 	mult	t2,t1
80009288:	00003012 	mflo	a2
8000928c:	0046182b 	sltu	v1,v0,a2
80009290:	50600009 	beqzl	v1,800092b8 <__udivdi3+0x134>
80009294:	00053c00 	sll	a3,a1,0x10
80009298:	00e21021 	addu	v0,a3,v0
8000929c:	0047382b 	sltu	a3,v0,a3
800092a0:	14e00004 	bnez	a3,800092b4 <__udivdi3+0x130>
800092a4:	2524ffff 	addiu	a0,t1,-1
800092a8:	0046102b 	sltu	v0,v0,a2
800092ac:	54400001 	bnezl	v0,800092b4 <__udivdi3+0x130>
800092b0:	2524fffe 	addiu	a0,t1,-2
800092b4:	00053c00 	sll	a3,a1,0x10
800092b8:	00e43825 	or	a3,a3,a0
800092bc:	00001025 	move	v0,zero
800092c0:	00e01825 	move	v1,a3
800092c4:	03e00008 	jr	ra
800092c8:	00000000 	nop
800092cc:	0086102b 	sltu	v0,a0,a2
800092d0:	50400006 	beqzl	v0,800092ec <__udivdi3+0x168>
800092d4:	3c020001 	lui	v0,0x1
800092d8:	00003825 	move	a3,zero
800092dc:	00001025 	move	v0,zero
800092e0:	00e01825 	move	v1,a3
800092e4:	03e00008 	jr	ra
800092e8:	00000000 	nop
800092ec:	00c2102b 	sltu	v0,a2,v0
800092f0:	1440006e 	bnez	v0,800094ac <__udivdi3+0x328>
800092f4:	2cc20100 	sltiu	v0,a2,256
800092f8:	3c020100 	lui	v0,0x100
800092fc:	00c2102b 	sltu	v0,a2,v0
80009300:	14400100 	bnez	v0,80009704 <__udivdi3+0x580>
80009304:	00064402 	srl	t0,a2,0x10
80009308:	00064602 	srl	t0,a2,0x18
8000930c:	24090018 	li	t1,24
80009310:	3c028001 	lui	v0,0x8001
80009314:	2442db70 	addiu	v0,v0,-9360
80009318:	01021021 	addu	v0,t0,v0
8000931c:	90430000 	lbu	v1,0(v0)
80009320:	24020020 	li	v0,32
80009324:	00691821 	addu	v1,v1,t1
80009328:	14430065 	bne	v0,v1,800094c0 <__udivdi3+0x33c>
8000932c:	00435023 	subu	t2,v0,v1
80009330:	00c4102b 	sltu	v0,a2,a0
80009334:	544000f5 	bnezl	v0,8000970c <__udivdi3+0x588>
80009338:	24070001 	li	a3,1
8000933c:	00a7382b 	sltu	a3,a1,a3
80009340:	38e70001 	xori	a3,a3,0x1
80009344:	1000ffe6 	b	800092e0 <__udivdi3+0x15c>
80009348:	00001025 	move	v0,zero
8000934c:	14e00006 	bnez	a3,80009368 <__udivdi3+0x1e4>
80009350:	3c020001 	lui	v0,0x1
80009354:	24020001 	li	v0,1
80009358:	0047001b 	divu	zero,v0,a3
8000935c:	00e001f4 	teq	a3,zero,0x7
80009360:	00003812 	mflo	a3
80009364:	3c020001 	lui	v0,0x1
80009368:	00e2102b 	sltu	v0,a3,v0
8000936c:	14400045 	bnez	v0,80009484 <__udivdi3+0x300>
80009370:	2ce60100 	sltiu	a2,a3,256
80009374:	3c020100 	lui	v0,0x100
80009378:	00e2102b 	sltu	v0,a3,v0
8000937c:	144000dd 	bnez	v0,800096f4 <__udivdi3+0x570>
80009380:	00071402 	srl	v0,a3,0x10
80009384:	00071602 	srl	v0,a3,0x18
80009388:	24030018 	li	v1,24
8000938c:	3c068001 	lui	a2,0x8001
80009390:	24c6db70 	addiu	a2,a2,-9360
80009394:	00461021 	addu	v0,v0,a2
80009398:	90460000 	lbu	a2,0(v0)
8000939c:	24020020 	li	v0,32
800093a0:	00c33021 	addu	a2,a2,v1
800093a4:	14460090 	bne	v0,a2,800095e8 <__udivdi3+0x464>
800093a8:	00465823 	subu	t3,v0,a2
800093ac:	00871823 	subu	v1,a0,a3
800093b0:	00075402 	srl	t2,a3,0x10
800093b4:	30e9ffff 	andi	t1,a3,0xffff
800093b8:	24020001 	li	v0,1
800093bc:	006a001b 	divu	zero,v1,t2
800093c0:	014001f4 	teq	t2,zero,0x7
800093c4:	00081c02 	srl	v1,t0,0x10
800093c8:	00006012 	mflo	t4
800093cc:	00002010 	mfhi	a0
800093d0:	00042400 	sll	a0,a0,0x10
800093d4:	00831825 	or	v1,a0,v1
800093d8:	00002812 	mflo	a1
	...
800093e4:	01890018 	mult	t4,t1
800093e8:	00005812 	mflo	t3
800093ec:	006b202b 	sltu	a0,v1,t3
800093f0:	50800009 	beqzl	a0,80009418 <__udivdi3+0x294>
800093f4:	006b1823 	subu	v1,v1,t3
800093f8:	00671821 	addu	v1,v1,a3
800093fc:	0067202b 	sltu	a0,v1,a3
80009400:	14800004 	bnez	a0,80009414 <__udivdi3+0x290>
80009404:	2585ffff 	addiu	a1,t4,-1
80009408:	006b202b 	sltu	a0,v1,t3
8000940c:	548000c5 	bnezl	a0,80009724 <__udivdi3+0x5a0>
80009410:	2585fffe 	addiu	a1,t4,-2
80009414:	006b1823 	subu	v1,v1,t3
80009418:	006a001b 	divu	zero,v1,t2
8000941c:	014001f4 	teq	t2,zero,0x7
80009420:	3108ffff 	andi	t0,t0,0xffff
80009424:	00005012 	mflo	t2
80009428:	00001810 	mfhi	v1
8000942c:	00031c00 	sll	v1,v1,0x10
80009430:	00681825 	or	v1,v1,t0
80009434:	00002012 	mflo	a0
	...
80009440:	01490018 	mult	t2,t1
80009444:	00003012 	mflo	a2
80009448:	0066402b 	sltu	t0,v1,a2
8000944c:	51000009 	beqzl	t0,80009474 <__udivdi3+0x2f0>
80009450:	00053c00 	sll	a3,a1,0x10
80009454:	00e31821 	addu	v1,a3,v1
80009458:	0067382b 	sltu	a3,v1,a3
8000945c:	14e00004 	bnez	a3,80009470 <__udivdi3+0x2ec>
80009460:	2544ffff 	addiu	a0,t2,-1
80009464:	0066182b 	sltu	v1,v1,a2
80009468:	54600001 	bnezl	v1,80009470 <__udivdi3+0x2ec>
8000946c:	2544fffe 	addiu	a0,t2,-2
80009470:	00053c00 	sll	a3,a1,0x10
80009474:	00e43825 	or	a3,a3,a0
80009478:	00e01825 	move	v1,a3
8000947c:	03e00008 	jr	ra
80009480:	00000000 	nop
80009484:	14c0ffc1 	bnez	a2,8000938c <__udivdi3+0x208>
80009488:	00e01025 	move	v0,a3
8000948c:	00071202 	srl	v0,a3,0x8
80009490:	1000ffbe 	b	8000938c <__udivdi3+0x208>
80009494:	24030008 	li	v1,8
80009498:	1520ff4a 	bnez	t1,800091c4 <__udivdi3+0x40>
8000949c:	00e03025 	move	a2,a3
800094a0:	00073202 	srl	a2,a3,0x8
800094a4:	1000ff47 	b	800091c4 <__udivdi3+0x40>
800094a8:	24030008 	li	v1,8
800094ac:	54400093 	bnezl	v0,800096fc <__udivdi3+0x578>
800094b0:	00c04025 	move	t0,a2
800094b4:	00064202 	srl	t0,a2,0x8
800094b8:	1000ff95 	b	80009310 <__udivdi3+0x18c>
800094bc:	24090008 	li	t1,8
800094c0:	00671006 	srlv	v0,a3,v1
800094c4:	01463004 	sllv	a2,a2,t2
800094c8:	00463025 	or	a2,v0,a2
800094cc:	00065c02 	srl	t3,a2,0x10
800094d0:	00641006 	srlv	v0,a0,v1
800094d4:	004b001b 	divu	zero,v0,t3
800094d8:	016001f4 	teq	t3,zero,0x7
800094dc:	00651806 	srlv	v1,a1,v1
800094e0:	01441004 	sllv	v0,a0,t2
800094e4:	30ccffff 	andi	t4,a2,0xffff
800094e8:	00621025 	or	v0,v1,v0
800094ec:	00024402 	srl	t0,v0,0x10
800094f0:	01477004 	sllv	t6,a3,t2
800094f4:	00006812 	mflo	t5
800094f8:	00004810 	mfhi	t1
800094fc:	00094c00 	sll	t1,t1,0x10
80009500:	01284025 	or	t0,t1,t0
80009504:	00001812 	mflo	v1
	...
80009510:	018d0018 	mult	t4,t5
80009514:	00002012 	mflo	a0
80009518:	0104382b 	sltu	a3,t0,a0
8000951c:	50e0000b 	beqzl	a3,8000954c <__udivdi3+0x3c8>
80009520:	01044023 	subu	t0,t0,a0
80009524:	01064021 	addu	t0,t0,a2
80009528:	0106382b 	sltu	a3,t0,a2
8000952c:	14e00006 	bnez	a3,80009548 <__udivdi3+0x3c4>
80009530:	25a3ffff 	addiu	v1,t5,-1
80009534:	0104382b 	sltu	a3,t0,a0
80009538:	50e00004 	beqzl	a3,8000954c <__udivdi3+0x3c8>
8000953c:	01044023 	subu	t0,t0,a0
80009540:	25a3fffe 	addiu	v1,t5,-2
80009544:	01064021 	addu	t0,t0,a2
80009548:	01044023 	subu	t0,t0,a0
8000954c:	010b001b 	divu	zero,t0,t3
80009550:	016001f4 	teq	t3,zero,0x7
80009554:	3042ffff 	andi	v0,v0,0xffff
80009558:	00004812 	mflo	t1
8000955c:	00004010 	mfhi	t0
80009560:	00084400 	sll	t0,t0,0x10
80009564:	01021025 	or	v0,t0,v0
80009568:	00003812 	mflo	a3
	...
80009574:	01890018 	mult	t4,t1
80009578:	00002012 	mflo	a0
8000957c:	0044402b 	sltu	t0,v0,a0
80009580:	5100000b 	beqzl	t0,800095b0 <__udivdi3+0x42c>
80009584:	00031c00 	sll	v1,v1,0x10
80009588:	00461021 	addu	v0,v0,a2
8000958c:	0046402b 	sltu	t0,v0,a2
80009590:	15000006 	bnez	t0,800095ac <__udivdi3+0x428>
80009594:	2527ffff 	addiu	a3,t1,-1
80009598:	0044402b 	sltu	t0,v0,a0
8000959c:	51000004 	beqzl	t0,800095b0 <__udivdi3+0x42c>
800095a0:	00031c00 	sll	v1,v1,0x10
800095a4:	2527fffe 	addiu	a3,t1,-2
800095a8:	00461021 	addu	v0,v0,a2
800095ac:	00031c00 	sll	v1,v1,0x10
800095b0:	00673825 	or	a3,v1,a3
800095b4:	00ee0019 	multu	a3,t6
800095b8:	00441023 	subu	v0,v0,a0
800095bc:	00004010 	mfhi	t0
800095c0:	0048182b 	sltu	v1,v0,t0
800095c4:	00004812 	mflo	t1
800095c8:	54600048 	bnezl	v1,800096ec <__udivdi3+0x568>
800095cc:	24e7ffff 	addiu	a3,a3,-1
800095d0:	50480042 	beql	v0,t0,800096dc <__udivdi3+0x558>
800095d4:	01452804 	sllv	a1,a1,t2
800095d8:	00001025 	move	v0,zero
800095dc:	00e01825 	move	v1,a3
800095e0:	03e00008 	jr	ra
800095e4:	00000000 	nop
800095e8:	01673804 	sllv	a3,a3,t3
800095ec:	00c41006 	srlv	v0,a0,a2
800095f0:	00075402 	srl	t2,a3,0x10
800095f4:	004a001b 	divu	zero,v0,t2
800095f8:	014001f4 	teq	t2,zero,0x7
800095fc:	30e9ffff 	andi	t1,a3,0xffff
80009600:	01642004 	sllv	a0,a0,t3
80009604:	01654004 	sllv	t0,a1,t3
80009608:	00c53006 	srlv	a2,a1,a2
8000960c:	00c42025 	or	a0,a2,a0
80009610:	00043402 	srl	a2,a0,0x10
80009614:	00006012 	mflo	t4
80009618:	00001010 	mfhi	v0
8000961c:	00022c00 	sll	a1,v0,0x10
80009620:	00a61025 	or	v0,a1,a2
80009624:	00005812 	mflo	t3
	...
80009630:	012c0018 	mult	t1,t4
80009634:	00001812 	mflo	v1
80009638:	0043282b 	sltu	a1,v0,v1
8000963c:	50a0000b 	beqzl	a1,8000966c <__udivdi3+0x4e8>
80009640:	00431023 	subu	v0,v0,v1
80009644:	00471021 	addu	v0,v0,a3
80009648:	0047282b 	sltu	a1,v0,a3
8000964c:	14a00006 	bnez	a1,80009668 <__udivdi3+0x4e4>
80009650:	258bffff 	addiu	t3,t4,-1
80009654:	0043282b 	sltu	a1,v0,v1
80009658:	50a00004 	beqzl	a1,8000966c <__udivdi3+0x4e8>
8000965c:	00431023 	subu	v0,v0,v1
80009660:	258bfffe 	addiu	t3,t4,-2
80009664:	00471021 	addu	v0,v0,a3
80009668:	00431023 	subu	v0,v0,v1
8000966c:	004a001b 	divu	zero,v0,t2
80009670:	014001f4 	teq	t2,zero,0x7
80009674:	3086ffff 	andi	a2,a0,0xffff
80009678:	00006012 	mflo	t4
8000967c:	00001010 	mfhi	v0
80009680:	00022400 	sll	a0,v0,0x10
80009684:	00862025 	or	a0,a0,a2
80009688:	00002812 	mflo	a1
	...
80009694:	012c0018 	mult	t1,t4
80009698:	00001812 	mflo	v1
8000969c:	0083102b 	sltu	v0,a0,v1
800096a0:	1040000b 	beqz	v0,800096d0 <__udivdi3+0x54c>
800096a4:	000b1400 	sll	v0,t3,0x10
800096a8:	00872021 	addu	a0,a0,a3
800096ac:	0087102b 	sltu	v0,a0,a3
800096b0:	14400006 	bnez	v0,800096cc <__udivdi3+0x548>
800096b4:	2585ffff 	addiu	a1,t4,-1
800096b8:	0083102b 	sltu	v0,a0,v1
800096bc:	50400004 	beqzl	v0,800096d0 <__udivdi3+0x54c>
800096c0:	000b1400 	sll	v0,t3,0x10
800096c4:	2585fffe 	addiu	a1,t4,-2
800096c8:	00872021 	addu	a0,a0,a3
800096cc:	000b1400 	sll	v0,t3,0x10
800096d0:	00831823 	subu	v1,a0,v1
800096d4:	1000ff39 	b	800093bc <__udivdi3+0x238>
800096d8:	00451025 	or	v0,v0,a1
800096dc:	00a9282b 	sltu	a1,a1,t1
800096e0:	50a0ffbe 	beqzl	a1,800095dc <__udivdi3+0x458>
800096e4:	00001025 	move	v0,zero
800096e8:	24e7ffff 	addiu	a3,a3,-1
800096ec:	1000fefc 	b	800092e0 <__udivdi3+0x15c>
800096f0:	00001025 	move	v0,zero
800096f4:	1000ff25 	b	8000938c <__udivdi3+0x208>
800096f8:	24030010 	li	v1,16
800096fc:	1000ff04 	b	80009310 <__udivdi3+0x18c>
80009700:	00004825 	move	t1,zero
80009704:	1000ff02 	b	80009310 <__udivdi3+0x18c>
80009708:	24090010 	li	t1,16
8000970c:	1000ffb3 	b	800095dc <__udivdi3+0x458>
80009710:	00001025 	move	v0,zero
80009714:	1000feab 	b	800091c4 <__udivdi3+0x40>
80009718:	24030010 	li	v1,16
8000971c:	1000fece 	b	80009258 <__udivdi3+0xd4>
80009720:	00471021 	addu	v0,v0,a3
80009724:	1000ff3b 	b	80009414 <__udivdi3+0x290>
80009728:	00671821 	addu	v1,v1,a3

8000972c <__umoddi3>:
8000972c:	00c05025 	move	t2,a2
80009730:	00a04025 	move	t0,a1
80009734:	00801025 	move	v0,a0
80009738:	14c00043 	bnez	a2,80009848 <__umoddi3+0x11c>
8000973c:	00804825 	move	t1,a0
80009740:	0087102b 	sltu	v0,a0,a3
80009744:	10400063 	beqz	v0,800098d4 <__umoddi3+0x1a8>
80009748:	3c020001 	lui	v0,0x1
8000974c:	00e2102b 	sltu	v0,a3,v0
80009750:	144000ae 	bnez	v0,80009a0c <__umoddi3+0x2e0>
80009754:	2ce30100 	sltiu	v1,a3,256
80009758:	3c020100 	lui	v0,0x100
8000975c:	00e2102b 	sltu	v0,a3,v0
80009760:	14400143 	bnez	v0,80009c70 <__umoddi3+0x544>
80009764:	00071402 	srl	v0,a3,0x10
80009768:	00071602 	srl	v0,a3,0x18
8000976c:	240a0018 	li	t2,24
80009770:	3c038001 	lui	v1,0x8001
80009774:	2463db70 	addiu	v1,v1,-9360
80009778:	00431021 	addu	v0,v0,v1
8000977c:	90420000 	lbu	v0,0(v0)
80009780:	24030020 	li	v1,32
80009784:	004a5021 	addu	t2,v0,t2
80009788:	106a0006 	beq	v1,t2,800097a4 <__umoddi3+0x78>
8000978c:	006a3023 	subu	a2,v1,t2
80009790:	00c41804 	sllv	v1,a0,a2
80009794:	01455006 	srlv	t2,a1,t2
80009798:	00c73804 	sllv	a3,a3,a2
8000979c:	01434825 	or	t1,t2,v1
800097a0:	00c54004 	sllv	t0,a1,a2
800097a4:	00071402 	srl	v0,a3,0x10
800097a8:	0122001b 	divu	zero,t1,v0
800097ac:	004001f4 	teq	v0,zero,0x7
800097b0:	30eaffff 	andi	t2,a3,0xffff
800097b4:	00082402 	srl	a0,t0,0x10
800097b8:	00001812 	mflo	v1
800097bc:	00004810 	mfhi	t1
800097c0:	00094c00 	sll	t1,t1,0x10
800097c4:	00000000 	nop
800097c8:	006a0018 	mult	v1,t2
800097cc:	01241825 	or	v1,t1,a0
800097d0:	00002812 	mflo	a1
800097d4:	0065202b 	sltu	a0,v1,a1
800097d8:	50800009 	beqzl	a0,80009800 <__umoddi3+0xd4>
800097dc:	00651823 	subu	v1,v1,a1
800097e0:	00671821 	addu	v1,v1,a3
800097e4:	0067202b 	sltu	a0,v1,a3
800097e8:	54800005 	bnezl	a0,80009800 <__umoddi3+0xd4>
800097ec:	00651823 	subu	v1,v1,a1
800097f0:	0065202b 	sltu	a0,v1,a1
800097f4:	54800001 	bnezl	a0,800097fc <__umoddi3+0xd0>
800097f8:	00671821 	addu	v1,v1,a3
800097fc:	00651823 	subu	v1,v1,a1
80009800:	0062001b 	divu	zero,v1,v0
80009804:	004001f4 	teq	v0,zero,0x7
80009808:	3102ffff 	andi	v0,t0,0xffff
8000980c:	00002012 	mflo	a0
80009810:	00001810 	mfhi	v1
80009814:	00031c00 	sll	v1,v1,0x10
80009818:	00621025 	or	v0,v1,v0
8000981c:	008a0018 	mult	a0,t2
80009820:	00002812 	mflo	a1
80009824:	0045182b 	sltu	v1,v0,a1
80009828:	54600067 	bnezl	v1,800099c8 <__umoddi3+0x29c>
8000982c:	00471021 	addu	v0,v0,a3
80009830:	00452823 	subu	a1,v0,a1
80009834:	00c52806 	srlv	a1,a1,a2
80009838:	00001025 	move	v0,zero
8000983c:	00a01825 	move	v1,a1
80009840:	03e00008 	jr	ra
80009844:	00000000 	nop
80009848:	0086402b 	sltu	t0,a0,a2
8000984c:	1500fffb 	bnez	t0,8000983c <__umoddi3+0x110>
80009850:	00a05025 	move	t2,a1
80009854:	3c030001 	lui	v1,0x1
80009858:	00c3182b 	sltu	v1,a2,v1
8000985c:	14600070 	bnez	v1,80009a20 <__umoddi3+0x2f4>
80009860:	2cc30100 	sltiu	v1,a2,256
80009864:	3c030100 	lui	v1,0x100
80009868:	00c3182b 	sltu	v1,a2,v1
8000986c:	146000fe 	bnez	v1,80009c68 <__umoddi3+0x53c>
80009870:	00064402 	srl	t0,a2,0x10
80009874:	00064602 	srl	t0,a2,0x18
80009878:	240b0018 	li	t3,24
8000987c:	3c038001 	lui	v1,0x8001
80009880:	2463db70 	addiu	v1,v1,-9360
80009884:	01031821 	addu	v1,t0,v1
80009888:	90690000 	lbu	t1,0(v1)
8000988c:	24030020 	li	v1,32
80009890:	012b4821 	addu	t1,t1,t3
80009894:	14690099 	bne	v1,t1,80009afc <__umoddi3+0x3d0>
80009898:	00696023 	subu	t4,v1,t1
8000989c:	00c4182b 	sltu	v1,a2,a0
800098a0:	54600005 	bnezl	v1,800098b8 <__umoddi3+0x18c>
800098a4:	00a75023 	subu	t2,a1,a3
800098a8:	00a7182b 	sltu	v1,a1,a3
800098ac:	54600006 	bnezl	v1,800098c8 <__umoddi3+0x19c>
800098b0:	01402825 	move	a1,t2
800098b4:	00a75023 	subu	t2,a1,a3
800098b8:	00861023 	subu	v0,a0,a2
800098bc:	00aa282b 	sltu	a1,a1,t2
800098c0:	00451023 	subu	v0,v0,a1
800098c4:	01402825 	move	a1,t2
800098c8:	00a01825 	move	v1,a1
800098cc:	03e00008 	jr	ra
800098d0:	00000000 	nop
800098d4:	14e00007 	bnez	a3,800098f4 <__umoddi3+0x1c8>
800098d8:	00e2102b 	sltu	v0,a3,v0
800098dc:	24020001 	li	v0,1
800098e0:	0047001b 	divu	zero,v0,a3
800098e4:	00e001f4 	teq	a3,zero,0x7
800098e8:	00003812 	mflo	a3
800098ec:	3c020001 	lui	v0,0x1
800098f0:	00e2102b 	sltu	v0,a3,v0
800098f4:	14400040 	bnez	v0,800099f8 <__umoddi3+0x2cc>
800098f8:	2ce30100 	sltiu	v1,a3,256
800098fc:	3c020100 	lui	v0,0x100
80009900:	00e2102b 	sltu	v0,a3,v0
80009904:	144000d6 	bnez	v0,80009c60 <__umoddi3+0x534>
80009908:	00071402 	srl	v0,a3,0x10
8000990c:	00071602 	srl	v0,a3,0x18
80009910:	240a0018 	li	t2,24
80009914:	3c038001 	lui	v1,0x8001
80009918:	2463db70 	addiu	v1,v1,-9360
8000991c:	00431021 	addu	v0,v0,v1
80009920:	90490000 	lbu	t1,0(v0)
80009924:	24020020 	li	v0,32
80009928:	012a4821 	addu	t1,t1,t2
8000992c:	14490041 	bne	v0,t1,80009a34 <__umoddi3+0x308>
80009930:	00493023 	subu	a2,v0,t1
80009934:	00871823 	subu	v1,a0,a3
80009938:	00071402 	srl	v0,a3,0x10
8000993c:	30eaffff 	andi	t2,a3,0xffff
80009940:	0062001b 	divu	zero,v1,v0
80009944:	004001f4 	teq	v0,zero,0x7
80009948:	00081c02 	srl	v1,t0,0x10
8000994c:	00002812 	mflo	a1
80009950:	00002010 	mfhi	a0
80009954:	00042400 	sll	a0,a0,0x10
80009958:	00831825 	or	v1,a0,v1
8000995c:	00aa0018 	mult	a1,t2
80009960:	00004812 	mflo	t1
80009964:	0069202b 	sltu	a0,v1,t1
80009968:	50800009 	beqzl	a0,80009990 <__umoddi3+0x264>
8000996c:	00691823 	subu	v1,v1,t1
80009970:	00671821 	addu	v1,v1,a3
80009974:	0067202b 	sltu	a0,v1,a3
80009978:	54800005 	bnezl	a0,80009990 <__umoddi3+0x264>
8000997c:	00691823 	subu	v1,v1,t1
80009980:	0069202b 	sltu	a0,v1,t1
80009984:	54800001 	bnezl	a0,8000998c <__umoddi3+0x260>
80009988:	00671821 	addu	v1,v1,a3
8000998c:	00691823 	subu	v1,v1,t1
80009990:	0062001b 	divu	zero,v1,v0
80009994:	004001f4 	teq	v0,zero,0x7
80009998:	3108ffff 	andi	t0,t0,0xffff
8000999c:	00001012 	mflo	v0
800099a0:	00001810 	mfhi	v1
800099a4:	00031c00 	sll	v1,v1,0x10
800099a8:	00000000 	nop
800099ac:	004a0018 	mult	v0,t2
800099b0:	00681025 	or	v0,v1,t0
800099b4:	00002812 	mflo	a1
800099b8:	0045182b 	sltu	v1,v0,a1
800099bc:	50600009 	beqzl	v1,800099e4 <__umoddi3+0x2b8>
800099c0:	00452823 	subu	a1,v0,a1
800099c4:	00471021 	addu	v0,v0,a3
800099c8:	0047182b 	sltu	v1,v0,a3
800099cc:	54600005 	bnezl	v1,800099e4 <__umoddi3+0x2b8>
800099d0:	00452823 	subu	a1,v0,a1
800099d4:	0045182b 	sltu	v1,v0,a1
800099d8:	54600001 	bnezl	v1,800099e0 <__umoddi3+0x2b4>
800099dc:	00471021 	addu	v0,v0,a3
800099e0:	00452823 	subu	a1,v0,a1
800099e4:	00c52806 	srlv	a1,a1,a2
800099e8:	00001025 	move	v0,zero
800099ec:	00a01825 	move	v1,a1
800099f0:	03e00008 	jr	ra
800099f4:	00000000 	nop
800099f8:	1460ffc6 	bnez	v1,80009914 <__umoddi3+0x1e8>
800099fc:	00e01025 	move	v0,a3
80009a00:	00071202 	srl	v0,a3,0x8
80009a04:	1000ffc3 	b	80009914 <__umoddi3+0x1e8>
80009a08:	240a0008 	li	t2,8
80009a0c:	1460ff58 	bnez	v1,80009770 <__umoddi3+0x44>
80009a10:	00e01025 	move	v0,a3
80009a14:	00071202 	srl	v0,a3,0x8
80009a18:	1000ff55 	b	80009770 <__umoddi3+0x44>
80009a1c:	240a0008 	li	t2,8
80009a20:	54600095 	bnezl	v1,80009c78 <__umoddi3+0x54c>
80009a24:	00c04025 	move	t0,a2
80009a28:	00064202 	srl	t0,a2,0x8
80009a2c:	1000ff93 	b	8000987c <__umoddi3+0x150>
80009a30:	240b0008 	li	t3,8
80009a34:	00c73804 	sllv	a3,a3,a2
80009a38:	01241806 	srlv	v1,a0,t1
80009a3c:	00071402 	srl	v0,a3,0x10
80009a40:	0062001b 	divu	zero,v1,v0
80009a44:	004001f4 	teq	v0,zero,0x7
80009a48:	01254806 	srlv	t1,a1,t1
80009a4c:	30eaffff 	andi	t2,a3,0xffff
80009a50:	00c54004 	sllv	t0,a1,a2
80009a54:	00c42004 	sllv	a0,a0,a2
80009a58:	01244825 	or	t1,t1,a0
80009a5c:	00092402 	srl	a0,t1,0x10
80009a60:	00002812 	mflo	a1
80009a64:	00001810 	mfhi	v1
80009a68:	00031c00 	sll	v1,v1,0x10
80009a6c:	00642025 	or	a0,v1,a0
80009a70:	00aa0018 	mult	a1,t2
80009a74:	00002812 	mflo	a1
80009a78:	0085182b 	sltu	v1,a0,a1
80009a7c:	50600009 	beqzl	v1,80009aa4 <__umoddi3+0x378>
80009a80:	00852023 	subu	a0,a0,a1
80009a84:	00872021 	addu	a0,a0,a3
80009a88:	0087182b 	sltu	v1,a0,a3
80009a8c:	54600005 	bnezl	v1,80009aa4 <__umoddi3+0x378>
80009a90:	00852023 	subu	a0,a0,a1
80009a94:	0085182b 	sltu	v1,a0,a1
80009a98:	54600001 	bnezl	v1,80009aa0 <__umoddi3+0x374>
80009a9c:	00872021 	addu	a0,a0,a3
80009aa0:	00852023 	subu	a0,a0,a1
80009aa4:	0082001b 	divu	zero,a0,v0
80009aa8:	004001f4 	teq	v0,zero,0x7
80009aac:	3129ffff 	andi	t1,t1,0xffff
80009ab0:	00001812 	mflo	v1
80009ab4:	00002010 	mfhi	a0
80009ab8:	00042400 	sll	a0,a0,0x10
80009abc:	00000000 	nop
80009ac0:	006a0018 	mult	v1,t2
80009ac4:	00891825 	or	v1,a0,t1
80009ac8:	00002812 	mflo	a1
80009acc:	0065202b 	sltu	a0,v1,a1
80009ad0:	5080ff9b 	beqzl	a0,80009940 <__umoddi3+0x214>
80009ad4:	00651823 	subu	v1,v1,a1
80009ad8:	00671821 	addu	v1,v1,a3
80009adc:	0067202b 	sltu	a0,v1,a3
80009ae0:	5480ff97 	bnezl	a0,80009940 <__umoddi3+0x214>
80009ae4:	00651823 	subu	v1,v1,a1
80009ae8:	0065202b 	sltu	a0,v1,a1
80009aec:	54800001 	bnezl	a0,80009af4 <__umoddi3+0x3c8>
80009af0:	00671821 	addu	v1,v1,a3
80009af4:	1000ff92 	b	80009940 <__umoddi3+0x214>
80009af8:	00651823 	subu	v1,v1,a1
80009afc:	01863004 	sllv	a2,a2,t4
80009b00:	01275006 	srlv	t2,a3,t1
80009b04:	01465025 	or	t2,t2,a2
80009b08:	01241006 	srlv	v0,a0,t1
80009b0c:	000a3402 	srl	a2,t2,0x10
80009b10:	0046001b 	divu	zero,v0,a2
80009b14:	00c001f4 	teq	a2,zero,0x7
80009b18:	314effff 	andi	t6,t2,0xffff
80009b1c:	01841804 	sllv	v1,a0,t4
80009b20:	01252006 	srlv	a0,a1,t1
80009b24:	00831825 	or	v1,a0,v1
80009b28:	00034402 	srl	t0,v1,0x10
80009b2c:	0187c004 	sllv	t8,a3,t4
80009b30:	00007812 	mflo	t7
80009b34:	00006810 	mfhi	t5
80009b38:	000d6c00 	sll	t5,t5,0x10
80009b3c:	01a83825 	or	a3,t5,t0
80009b40:	00005812 	mflo	t3
	...
80009b4c:	01cf0018 	mult	t6,t7
80009b50:	00001012 	mflo	v0
80009b54:	00e2202b 	sltu	a0,a3,v0
80009b58:	1080000a 	beqz	a0,80009b84 <__umoddi3+0x458>
80009b5c:	01852804 	sllv	a1,a1,t4
80009b60:	00ea3821 	addu	a3,a3,t2
80009b64:	00ea202b 	sltu	a0,a3,t2
80009b68:	14800006 	bnez	a0,80009b84 <__umoddi3+0x458>
80009b6c:	25ebffff 	addiu	t3,t7,-1
80009b70:	00e2202b 	sltu	a0,a3,v0
80009b74:	50800004 	beqzl	a0,80009b88 <__umoddi3+0x45c>
80009b78:	00e23823 	subu	a3,a3,v0
80009b7c:	25ebfffe 	addiu	t3,t7,-2
80009b80:	00ea3821 	addu	a3,a3,t2
80009b84:	00e23823 	subu	a3,a3,v0
80009b88:	00e6001b 	divu	zero,a3,a2
80009b8c:	00c001f4 	teq	a2,zero,0x7
80009b90:	3063ffff 	andi	v1,v1,0xffff
80009b94:	00004012 	mflo	t0
80009b98:	00003810 	mfhi	a3
80009b9c:	00073c00 	sll	a3,a3,0x10
80009ba0:	00e33025 	or	a2,a3,v1
80009ba4:	00002012 	mflo	a0
	...
80009bb0:	01c80018 	mult	t6,t0
80009bb4:	00001012 	mflo	v0
80009bb8:	00c2182b 	sltu	v1,a2,v0
80009bbc:	5060000b 	beqzl	v1,80009bec <__umoddi3+0x4c0>
80009bc0:	000b5c00 	sll	t3,t3,0x10
80009bc4:	00ca3021 	addu	a2,a2,t2
80009bc8:	00ca182b 	sltu	v1,a2,t2
80009bcc:	14600006 	bnez	v1,80009be8 <__umoddi3+0x4bc>
80009bd0:	2504ffff 	addiu	a0,t0,-1
80009bd4:	00c2182b 	sltu	v1,a2,v0
80009bd8:	50600004 	beqzl	v1,80009bec <__umoddi3+0x4c0>
80009bdc:	000b5c00 	sll	t3,t3,0x10
80009be0:	2504fffe 	addiu	a0,t0,-2
80009be4:	00ca3021 	addu	a2,a2,t2
80009be8:	000b5c00 	sll	t3,t3,0x10
80009bec:	01645825 	or	t3,t3,a0
80009bf0:	01780019 	multu	t3,t8
80009bf4:	00c23023 	subu	a2,a2,v0
80009bf8:	00007010 	mfhi	t6
80009bfc:	00ce182b 	sltu	v1,a2,t6
80009c00:	00007812 	mflo	t7
80009c04:	00002012 	mflo	a0
80009c08:	14600010 	bnez	v1,80009c4c <__umoddi3+0x520>
80009c0c:	01c01025 	move	v0,t6
80009c10:	50ce000c 	beql	a2,t6,80009c44 <__umoddi3+0x518>
80009c14:	00af182b 	sltu	v1,a1,t7
80009c18:	00a42023 	subu	a0,a1,a0
80009c1c:	00c23023 	subu	a2,a2,v0
80009c20:	00a4102b 	sltu	v0,a1,a0
80009c24:	00c21023 	subu	v0,a2,v0
80009c28:	01224804 	sllv	t1,v0,t1
80009c2c:	01842806 	srlv	a1,a0,t4
80009c30:	01252825 	or	a1,t1,a1
80009c34:	01821006 	srlv	v0,v0,t4
80009c38:	00a01825 	move	v1,a1
80009c3c:	03e00008 	jr	ra
80009c40:	00000000 	nop
80009c44:	5060fff5 	beqzl	v1,80009c1c <__umoddi3+0x4f0>
80009c48:	00a42023 	subu	a0,a1,a0
80009c4c:	01f82023 	subu	a0,t7,t8
80009c50:	01ca5023 	subu	t2,t6,t2
80009c54:	01e4102b 	sltu	v0,t7,a0
80009c58:	1000ffef 	b	80009c18 <__umoddi3+0x4ec>
80009c5c:	01421023 	subu	v0,t2,v0
80009c60:	1000ff2c 	b	80009914 <__umoddi3+0x1e8>
80009c64:	240a0010 	li	t2,16
80009c68:	1000ff04 	b	8000987c <__umoddi3+0x150>
80009c6c:	240b0010 	li	t3,16
80009c70:	1000febf 	b	80009770 <__umoddi3+0x44>
80009c74:	240a0010 	li	t2,16
80009c78:	1000ff00 	b	8000987c <__umoddi3+0x150>
80009c7c:	00005825 	move	t3,zero

80009c80 <rspbootTextStart>:
80009c80:	09000419 	j	84001064 <_codeSegmentBssEnd+0x3f029d4>
80009c84:	20010fc0 	addi	at,zero,4032
80009c88:	8c220010 	lw	v0,16(at)
80009c8c:	20030f7f 	addi	v1,zero,3967
80009c90:	20071080 	addi	a3,zero,4224
80009c94:	40870000 	mtc0	a3,c0_index
80009c98:	40820800 	mtc0	v0,c0_random
80009c9c:	40831000 	mtc0	v1,c0_entrylo0
80009ca0:	40043000 	mfc0	a0,c0_wired
80009ca4:	1480fffe 	bnez	a0,80009ca0 <rspbootTextStart+0x20>
80009ca8:	00000000 	nop
80009cac:	0d00040f 	jal	8400103c <_codeSegmentBssEnd+0x3f029ac>
80009cb0:	00000000 	nop
80009cb4:	00e00008 	jr	a3
80009cb8:	40803800 	mtc0	zero,$7
80009cbc:	40082000 	mfc0	t0,c0_context
80009cc0:	31080080 	andi	t0,t0,0x80
80009cc4:	15000002 	bnez	t0,80009cd0 <rspbootTextStart+0x50>
80009cc8:	00000000 	nop
80009ccc:	03e00008 	jr	ra
80009cd0:	40803800 	mtc0	zero,$7
80009cd4:	34085200 	li	t0,0x5200
80009cd8:	40882000 	mtc0	t0,c0_context
80009cdc:	0000000d 	break
80009ce0:	00000000 	nop
80009ce4:	8c220004 	lw	v0,4(at)
80009ce8:	30420002 	andi	v0,v0,0x2
80009cec:	10400007 	beqz	v0,80009d0c <rspbootTextStart+0x8c>
80009cf0:	00000000 	nop
80009cf4:	0d00040f 	jal	8400103c <_codeSegmentBssEnd+0x3f029ac>
80009cf8:	00000000 	nop
80009cfc:	40025800 	mfc0	v0,c0_compare
80009d00:	30420100 	andi	v0,v0,0x100
80009d04:	1c40ffed 	bgtz	v0,80009cbc <rspbootTextStart+0x3c>
80009d08:	00000000 	nop
80009d0c:	8c220018 	lw	v0,24(at)
80009d10:	8c23001c 	lw	v1,28(at)
80009d14:	2063ffff 	addi	v1,v1,-1
80009d18:	401e2800 	mfc0	s8,c0_pagemask
80009d1c:	17c0fffe 	bnez	s8,80009d18 <rspbootTextStart+0x98>
80009d20:	00000000 	nop
80009d24:	40800000 	mtc0	zero,c0_index
80009d28:	40820800 	mtc0	v0,c0_random
80009d2c:	40831000 	mtc0	v1,c0_entrylo0
80009d30:	40043000 	mfc0	a0,c0_wired
80009d34:	1480fffe 	bnez	a0,80009d30 <rspbootTextStart+0xb0>
80009d38:	00000000 	nop
80009d3c:	0d00040f 	jal	8400103c <_codeSegmentBssEnd+0x3f029ac>
80009d40:	00000000 	nop
80009d44:	09000402 	j	84001008 <_codeSegmentBssEnd+0x3f02978>
80009d48:	00000000 	nop
80009d4c:	00000000 	nop

80009d50 <gspF3DEX2_fifoTextStart>:
80009d50:	4a00002c 	c2	0x2c
80009d54:	c81f201b 	lwc2	$31,8219(zero)
80009d58:	c81e201c 	lwc2	$30,8220(zero)
80009d5c:	20170ba8 	addi	s7,zero,2984
80009d60:	4a000050 	c2	0x50
80009d64:	20160d00 	addi	s6,zero,3328
80009d68:	4b1f0051 	c2	0x11f0051
80009d6c:	8c0b00f0 	lw	t3,240(zero)
80009d70:	8c0c0fc4 	lw	t4,4036(zero)
80009d74:	20012800 	addi	at,zero,10240
80009d78:	11600006 	beqz	t3,80009d94 <gspF3DEX2_fifoTextStart+0x44>
80009d7c:	40812000 	mtc0	at,c0_context
80009d80:	318c0001 	andi	t4,t4,0x1
80009d84:	1180001e 	beqz	t4,80009e00 <gspF3DEX2_fifoTextStart+0xb0>
80009d88:	ac000fc4 	sw	zero,4036(zero)
80009d8c:	0800045a 	j	80001168 <osCreatePiManager+0xb8>
80009d90:	8c1a0bf8 	lw	k0,3064(zero)
80009d94:	400b5800 	mfc0	t3,c0_compare
80009d98:	316b0001 	andi	t3,t3,0x1
80009d9c:	1560000b 	bnez	t3,80009dcc <gspF3DEX2_fifoTextStart+0x7c>
80009da0:	40024800 	mfc0	v0,c0_count
80009da4:	8c030fe8 	lw	v1,4072(zero)
80009da8:	00625822 	sub	t3,v1,v0
80009dac:	1d600007 	bgtz	t3,80009dcc <gspF3DEX2_fifoTextStart+0x7c>
80009db0:	40015000 	mfc0	at,c0_entryhi
80009db4:	8c040fec 	lw	a0,4076(zero)
80009db8:	10200004 	beqz	at,80009dcc <gspF3DEX2_fifoTextStart+0x7c>
80009dbc:	00245822 	sub	t3,at,a0
80009dc0:	05610002 	bgez	t3,80009dcc <gspF3DEX2_fifoTextStart+0x7c>
80009dc4:	00000000 	nop
80009dc8:	14220008 	bne	at,v0,80009dec <gspF3DEX2_fifoTextStart+0x9c>
80009dcc:	400b5800 	mfc0	t3,c0_compare
80009dd0:	316b0400 	andi	t3,t3,0x400
80009dd4:	1560fffd 	bnez	t3,80009dcc <gspF3DEX2_fifoTextStart+0x7c>
80009dd8:	200b0001 	addi	t3,zero,1
80009ddc:	408b5800 	mtc0	t3,c0_compare
80009de0:	8c020fec 	lw	v0,4076(zero)
80009de4:	40824000 	mtc0	v0,c0_badvaddr
80009de8:	40824800 	mtc0	v0,c0_count
80009dec:	ac0200f0 	sw	v0,240(zero)
80009df0:	8c0b00f4 	lw	t3,244(zero)
80009df4:	15600002 	bnez	t3,80009e00 <gspF3DEX2_fifoTextStart+0xb0>
80009df8:	8c0b0fe0 	lw	t3,4064(zero)
80009dfc:	ac0b00f4 	sw	t3,244(zero)
80009e00:	8c010fd0 	lw	at,4048(zero)
80009e04:	8c0202e0 	lw	v0,736(zero)
80009e08:	8c0302e8 	lw	v1,744(zero)
80009e0c:	8c040410 	lw	a0,1040(zero)
80009e10:	8c050418 	lw	a1,1048(zero)
80009e14:	00411020 	add	v0,v0,at
80009e18:	00611820 	add	v1,v1,at
80009e1c:	ac0202e0 	sw	v0,736(zero)
80009e20:	ac0302e8 	sw	v1,744(zero)
80009e24:	00812020 	add	a0,a0,at
80009e28:	00a12820 	add	a1,a1,at
80009e2c:	ac040410 	sw	a0,1040(zero)
80009e30:	ac050418 	sw	a1,1048(zero)
80009e34:	8c1a0ff0 	lw	k0,4080(zero)
80009e38:	200b02e8 	addi	t3,zero,744
80009e3c:	00000000 	nop
80009e40:	0c0007ed 	jal	80001fb4 <osSpTaskLoad+0x4>
80009e44:	37ec0000 	ori	t4,ra,0x0
80009e48:	201300a7 	addi	s3,zero,167
80009e4c:	37580000 	ori	t8,k0,0x0
80009e50:	0c0007f6 	jal	80001fd8 <osSpTaskLoad+0x28>
80009e54:	24140920 	li	s4,2336
80009e58:	275a00a8 	addiu	k0,k0,168
80009e5c:	201bff58 	addi	k1,zero,-168
80009e60:	0c0007f2 	jal	80001fc8 <osSpTaskLoad+0x18>
80009e64:	40012000 	mfc0	at,c0_context
80009e68:	8f7909c8 	lw	t9,2504(k1)
80009e6c:	1360fff6 	beqz	k1,80009e48 <gspF3DEX2_fifoTextStart+0xf8>
80009e70:	30210080 	andi	at,at,0x80
80009e74:	00196603 	sra	t4,t9,0x18
80009e78:	000c5840 	sll	t3,t4,0x1
80009e7c:	956b036e 	lhu	t3,878(t3)
80009e80:	1420037e 	bnez	at,8000ac7c <gspF3DEX2_fifoTextStart+0xf2c>
80009e84:	8f7809cc 	lw	t8,2508(k1)
80009e88:	01600008 	jr	t3
80009e8c:	277b0008 	addiu	k1,k1,8
80009e90:	0c000489 	jal	80001224 <osCreatePiManager+0x174>
80009e94:	877409c1 	lh	s4,2497(k1)
80009e98:	33330ff8 	andi	s3,t9,0xff8
80009e9c:	0014a083 	sra	s4,s4,0x2
80009ea0:	080007f6 	j	80001fd8 <osSpTaskLoad+0x28>
80009ea4:	201f1190 	addi	ra,zero,4496
80009ea8:	8c0b01ec 	lw	t3,492(zero)
80009eac:	01795824 	and	t3,t3,t9
80009eb0:	01785825 	or	t3,t3,t8
80009eb4:	08000465 	j	80001194 <osCreatePiManager+0xe4>
80009eb8:	ac0b01ec 	sw	t3,492(zero)
80009ebc:	900100de 	lbu	at,222(zero)
80009ec0:	1020036e 	beqz	at,8000ac7c <gspF3DEX2_fifoTextStart+0xf2c>
80009ec4:	2021fffc 	addi	at,at,-4
80009ec8:	08000408 	j	80001020 <debugInfo+0x118>
80009ecc:	8c3a0138 	lw	k0,312(at)
80009ed0:	c81d181a 	lwc2	$29,6170(zero)
80009ed4:	8c1900d8 	lw	t9,216(zero)
80009ed8:	22f70008 	addi	s7,s7,8
80009edc:	eafd187f 	swc2	$29,6271(s7)
80009ee0:	aef80004 	sw	t8,4(s7)
80009ee4:	aef90000 	sw	t9,0(s7)
80009ee8:	08000496 	j	80001258 <__osEPiRawStartDma+0x18>
80009eec:	22f70008 	addi	s7,s7,8
80009ef0:	201f1210 	addi	ra,zero,4624
80009ef4:	00185d82 	srl	t3,t8,0x16
80009ef8:	316b003c 	andi	t3,t3,0x3c
80009efc:	8d6b00f8 	lw	t3,248(t3)
80009f00:	0018c200 	sll	t8,t8,0x8
80009f04:	0018c202 	srl	t8,t8,0x8
80009f08:	03e00008 	jr	ra
80009f0c:	030bc020 	add	t8,t8,t3
80009f10:	ac1900c8 	sw	t9,200(zero)
80009f14:	08000484 	j	80001210 <osCreatePiManager+0x160>
80009f18:	ac1800cc 	sw	t8,204(zero)
80009f1c:	ac1900c0 	sw	t9,192(zero)
80009f20:	08000484 	j	80001210 <osCreatePiManager+0x160>
80009f24:	ac1800c4 	sw	t8,196(zero)
80009f28:	201f1194 	addi	ra,zero,4500
80009f2c:	02f65822 	sub	t3,s7,s6
80009f30:	1960035c 	blez	t3,8000aca4 <gspF3DEX2_fifoTextStart+0xf54>
80009f34:	400c3000 	mfc0	t4,c0_wired
80009f38:	8c1800f0 	lw	t8,240(zero)
80009f3c:	25730158 	addiu	s3,t3,344
80009f40:	1580fffc 	bnez	t4,80009f34 <gspF3DEX2_fifoTextStart+0x1e4>
80009f44:	8c0c0fec 	lw	t4,4076(zero)
80009f48:	40984800 	mtc0	t8,c0_count
80009f4c:	03135820 	add	t3,t8,s3
80009f50:	018b6022 	sub	t4,t4,t3
80009f54:	05810008 	bgez	t4,80009f78 <gspF3DEX2_fifoTextStart+0x228>
80009f58:	400b5800 	mfc0	t3,c0_compare
80009f5c:	316b0400 	andi	t3,t3,0x400
80009f60:	1560fffd 	bnez	t3,80009f58 <gspF3DEX2_fifoTextStart+0x208>
80009f64:	8c180fe8 	lw	t8,4072(zero)
80009f68:	400b5000 	mfc0	t3,c0_entryhi
80009f6c:	1178fffe 	beq	t3,t8,80009f68 <gspF3DEX2_fifoTextStart+0x218>
80009f70:	00000000 	nop
80009f74:	40984000 	mtc0	t8,c0_badvaddr
80009f78:	400b5000 	mfc0	t3,c0_entryhi
80009f7c:	01785822 	sub	t3,t3,t8
80009f80:	19600002 	blez	t3,80009f8c <gspF3DEX2_fifoTextStart+0x23c>
80009f84:	01735822 	sub	t3,t3,s3
80009f88:	1960fffb 	blez	t3,80009f78 <gspF3DEX2_fifoTextStart+0x228>
80009f8c:	03135820 	add	t3,t8,s3
80009f90:	ac0b00f0 	sw	t3,240(zero)
80009f94:	2273ffff 	addi	s3,s3,-1
80009f98:	22d4dea8 	addi	s4,s6,-8536
80009f9c:	3ad60208 	xori	s6,s6,0x208
80009fa0:	080007f6 	j	80001fd8 <osSpTaskLoad+0x28>
80009fa4:	22d7fea8 	addi	s7,s6,-344
80009fa8:	200b0410 	addi	t3,zero,1040
80009fac:	080007ed 	j	80001fb4 <osSpTaskLoad+0x4>
80009fb0:	200c12d8 	addi	t4,zero,4824
80009fb4:	37fe0000 	ori	s8,ra,0x0
80009fb8:	24050014 	li	a1,20
80009fbc:	24120006 	li	s2,6
80009fc0:	240f09c8 	li	t7,2504
80009fc4:	a64103ca 	sh	at,970(s2)
80009fc8:	a64203cc 	sh	v0,972(s2)
80009fcc:	a64303ce 	sh	v1,974(s2)
80009fd0:	a64003d0 	sh	zero,976(s2)
80009fd4:	8c1d03cc 	lw	sp,972(zero)
80009fd8:	8ca903f8 	lw	t1,1016(a1)
80009fdc:	8c700024 	lw	s0,36(v1)
80009fe0:	02098024 	and	s0,s0,t1
80009fe4:	2251fffa 	addi	s1,s2,-6
80009fe8:	3a52001c 	xori	s2,s2,0x1c
80009fec:	2255fffa 	addi	s5,s2,-6
80009ff0:	962203d0 	lhu	v0,976(s1)
80009ff4:	22310002 	addi	s1,s1,2
80009ff8:	1040005f 	beqz	v0,8000a178 <gspF3DEX2_fifoTextStart+0x428>
80009ffc:	8c4b0024 	lw	t3,36(v0)
8000a000:	01695824 	and	t3,t3,t1
8000a004:	11700057 	beq	t3,s0,8000a164 <gspF3DEX2_fifoTextStart+0x414>
8000a008:	35700000 	ori	s0,t3,0x0
8000a00c:	12000003 	beqz	s0,8000a01c <gspF3DEX2_fifoTextStart+0x2cc>
8000a010:	34530000 	ori	s3,v0,0x0
8000a014:	34730000 	ori	s3,v1,0x0
8000a018:	34430000 	ori	v1,v0,0x0
8000a01c:	00055840 	sll	t3,a1,0x1
8000a020:	c9621830 	lwc2	$2,6192(t3)
8000a024:	ca641801 	lwc2	$4,6145(s3)
8000a028:	ca651800 	lwc2	$5,6144(s3)
8000a02c:	c8661801 	lwc2	$6,6145(v1)
8000a030:	c8671800 	lwc2	$7,6144(v1)
8000a034:	4b1f10c7 	c2	0x11f10c7
8000a038:	4a022206 	c2	0x22206
8000a03c:	4a022a4f 	c2	0x22a4f
8000a040:	4a03328e 	c2	0x3328e
8000a044:	4a033acf 	c2	0x33acf
8000a048:	4a484214 	c2	0x484214
8000a04c:	c819201d 	lwc2	$25,8221(zero)
8000a050:	4a494a50 	c2	0x494a50
8000a054:	4a4a5294 	c2	0x4a5294
8000a058:	4a4b5ad0 	c2	0x4b5ad0
8000a05c:	4aa84214 	c2	0xa84214
8000a060:	4aa94a50 	c2	0xa94a50
8000a064:	4aaa5294 	c2	0xaa5294
8000a068:	4aab5ad0 	c2	0xab5ad0
8000a06c:	4b015f6a 	c2	0x1015f6a
8000a070:	4b6b58f2 	c2	0x16b58f2
8000a074:	4b6a58b1 	c2	0x16a58b1
8000a078:	4b0058f2 	c2	0x10058f2
8000a07c:	4b79ef53 	c2	0x179ef53
8000a080:	4b7d1086 	c2	0x17d1086
8000a084:	4b7d18cf 	c2	0x17d18cf
8000a088:	4b0018e1 	c2	0x10018e1
8000a08c:	4b1f10a7 	c2	0x11f10a7
8000a090:	4b625744 	c2	0x1625744
8000a094:	4b625acd 	c2	0x1625acd
8000a098:	4b00028e 	c2	0x100028e
8000a09c:	4b6b5b72 	c2	0x16b5b72
8000a0a0:	4b6a5b31 	c2	0x16a5b31
8000a0a4:	4b005b72 	c2	0x1005b72
8000a0a8:	4a0a6744 	c2	0xa6744
8000a0ac:	4a0a6f4d 	c2	0xa6f4d
8000a0b0:	4a0b628e 	c2	0xb628e
8000a0b4:	4a0b6acf 	c2	0xb6acf
8000a0b8:	4b3f0f47 	c2	0x13f0f47
8000a0bc:	4b9f528e 	c2	0x19f528e
8000a0c0:	4b9f5acf 	c2	0x19f5acf
8000a0c4:	4a0a6744 	c2	0xa6744
8000a0c8:	4a0a6f4d 	c2	0xa6f4d
8000a0cc:	4a0b630e 	c2	0xb630e
8000a0d0:	4a0b6b4f 	c2	0xb6b4f
8000a0d4:	4a0c4744 	c2	0xc4744
8000a0d8:	c87a3802 	lwc2	$26,14338(v1)
8000a0dc:	4a0c4f4d 	c2	0xc4f4d
8000a0e0:	c87a1405 	lwc2	$26,5125(v1)
8000a0e4:	4a0d428e 	c2	0xd428e
8000a0e8:	ca793802 	lwc2	$25,14338(s3)
8000a0ec:	4a0d4acf 	c2	0xd4acf
8000a0f0:	ca791405 	lwc2	$25,5125(s3)
8000a0f4:	4b625744 	c2	0x1625744
8000a0f8:	4b625acd 	c2	0x1625acd
8000a0fc:	4b00528e 	c2	0x100528e
8000a100:	4b015ae0 	c2	0x1015ae0
8000a104:	4b1f52a7 	c2	0x11f52a7
8000a108:	4b015755 	c2	0x1015755
8000a10c:	4b005ae3 	c2	0x1005ae3
8000a110:	4b0152a7 	c2	0x10152a7
8000a114:	4b1f5086 	c2	0x11f5086
8000a118:	4b6a3744 	c2	0x16a3744
8000a11c:	4b6a3f4d 	c2	0x16a3f4d
8000a120:	4b62274c 	c2	0x162274c
8000a124:	4b622e0d 	c2	0x1622e0d
8000a128:	4b0005ce 	c2	0x10005ce
8000a12c:	4b6ad745 	c2	0x16ad745
8000a130:	4b62cd8d 	c2	0x162cd8d
8000a134:	20070000 	addi	a3,zero,0
8000a138:	20010002 	addi	at,zero,2
8000a13c:	a6af03d0 	sh	t7,976(s5)
8000a140:	080005db 	j	8000176c <__osDevMgrMain+0x1bc>
8000a144:	201f95e8 	addi	ra,zero,-27160
8000a148:	e9f91072 	swc2	$25,4210(t7)
8000a14c:	e9fa0a67 	swc2	$26,2663(t7)
8000a150:	e9f63878 	swc2	$22,14456(t7)
8000a154:	e9f61471 	swc2	$22,5233(t7)
8000a158:	e9e30a66 	swc2	$3,2662(t7)
8000a15c:	21efffd8 	addi	t7,t7,-40
8000a160:	22b50002 	addi	s5,s5,2
8000a164:	1600ffa2 	bnez	s0,80009ff0 <gspF3DEX2_fifoTextStart+0x2a0>
8000a168:	34430000 	ori	v1,v0,0x0
8000a16c:	a6a303d0 	sh	v1,976(s5)
8000a170:	080004c8 	j	80001320 <__osEPiRawStartDma+0xe0>
8000a174:	22b50002 	addi	s5,s5,2
8000a178:	02b25822 	sub	t3,s5,s2
8000a17c:	0560000f 	bltz	t3,8000a1bc <gspF3DEX2_fifoTextStart+0x46c>
8000a180:	a6a003d0 	sh	zero,976(s5)
8000a184:	96a303ce 	lhu	v1,974(s5)
8000a188:	14a0ff93 	bnez	a1,80009fd8 <gspF3DEX2_fifoTextStart+0x288>
8000a18c:	20a5fffc 	addi	a1,a1,-4
8000a190:	ac0003cc 	sw	zero,972(zero)
8000a194:	964103ca 	lhu	at,970(s2)
8000a198:	964203cc 	lhu	v0,972(s2)
8000a19c:	96a303ce 	lhu	v1,974(s5)
8000a1a0:	48811500 	0x48811500
8000a1a4:	4bbf00ea 	c2	0x1bf00ea
8000a1a8:	48822600 	0x48822600
8000a1ac:	0c0005fd 	jal	800017f4 <__osDevMgrMain+0x244>
8000a1b0:	48831700 	0x48831700
8000a1b4:	16b2fff7 	bne	s5,s2,8000a194 <gspF3DEX2_fifoTextStart+0x444>
8000a1b8:	22520002 	addi	s2,s2,2
8000a1bc:	03c00008 	jr	s8
8000a1c0:	ac1d03cc 	sw	sp,972(zero)
8000a1c4:	00000000 	nop
8000a1c8:	97340380 	lhu	s4,896(t9)
8000a1cc:	0c000489 	jal	80001224 <osCreatePiManager+0x174>
8000a1d0:	976109c1 	lhu	at,2497(k1)
8000a1d4:	0281a022 	sub	s4,s4,at
8000a1d8:	0c0007f6 	jal	80001fd8 <osSpTaskLoad+0x28>
8000a1dc:	2033ffff 	addi	s3,at,-1
8000a1e0:	940501ec 	lhu	a1,492(zero)
8000a1e4:	000108c2 	srl	at,at,0x3
8000a1e8:	03217822 	sub	t7,t9,at
8000a1ec:	95ef0380 	lhu	t7,896(t7)
8000a1f0:	368e0000 	ori	t6,s4,0x0
8000a1f4:	900801d9 	lbu	t0,473(zero)
8000a1f8:	30a60002 	andi	a2,a1,0x2
8000a1fc:	14c0ff6a 	bnez	a2,80009fa8 <gspF3DEX2_fifoTextStart+0x258>
8000a200:	30a70001 	andi	a3,a1,0x1
8000a204:	15000006 	bnez	t0,8000a220 <gspF3DEX2_fifoTextStart+0x4d0>
8000a208:	000738c0 	sll	a3,a3,0x3
8000a20c:	a01901d9 	sb	t9,473(zero)
8000a210:	20150040 	addi	s5,zero,64
8000a214:	20140000 	addi	s4,zero,0
8000a218:	0c000422 	jal	80001088 <clearDebugOutput+0x18>
8000a21c:	20130080 	addi	s3,zero,128
8000a220:	c8082008 	lwc2	$8,8200(zero)
8000a224:	c80a2009 	lwc2	$10,8201(zero)
8000a228:	c80c200a 	lwc2	$12,8202(zero)
8000a22c:	c80e200b 	lwc2	$14,8203(zero)
8000a230:	4b004250 	c2	0x1004250
8000a234:	c8091811 	lwc2	$9,6161(zero)
8000a238:	4b0052d0 	c2	0x10052d0
8000a23c:	c80b1813 	lwc2	$11,6163(zero)
8000a240:	4b006350 	c2	0x1006350
8000a244:	c80d1815 	lwc2	$13,6165(zero)
8000a248:	4b0073d0 	c2	0x10073d0
8000a24c:	c80f1817 	lwc2	$15,6167(zero)
8000a250:	c8081c10 	lwc2	$8,7184(zero)
8000a254:	c80a1c12 	lwc2	$10,7186(zero)
8000a258:	0c0005db 	jal	8000176c <__osDevMgrMain+0x1bc>
8000a25c:	c80c1c14 	lwc2	$12,7188(zero)
8000a260:	0c0007f2 	jal	80001fc8 <osSpTaskLoad+0x18>
8000a264:	c80e1c16 	lwc2	$14,7190(zero)
8000a268:	c9d41800 	lwc2	$20,6144(t6)
8000a26c:	4b356c33 	c2	0x1356c33
8000a270:	c9d41c02 	lwc2	$20,7170(t6)
8000a274:	4b017f46 	c2	0x1017f46
8000a278:	8dcb001c 	lw	t3,28(t6)
8000a27c:	4b015f4f 	c2	0x1015f4f
8000a280:	c9d61602 	lwc2	$22,5634(t6)
8000a284:	4a94674e 	c2	0x94674e
8000a288:	34c90000 	ori	t1,a2,0x0
8000a28c:	4a94474f 	c2	0x94474f
8000a290:	c9223016 	lwc2	$2,12310(t1)
8000a294:	4ab46f4e 	c2	0xb46f4e
8000a298:	adcb0008 	sw	t3,8(t6)
8000a29c:	4ab44f4f 	c2	0xb44f4f
8000a2a0:	c9c73001 	lwc2	$7,12289(t6)
8000a2a4:	4ad475ce 	c2	0xd475ce
8000a2a8:	14c0ff7f 	bnez	a2,8000a0a8 <gspF3DEX2_fifoTextStart+0x358>
8000a2ac:	4ad4560f 	c2	0xd4560f
8000a2b0:	4b7fcee3 	c2	0x17fcee3
8000a2b4:	c9d61206 	lwc2	$22,4614(t6)
8000a2b8:	4b00c8e3 	c2	0x100c8e3
8000a2bc:	2021fffc 	addi	at,at,-4
8000a2c0:	4b92bf44 	c2	0x192bf44
8000a2c4:	01075822 	sub	t3,t0,a3
8000a2c8:	4b92c08d 	c2	0x192c08d
8000a2cc:	e97b07f3 	swc2	$27,2035(t3)
8000a2d0:	4b00054e 	c2	0x100054e
8000a2d4:	e97b03cb 	swc2	$27,971(t3)
8000a2d8:	4b434eb3 	c2	0x1434eb3
8000a2dc:	e9030e7a 	swc2	$3,3706(t0)
8000a2e0:	4bb2b9c6 	c2	0x1b2b9c6
8000a2e4:	e919147c 	swc2	$25,5244(t0)
8000a2e8:	4bb2c18f 	c2	0x1b2c18f
8000a2ec:	e9191879 	swc2	$25,6265(t0)
8000a2f0:	4b624772 	c2	0x1624772
8000a2f4:	e91a0e7b 	swc2	$26,3707(t0)
8000a2f8:	4b755971 	c2	0x1755971
8000a2fc:	e91a1173 	swc2	$26,4467(t0)
8000a300:	4be25932 	c2	0x1e25932
8000a304:	c9c31801 	lwc2	$3,6145(t6)
8000a308:	4bf57971 	c2	0x1f57971
8000a30c:	00015fc3 	sra	t3,at,0x1f
8000a310:	4b007932 	c2	0x1007932
8000a314:	316b0028 	andi	t3,t3,0x28
8000a318:	4af8c765 	c2	0xf8c765
8000a31c:	21ef0050 	addi	t7,t7,80
8000a320:	4af7bf64 	c2	0xf7bf64
8000a324:	01eb4022 	sub	t0,t7,t3
8000a328:	4a05af44 	c2	0x5af44
8000a32c:	484a0800 	cfc2	t2,$1
8000a330:	4a05174d 	c2	0x5174d
8000a334:	e9171c7c 	swc2	$23,7292(t0)
8000a338:	4a04ad4e 	c2	0x4ad4e
8000a33c:	c9d41804 	lwc2	$20,6148(t6)
8000a340:	4a04108f 	c2	0x4108f
8000a344:	e9f71877 	swc2	$23,6263(t7)
8000a348:	4b00c763 	c2	0x100c763
8000a34c:	c9170f72 	lwc2	$23,3954(t0)
8000a350:	4b3f0f47 	c2	0x13f0f47
8000a354:	e9181c7b 	swc2	$24,7291(t0)
8000a358:	4b9fae8e 	c2	0x19fae8e
8000a35c:	c9f70b5e 	lwc2	$23,2910(t7)
8000a360:	4b9f164f 	c2	0x19f164f
8000a364:	e9f81876 	swc2	$24,6262(t7)
8000a368:	4bff00a7 	c2	0x1ff00a7
8000a36c:	c9d41c06 	lwc2	$20,7174(t6)
8000a370:	4ae6c765 	c2	0xe6c765
8000a374:	e903107a 	swc2	$3,4218(t0)
8000a378:	4a05d744 	c2	0x5d744
8000a37c:	c9180f6e 	lwc2	$24,3950(t0)
8000a380:	4a05cf4d 	c2	0x5cf4d
8000a384:	e9e31270 	swc2	$3,4720(t7)
8000a388:	4a04d14e 	c2	0x4d14e
8000a38c:	c9f80b5a 	lwc2	$24,2906(t7)
8000a390:	4a04c90f 	c2	0x4c90f
8000a394:	a50afffe 	sh	t2,-2(t0)
8000a398:	4bff108f 	c2	0x1ff108f
8000a39c:	000a5900 	sll	t3,t2,0x4
8000a3a0:	4ae7bf64 	c2	0xe7bf64
8000a3a4:	484a0800 	cfc2	t2,$1
8000a3a8:	4ae5bf44 	c2	0xe5bf44
8000a3ac:	e9050f7d 	swc2	$5,3965(t0)
8000a3b0:	4ae5c74d 	c2	0xe5c74d
8000a3b4:	21ce0020 	addi	t6,t6,32
8000a3b8:	4ae2be8e 	c2	0xe2be8e
8000a3bc:	a50afffc 	sh	t2,-4(t0)
8000a3c0:	4ae2c64f 	c2	0xe2c64f
8000a3c4:	000a5100 	sll	t2,t2,0x4
8000a3c8:	4a12b0c5 	c2	0x12b0c5
8000a3cc:	a5ebffd6 	sh	t3,-42(t7)
8000a3d0:	a5eaffd4 	sh	t2,-44(t7)
8000a3d4:	4b92d744 	c2	0x192d744
8000a3d8:	e9e50b69 	swc2	$5,2921(t7)
8000a3dc:	4b92ce4d 	c2	0x192ce4d
8000a3e0:	e9040f7c 	swc2	$4,3964(t0)
8000a3e4:	4b00068e 	c2	0x100068e
8000a3e8:	e9e40b68 	swc2	$4,2920(t7)
8000a3ec:	e903127b 	swc2	$3,4731(t0)
8000a3f0:	4b018f47 	c2	0x1018f47
8000a3f4:	e9e31671 	swc2	$3,5745(t7)
8000a3f8:	4b7f9f4f 	c2	0x17f9f4f
8000a3fc:	4a10d68e 	c2	0x10d68e
8000a400:	1c20ff9c 	bgtz	at,8000a274 <gspF3DEX2_fifoTextStart+0x524>
8000a404:	4a10ce4f 	c2	0x10ce4f
8000a408:	07e0ff4f 	bltz	ra,8000a148 <gspF3DEX2_fifoTextStart+0x3f8>
8000a40c:	4b00c8e3 	c2	0x100c8e3
8000a410:	e919147c 	swc2	$25,5244(t0)
8000a414:	4b7fcee3 	c2	0x17fcee3
8000a418:	e9f91072 	swc2	$25,4210(t7)
8000a41c:	e91a0e7b 	swc2	$26,3707(t0)
8000a420:	e9fa0a67 	swc2	$26,2663(t7)
8000a424:	e9030e7a 	swc2	$3,3706(t0)
8000a428:	10e0fe8e 	beqz	a3,80009e64 <gspF3DEX2_fifoTextStart+0x114>
8000a42c:	e9e30a66 	swc2	$3,2662(t7)
8000a430:	e91b07eb 	swc2	$27,2027(t0)
8000a434:	08000465 	j	80001194 <osCreatePiManager+0xe4>
8000a438:	e9fb03c3 	swc2	$27,963(t7)
8000a43c:	200d0180 	addi	t5,zero,384
8000a440:	c810181c 	lwc2	$16,6172(zero)
8000a444:	c8101c1c 	lwc2	$16,7196(zero)
8000a448:	c9bd1018 	lwc2	$29,4120(t5)
8000a44c:	c811181d 	lwc2	$17,6173(zero)
8000a450:	c8111c1d 	lwc2	$17,7197(zero)
8000a454:	4b7ffce0 	c2	0x17ffce0
8000a458:	4a100551 	c2	0x100551
8000a45c:	c9b2121a 	lwc2	$18,4634(t5)
8000a460:	4b1d8427 	c2	0x11d8427
8000a464:	c9b2161a 	lwc2	$18,5658(t5)
8000a468:	4b0104e7 	c2	0x10104e7
8000a46c:	c8121437 	lwc2	$18,5175(zero)
8000a470:	4b3d8c67 	c2	0x13d8c67
8000a474:	c9b20d03 	lwc2	$18,3331(t5)
8000a478:	4b354c33 	c2	0x1354c33
8000a47c:	03e00008 	jr	ra
8000a480:	22e80050 	addi	t0,s7,80
8000a484:	0c0005f1 	jal	800017c4 <__osDevMgrMain+0x214>
8000a488:	aef80004 	sw	t8,4(s7)
8000a48c:	201f1194 	addi	ra,zero,4500
8000a490:	aef90004 	sw	t9,4(s7)
8000a494:	cae23000 	lwc2	$2,12288(s7)
8000a498:	92e10005 	lbu	at,5(s7)
8000a49c:	92e20006 	lbu	v0,6(s7)
8000a4a0:	92e30007 	lbu	v1,7(s7)
8000a4a4:	4bbf00ea 	c2	0x1bf00ea
8000a4a8:	94210380 	lhu	at,896(at)
8000a4ac:	4bdf0906 	c2	0x1df0906
8000a4b0:	94420380 	lhu	v0,896(v0)
8000a4b4:	4b3e108c 	c2	0x13e108c
8000a4b8:	94630380 	lhu	v1,896(v1)
8000a4bc:	4b00010e 	c2	0x100010e
8000a4c0:	34240000 	ori	a0,at,0x0
8000a4c4:	4bff016d 	c2	0x1ff016d
8000a4c8:	c8261006 	lwc2	$6,4102(at)
8000a4cc:	4bff01ed 	c2	0x1ff01ed
8000a4d0:	c8441006 	lwc2	$4,4102(v0)
8000a4d4:	4ba271b3 	c2	0x1a271b3
8000a4d8:	c8681006 	lwc2	$8,4102(v1)
8000a4dc:	4bff026d 	c2	0x1ff026d
8000a4e0:	8c250024 	lw	a1,36(at)
8000a4e4:	4be27233 	c2	0x1e27233
8000a4e8:	8c460024 	lw	a2,36(v0)
8000a4ec:	4b260090 	c2	0x1260090
8000a4f0:	8c670024 	lw	a3,36(v1)
8000a4f4:	4a043291 	c2	0x43291
8000a4f8:	30ab7070 	andi	t3,a1,0x7070
8000a4fc:	4a0622d1 	c2	0x622d1
8000a500:	00cb5824 	and	t3,a2,t3
8000a504:	4a083311 	c2	0x83311
8000a508:	00eb5824 	and	t3,a3,t3
8000a50c:	4b241360 	c2	0x1241360
8000a510:	4a0433a7 	c2	0x433a7
8000a514:	156001e3 	bnez	t3,8000aca4 <gspF3DEX2_fifoTextStart+0xf54>
8000a518:	900b01ee 	lbu	t3,494(zero)
8000a51c:	4b2c5747 	c2	0x12c5747
8000a520:	8c0c03cc 	lw	t4,972(zero)
8000a524:	4b2b674f 	c2	0x12b674f
8000a528:	00a62825 	or	a1,a1,a2
8000a52c:	4b2410a3 	c2	0x12410a3
8000a530:	00a72825 	or	a1,a1,a3
8000a534:	4a0432a7 	c2	0x432a7
8000a538:	8d6b03c2 	lw	t3,962(t3)
8000a53c:	4b2869a3 	c2	0x12869a3
8000a540:	4806e800 	mfc2	a2,$29
8000a544:	4a087127 	c2	0x87127
8000a548:	00ac2824 	and	a1,a1,t4
8000a54c:	4a0e43a7 	c2	0xe43a7
8000a550:	14a0fe98 	bnez	a1,80009fb4 <gspF3DEX2_fifoTextStart+0x264>
8000a554:	00cb5820 	add	t3,a2,t3
8000a558:	4a0231a0 	c2	0x231a0
8000a55c:	056101d1 	bgez	t3,8000aca4 <gspF3DEX2_fifoTextStart+0xf54>
8000a560:	4a0a20a7 	c2	0xa20a7
8000a564:	4a0452a7 	c2	0x452a7
8000a568:	48017600 	0x48017600
8000a56c:	4bbf7106 	c2	0x1bf7106
8000a570:	10c001cc 	beqz	a2,8000aca4 <gspF3DEX2_fifoTextStart+0xf54>
8000a574:	4a0e1191 	c2	0xe1191
8000a578:	48021600 	0x48021600
8000a57c:	4a0e5211 	c2	0xe5211
8000a580:	48035600 	0x48035600
8000a584:	4a0272d1 	c2	0x272d1
8000a588:	8c0601ec 	lw	a2,492(zero)
8000a58c:	4a0a7311 	c2	0xa7311
8000a590:	c82d1008 	lwc2	$13,4104(at)
8000a594:	4a0253d1 	c2	0x253d1
8000a598:	c84d1408 	lwc2	$13,5128(v0)
8000a59c:	4b083407 	c2	0x1083407
8000a5a0:	c86d1608 	lwc2	$13,5640(v1)
8000a5a4:	4b0b440f 	c2	0x10b440f
8000a5a8:	00065a80 	sll	t3,a2,0xa
8000a5ac:	4b118c5d 	c2	0x1118c5d
8000a5b0:	0561000a 	bgez	t3,8000a5dc <gspF3DEX2_fifoTextStart+0x88c>
8000a5b4:	4b30841d 	c2	0x130841d
8000a5b8:	c8323002 	lwc2	$18,12290(at)
8000a5bc:	4b0653f3 	c2	0x10653f3
8000a5c0:	c8533002 	lwc2	$19,12290(v0)
8000a5c4:	4b2f4530 	c2	0x12f4530
8000a5c8:	c8753002 	lwc2	$21,12290(v1)
8000a5cc:	4b3145b2 	c2	0x13145b2
8000a5d0:	4b304df1 	c2	0x1304df1
8000a5d4:	0800064e 	j	80001938 <__osDevMgrMain+0x388>
8000a5d8:	4b004e32 	c2	0x1004e32
8000a5dc:	c8923002 	lwc2	$18,12290(a0)
8000a5e0:	4b2f4530 	c2	0x12f4530
8000a5e4:	c8320313 	lwc2	$18,787(at)
8000a5e8:	4b3145b2 	c2	0x13145b2
8000a5ec:	c8933002 	lwc2	$19,12290(a0)
8000a5f0:	4b304df1 	c2	0x1304df1
8000a5f4:	c8530313 	lwc2	$19,787(v0)
8000a5f8:	4b004e32 	c2	0x1004e32
8000a5fc:	c8953002 	lwc2	$21,12290(a0)
8000a600:	4b0653f3 	c2	0x10653f3
8000a604:	c8750313 	lwc2	$21,787(v1)
8000a608:	4b265530 	c2	0x1265530
8000a60c:	4b2655b2 	c2	0x12655b2
8000a610:	8c250020 	lw	a1,32(at)
8000a614:	4b285d30 	c2	0x1285d30
8000a618:	8c470020 	lw	a3,32(v0)
8000a61c:	4b285db2 	c2	0x1285db2
8000a620:	8c680020 	lw	t0,32(v1)
8000a624:	4b7e9484 	c2	0x17e9484
8000a628:	900901e7 	lbu	t1,487(zero)
8000a62c:	4b7e9cc4 	c2	0x17e9cc4
8000a630:	00a75822 	sub	t3,a1,a3
8000a634:	4b7ead44 	c2	0x17ead44
8000a638:	000b67c3 	sra	t4,t3,0x1f
8000a63c:	4b085bf3 	c2	0x1085bf3
8000a640:	016c5824 	and	t3,t3,t4
8000a644:	4bfea744 	c2	0x1fea744
8000a648:	00ab2822 	sub	a1,a1,t3
8000a64c:	4bfeb58d 	c2	0x1feb58d
8000a650:	00a85822 	sub	t3,a1,t0
8000a654:	4b00050e 	c2	0x100050e
8000a658:	000b67c3 	sra	t4,t3,0x1f
8000a65c:	4b5e7e45 	c2	0x15e7e45
8000a660:	016c5824 	and	t3,t3,t4
8000a664:	4b0003ce 	c2	0x10003ce
8000a668:	00ab2822 	sub	a1,a1,t3
8000a66c:	4a040115 	c2	0x40115
8000a670:	aee50010 	sw	a1,16(s7)
8000a674:	4a000691 	c2	0x691
8000a678:	cafb1004 	lwc2	$27,4100(s7)
8000a67c:	4a14cf45 	c2	0x14cf45
8000a680:	48058880 	0x48058880
8000a684:	4a147f4c 	c2	0x147f4c
8000a688:	900701e6 	lbu	a3,486(zero)
8000a68c:	4a167d0e 	c2	0x167d0e
8000a690:	c8530f0e 	lwc2	$19,3854(v0)
8000a694:	4a16cbcf 	c2	0x16cbcf
8000a698:	c8750f0e 	lwc2	$21,3854(v1)
8000a69c:	4a10bf44 	c2	0x10bf44
8000a6a0:	c8470f0f 	lwc2	$7,3855(v0)
8000a6a4:	4a10c74d 	c2	0x10c74d
8000a6a8:	c8690f0f 	lwc2	$9,3855(v1)
8000a6ac:	4a11bc0e 	c2	0x11bc0e
8000a6b0:	34cb00c8 	ori	t3,a2,0xc8
8000a6b4:	4a11c44f 	c2	0x11c44f
8000a6b8:	01695825 	or	t3,t3,t1
8000a6bc:	4bbea5a8 	c2	0x1bea5a8
8000a6c0:	4b7e7be6 	c2	0x17e7be6
8000a6c4:	a2eb0000 	sb	t3,0(s7)
8000a6c8:	4bde0f47 	c2	0x1de0f47
8000a6cc:	eaea0901 	swc2	$10,2305(s7)
8000a6d0:	4b9e840e 	c2	0x19e840e
8000a6d4:	eae20902 	swc2	$2,2306(s7)
8000a6d8:	4b9e8c4f 	c2	0x19e8c4f
8000a6dc:	eaee0903 	swc2	$14,2307(s7)
8000a6e0:	4b0e1f46 	c2	0x10e1f46
8000a6e4:	30ac0080 	andi	t4,a1,0x80
8000a6e8:	4b24b74c 	c2	0x124b74c
8000a6ec:	01876025 	or	t4,t4,a3
8000a6f0:	4b247f4d 	c2	0x1247f4d
8000a6f4:	a2ec0001 	sb	t4,1(s7)
8000a6f8:	4b3ab08e 	c2	0x13ab08e
8000a6fc:	1120001d 	beqz	t1,8000a774 <gspF3DEX2_fifoTextStart+0xa24>
8000a700:	4b3a78cf 	c2	0x13a78cf
8000a704:	4b1b4772 	c2	0x11b4772
8000a708:	4b3b42b1 	c2	0x13b42b1
8000a70c:	4a6d0390 	c2	0x6d0390
8000a710:	4b0046f2 	c2	0x10046f2
8000a714:	4bff05aa 	c2	0x1ff05aa
8000a718:	4b0a6f45 	c2	0x10a6f45
8000a71c:	4b0a774c 	c2	0x10a774c
8000a720:	c8361005 	lwc2	$22,4101(at)
8000a724:	4b1b738e 	c2	0x11b738e
8000a728:	c8561405 	lwc2	$22,5125(v0)
8000a72c:	4b1b6b4f 	c2	0x11b6b4f
8000a730:	4bff02aa 	c2	0x1ff02aa
8000a734:	4bfef763 	c2	0x1fef763
8000a738:	c86a1405 	lwc2	$10,5125(v1)
8000a73c:	4a8eb745 	c2	0x8eb745
8000a740:	4a8db58f 	c2	0x8db58f
8000a744:	4b00064e 	c2	0x100064e
8000a748:	4bce5745 	c2	0x1ce5745
8000a74c:	4bcd528f 	c2	0x1cd528f
8000a750:	4b00034e 	c2	0x100034e
8000a754:	eaf61804 	swc2	$22,6148(s7)
8000a758:	4a169ce7 	c2	0x169ce7
8000a75c:	eaf91805 	swc2	$25,6149(s7)
8000a760:	4a1939e7 	c2	0x1939e7
8000a764:	caf21c04 	lwc2	$18,7172(s7)
8000a768:	4a0aad67 	c2	0xaad67
8000a76c:	cae51c05 	lwc2	$5,7173(s7)
8000a770:	4a0d4a67 	c2	0xd4a67
8000a774:	4a178744 	c2	0x178744
8000a778:	c8250f0f 	lwc2	$5,3855(at)
8000a77c:	4a178f4d 	c2	0x178f4d
8000a780:	c8320f0e 	lwc2	$18,3854(at)
8000a784:	4a1885ce 	c2	0x1885ce
8000a788:	84410018 	lh	at,24(v0)
8000a78c:	4a188e0f 	c2	0x188e0f
8000a790:	26e20020 	addiu	v0,s7,32
8000a794:	4a054a95 	c2	0x54a95
8000a798:	30c30004 	andi	v1,a2,0x4
8000a79c:	4a12aa51 	c2	0x12aa51
8000a7a0:	00010b80 	sll	at,at,0xe
8000a7a4:	4a053b55 	c2	0x53b55
8000a7a8:	aee10008 	sw	at,8(s7)
8000a7ac:	4a1299d1 	c2	0x1299d1
8000a7b0:	eae30b08 	swc2	$3,2824(s7)
8000a7b4:	4b265746 	c2	0x1265746
8000a7b8:	eae20b09 	swc2	$2,2825(s7)
8000a7bc:	4b264f4f 	c2	0x1264f4f
8000a7c0:	eae30a0c 	swc2	$3,2572(s7)
8000a7c4:	4b2c6f4e 	c2	0x12c6f4e
8000a7c8:	eae20a0d 	swc2	$2,2573(s7)
8000a7cc:	4b2c3f4f 	c2	0x12c3f4f
8000a7d0:	eaef0806 	swc2	$15,2054(s7)
8000a7d4:	4b22109d 	c2	0x122109d
8000a7d8:	eaf40807 	swc2	$20,2055(s7)
8000a7dc:	4b0318dd 	c2	0x10318dd
8000a7e0:	eaef0b0a 	swc2	$15,2826(s7)
8000a7e4:	4b086f46 	c2	0x1086f46
8000a7e8:	eaf40b0b 	swc2	$20,2827(s7)
8000a7ec:	4b083f4f 	c2	0x1083f4f
8000a7f0:	eaef0a0e 	swc2	$15,2574(s7)
8000a7f4:	4b0b574e 	c2	0x10b574e
8000a7f8:	eaf40a0f 	swc2	$20,2575(s7)
8000a7fc:	4b0b4f4f 	c2	0x10b4f4f
8000a800:	00035900 	sll	t3,v1,0x4
8000a804:	4b26319d 	c2	0x126319d
8000a808:	004b0820 	add	at,v0,t3
8000a80c:	4b0739dd 	c2	0x10739dd
8000a810:	00095940 	sll	t3,t1,0x5
8000a814:	4b371744 	c2	0x1371744
8000a818:	002bb820 	add	s7,at,t3
8000a81c:	4b371f4d 	c2	0x1371f4d
8000a820:	30c60001 	andi	a2,a2,0x1
8000a824:	4b38108e 	c2	0x138108e
8000a828:	00065900 	sll	t3,a2,0x4
8000a82c:	4b3818cf 	c2	0x13818cf
8000a830:	02ebb820 	add	s7,s7,t3
8000a834:	4b373744 	c2	0x1373744
8000a838:	4b373f4d 	c2	0x1373f4d
8000a83c:	4b38318e 	c2	0x138318e
8000a840:	e8421803 	swc2	$2,6147(v0)
8000a844:	4b3839cf 	c2	0x13839cf
8000a848:	e8431801 	swc2	$3,6145(v0)
8000a84c:	4b74174c 	c2	0x174174c
8000a850:	e8221c03 	swc2	$2,7171(at)
8000a854:	4b741f4d 	c2	0x1741f4d
8000a858:	e8231c01 	swc2	$3,7169(at)
8000a85c:	4b6f120e 	c2	0x16f120e
8000a860:	e8461807 	swc2	$6,6151(v0)
8000a864:	4b6f1a4f 	c2	0x16f1a4f
8000a868:	e8471805 	swc2	$7,6149(v0)
8000a86c:	4b012f46 	c2	0x1012f46
8000a870:	e8261c07 	swc2	$6,7175(at)
8000a874:	4b01974f 	c2	0x101974f
8000a878:	e8271c05 	swc2	$7,7173(at)
8000a87c:	4b24474c 	c2	0x124474c
8000a880:	e8481806 	swc2	$8,6150(v0)
8000a884:	4b244f4d 	c2	0x1244f4d
8000a888:	e8491804 	swc2	$9,6148(v0)
8000a88c:	4b3a414e 	c2	0x13a414e
8000a890:	e8281c06 	swc2	$8,7174(at)
8000a894:	4b3a4c8f 	c2	0x13a4c8f
8000a898:	e8291c04 	swc2	$9,7172(at)
8000a89c:	4b244286 	c2	0x1244286
8000a8a0:	10c00016 	beqz	a2,8000a8fc <gspF3DEX2_fifoTextStart+0xbac>
8000a8a4:	4bfe4206 	c2	0x1fe4206
8000a8a8:	4bfe4a4f 	c2	0x1fe4a4f
8000a8ac:	e8451802 	swc2	$5,6146(v0)
8000a8b0:	4bfe1086 	c2	0x1fe1086
8000a8b4:	e8521800 	swc2	$18,6144(v0)
8000a8b8:	4bfe18cf 	c2	0x1fe18cf
8000a8bc:	e8251c02 	swc2	$5,7170(at)
8000a8c0:	4bfe3186 	c2	0x1fe3186
8000a8c4:	e8321c00 	swc2	$18,7168(at)
8000a8c8:	4bfe39cf 	c2	0x1fe39cf
8000a8cc:	eae80f7d 	swc2	$8,3965(s7)
8000a8d0:	4bfe5744 	c2	0x1fe5744
8000a8d4:	eae90f7c 	swc2	$9,3964(s7)
8000a8d8:	4bfe294e 	c2	0x1fe294e
8000a8dc:	eae20f7b 	swc2	$2,3963(s7)
8000a8e0:	4bfe948f 	c2	0x1fe948f
8000a8e4:	eae30f7a 	swc2	$3,3962(s7)
8000a8e8:	eae60f7f 	swc2	$6,3967(s7)
8000a8ec:	eae70f7e 	swc2	$7,3966(s7)
8000a8f0:	eae50f79 	swc2	$5,3961(s7)
8000a8f4:	08000497 	j	8000125c <__osEPiRawStartDma+0x1c>
8000a8f8:	eaf20f78 	swc2	$18,3960(s7)
8000a8fc:	e8451802 	swc2	$5,6146(v0)
8000a900:	e8521800 	swc2	$18,6144(v0)
8000a904:	e8251c02 	swc2	$5,7170(at)
8000a908:	08000497 	j	8000125c <__osEPiRawStartDma+0x1c>
8000a90c:	e8321c00 	swc2	$18,7168(at)
8000a910:	97390380 	lhu	t9,896(t9)
8000a914:	97180380 	lhu	t8,896(t8)
8000a918:	24017070 	li	at,28784
8000a91c:	8f2b0024 	lw	t3,36(t9)
8000a920:	002b0824 	and	at,at,t3
8000a924:	1020fd4f 	beqz	at,80009e64 <gspF3DEX2_fifoTextStart+0x114>
8000a928:	8f2b004c 	lw	t3,76(t9)
8000a92c:	1738fffc 	bne	t9,t8,8000a920 <gspF3DEX2_fifoTextStart+0xbd0>
8000a930:	27390028 	addiu	t9,t9,40
8000a934:	0800047b 	j	800011ec <osCreatePiManager+0x13c>
8000a938:	97390380 	lhu	t9,896(t9)
8000a93c:	8f39001c 	lw	t9,28(t9)
8000a940:	03381022 	sub	v0,t9,t8
8000a944:	0441fd47 	bgez	v0,80009e64 <gspF3DEX2_fifoTextStart+0x114>
8000a948:	8c1800d8 	lw	t8,216(zero)
8000a94c:	08000402 	j	80001008 <debugInfo+0x100>
8000a950:	936109c1 	lbu	at,2497(k1)
8000a954:	08000410 	j	80001040 <debugInfo+0x138>
8000a958:	97390380 	lhu	t9,896(t9)
	...
8000ac7c:	200c1000 	addi	t4,zero,4096
8000ac80:	200b02e0 	addi	t3,zero,736
8000ac84:	8d780000 	lw	t8,0(t3)
8000ac88:	95730004 	lhu	s3,4(t3)
8000ac8c:	0c0007f6 	jal	80001fd8 <osSpTaskLoad+0x28>
8000ac90:	95740006 	lhu	s4,6(t3)
8000ac94:	359f0000 	ori	ra,t4,0x0
8000ac98:	400b3000 	mfc0	t3,c0_wired
8000ac9c:	1560ffff 	bnez	t3,8000ac9c <gspF3DEX2_fifoTextStart+0xf4c>
8000aca0:	400b3000 	mfc0	t3,c0_wired
8000aca4:	03e00008 	jr	ra
8000aca8:	400b2800 	mfc0	t3,c0_pagemask
8000acac:	1560ffff 	bnez	t3,8000acac <gspF3DEX2_fifoTextStart+0xf5c>
8000acb0:	400b2800 	mfc0	t3,c0_pagemask
8000acb4:	40940000 	mtc0	s4,c0_index
8000acb8:	06800003 	bltz	s4,8000acc8 <gspF3DEX2_fifoTextStart+0xf78>
8000acbc:	40980800 	mtc0	t8,c0_random
8000acc0:	03e00008 	jr	ra
8000acc4:	40931000 	mtc0	s3,c0_entrylo0
8000acc8:	03e00008 	jr	ra
8000accc:	40931800 	mtc0	s3,c0_entrylo1
8000acd0:	02f65822 	sub	t3,s7,s6
8000acd4:	256c0157 	addiu	t4,t3,343
8000acd8:	05910096 	bgezal	t4,8000af34 <gspF3DEX2_fifoTextStart+0x11e4>
8000acdc:	00000000 	nop
8000ace0:	0c0007f2 	jal	80001fc8 <osSpTaskLoad+0x18>
8000ace4:	8c1800f0 	lw	t8,240(zero)
8000ace8:	0420001a 	bltz	at,8000ad54 <gspF3DEX2_fifoTextStart+0x1004>
8000acec:	40984800 	mtc0	t8,c0_count
8000acf0:	1420000f 	bnez	at,8000ad30 <gspF3DEX2_fifoTextStart+0xfe0>
8000acf4:	035bd020 	add	k0,k0,k1
8000acf8:	8f7809c4 	lw	t8,2500(k1)
8000acfc:	ac1a0ff0 	sw	k0,4080(zero)
8000ad00:	ac180fd0 	sw	t8,4048(zero)
8000ad04:	24141080 	li	s4,4224
8000ad08:	0c0007f6 	jal	80001fd8 <osSpTaskLoad+0x28>
8000ad0c:	20130f47 	addi	s3,zero,3911
8000ad10:	8c1800d8 	lw	t8,216(zero)
8000ad14:	24140180 	li	s4,384
8000ad18:	33330fff 	andi	s3,t9,0xfff
8000ad1c:	0314c020 	add	t8,t8,s4
8000ad20:	0c0007f6 	jal	80001fd8 <osSpTaskLoad+0x28>
8000ad24:	02749822 	sub	s3,s3,s4
8000ad28:	080007f2 	j	80001fc8 <osSpTaskLoad+0x18>
8000ad2c:	201f1084 	addi	ra,zero,4228
8000ad30:	8c0b0fd0 	lw	t3,4048(zero)
8000ad34:	ac1a0bf8 	sw	k0,3064(zero)
8000ad38:	ac0b0bfc 	sw	t3,3068(zero)
8000ad3c:	200c5000 	addi	t4,zero,20480
8000ad40:	8c180ff8 	lw	t8,4088(zero)
8000ad44:	20148000 	addi	s4,zero,-32768
8000ad48:	20130bff 	addi	s3,zero,3071
8000ad4c:	080007f6 	j	80001fd8 <osSpTaskLoad+0x28>
8000ad50:	201f1088 	addi	ra,zero,4232
8000ad54:	200c4000 	addi	t4,zero,16384
8000ad58:	408c2000 	mtc0	t4,c0_context
8000ad5c:	0000000d 	break
	...
8000ad68:	900100de 	lbu	at,222(zero)
8000ad6c:	001913c0 	sll	v0,t9,0xf
8000ad70:	0c000489 	jal	80001224 <osCreatePiManager+0x174>
8000ad74:	035b1820 	add	v1,k0,k1
8000ad78:	04400059 	bltz	v0,8000aee0 <gspF3DEX2_fifoTextStart+0x1190>
8000ad7c:	371a0000 	ori	k0,t8,0x0
8000ad80:	ac230138 	sw	v1,312(at)
8000ad84:	20210004 	addi	at,at,4
8000ad88:	0800045e 	j	80001178 <osCreatePiManager+0xc8>
8000ad8c:	a00100de 	sb	at,222(zero)
8000ad90:	200b1140 	addi	t3,zero,4416
8000ad94:	ad79f0a4 	sw	t9,-3932(t3)
8000ad98:	08000465 	j	80001194 <osCreatePiManager+0xe4>
8000ad9c:	ad78f0a8 	sw	t8,-3928(t3)
8000ada0:	00191402 	srl	v0,t9,0x10
8000ada4:	944127fe 	lhu	at,10238(v0)
8000ada8:	00390820 	add	at,at,t9
8000adac:	08000465 	j	80001194 <osCreatePiManager+0xe4>
8000adb0:	ac380000 	sw	t8,0(at)
8000adb4:	8c0b00f4 	lw	t3,244(zero)
8000adb8:	8c020fe0 	lw	v0,4064(zero)
8000adbc:	0178c022 	sub	t8,t3,t8
8000adc0:	03020822 	sub	at,t8,v0
8000adc4:	04210002 	bgez	at,8000add0 <gspF3DEX2_fifoTextStart+0x1080>
8000adc8:	00000000 	nop
8000adcc:	34580000 	ori	t8,v0,0x0
8000add0:	130b004a 	beq	t8,t3,8000aefc <gspF3DEX2_fifoTextStart+0x11ac>
8000add4:	ac1800f4 	sw	t8,244(zero)
8000add8:	08000449 	j	80001124 <osCreatePiManager+0x74>
8000addc:	ac0001d9 	sw	zero,473(zero)
8000ade0:	943302f2 	lhu	s3,754(at)
8000ade4:	0c0007f2 	jal	80001fc8 <osSpTaskLoad+0x18>
8000ade8:	943502f2 	lhu	s5,754(at)
8000adec:	201f1194 	addi	ra,zero,4500
8000adf0:	228c0018 	addi	t4,s4,24
8000adf4:	4b00024e 	c2	0x100024e
8000adf8:	228b0008 	addi	t3,s4,8
8000adfc:	4b00020f 	c2	0x100020f
8000ae00:	22b5ffe0 	addi	s5,s5,-32
8000ae04:	4b000747 	c2	0x1000747
8000ae08:	caa51808 	lwc2	$5,6152(s5)
8000ae0c:	caa51c08 	lwc2	$5,7176(s5)
8000ae10:	ca832002 	lwc2	$3,8194(s4)
8000ae14:	caa41804 	lwc2	$4,6148(s5)
8000ae18:	caa41c04 	lwc2	$4,7172(s5)
8000ae1c:	ca822000 	lwc2	$2,8192(s4)
8000ae20:	4a832f4c 	c2	0x832f4c
8000ae24:	22940002 	addi	s4,s4,2
8000ae28:	4a83274d 	c2	0x83274d
8000ae2c:	22b50008 	addi	s5,s5,8
8000ae30:	4a8229ce 	c2	0x8229ce
8000ae34:	168bfff4 	bne	s4,t3,8000ae08 <gspF3DEX2_fifoTextStart+0x10b8>
8000ae38:	4a82218f 	c2	0x82218f
8000ae3c:	168cffed 	bne	s4,t4,8000adf4 <gspF3DEX2_fifoTextStart+0x10a4>
8000ae40:	22940008 	addi	s4,s4,8
8000ae44:	ea692002 	swc2	$9,8194(s3)
8000ae48:	ea682000 	swc2	$8,8192(s3)
8000ae4c:	ea672003 	swc2	$7,8195(s3)
8000ae50:	03e00008 	jr	ra
8000ae54:	ea662001 	swc2	$6,8193(s3)
8000ae58:	332b0005 	andi	t3,t9,0x5
8000ae5c:	15600008 	bnez	t3,8000ae80 <gspF3DEX2_fifoTextStart+0x1130>
8000ae60:	33220002 	andi	v0,t9,0x2
8000ae64:	8c1800f4 	lw	t8,244(zero)
8000ae68:	2014e000 	addi	s4,zero,-8192
8000ae6c:	0c0007f6 	jal	80001fd8 <osSpTaskLoad+0x28>
8000ae70:	2013003f 	addi	s3,zero,63
8000ae74:	23180040 	addi	t8,t8,64
8000ae78:	ac1800f4 	sw	t8,244(zero)
8000ae7c:	8f7809c4 	lw	t8,2500(k1)
8000ae80:	01826020 	add	t4,t4,v0
8000ae84:	ac0001d9 	sw	zero,473(zero)
8000ae88:	0c000489 	jal	80001224 <osCreatePiManager+0x174>
8000ae8c:	332100fe 	andi	at,t9,0xfe
8000ae90:	937309c1 	lbu	s3,2497(k1)
8000ae94:	943402f0 	lhu	s4,752(at)
8000ae98:	00191142 	srl	v0,t9,0x5
8000ae9c:	959f0336 	lhu	ra,822(t4)
8000aea0:	080007f6 	j	80001fd8 <osSpTaskLoad+0x28>
8000aea4:	0282a020 	add	s4,s4,v0
8000aea8:	8d63ef8c 	lw	v1,-4212(t3)
8000aeac:	3c028000 	lui	v0,0x8000
8000aeb0:	03221007 	srav	v0,v0,t9
8000aeb4:	00190a02 	srl	at,t9,0x8
8000aeb8:	00221006 	srlv	v0,v0,at
8000aebc:	00401027 	nor	v0,v0,zero
8000aec0:	00621824 	and	v1,v1,v0
8000aec4:	00781825 	or	v1,v1,t8
8000aec8:	ad63ef8c 	sw	v1,-4212(t3)
8000aecc:	8c1900c8 	lw	t9,200(zero)
8000aed0:	08000484 	j	80001210 <osCreatePiManager+0x160>
8000aed4:	8c1800cc 	lw	t8,204(zero)
8000aed8:	900b01dc 	lbu	t3,476(zero)
8000aedc:	080004bd 	j	800012f4 <__osEPiRawStartDma+0xb4>
8000aee0:	900601dd 	lbu	a2,477(zero)
8000aee4:	37fe0000 	ori	s8,ra,0x0
8000aee8:	200b0418 	addi	t3,zero,1048
8000aeec:	080007ed 	j	80001fb4 <osSpTaskLoad+0x4>
8000aef0:	200c12e8 	addi	t4,zero,4840
8000aef4:	1560008f 	bnez	t3,8000b134 <init_dl+0x2c>
8000aef8:	20c60168 	addi	a2,a2,360
8000aefc:	a01901dc 	sb	t9,476(zero)
8000af00:	c80c2002 	lwc2	$12,8194(zero)
8000af04:	c8082000 	lwc2	$8,8192(zero)
8000af08:	c80d0915 	lwc2	$13,2325(zero)
8000af0c:	c8090905 	lwc2	$9,2309(zero)
8000af10:	4b2c4373 	c2	0x12c4373
8000af14:	c80e0a1a 	lwc2	$14,2586(zero)
8000af18:	4b284273 	c2	0x1284273
8000af1c:	c80a0a0a 	lwc2	$10,2570(zero)
8000af20:	4b4c43b3 	c2	0x14c43b3
8000af24:	20140150 	addi	s4,zero,336
8000af28:	4b4842b3 	c2	0x14842b3
8000af2c:	ca873015 	lwc2	$7,12309(s4)
8000af30:	4bcc4bb3 	c2	0x1cc4bb3
8000af34:	c80d0a19 	lwc2	$13,2585(zero)
8000af38:	4bc84ab3 	c2	0x1c84ab3
8000af3c:	c8090a09 	lwc2	$9,2569(zero)
8000af40:	4b8c4b33 	c2	0x18c4b33
8000af44:	c80c0a18 	lwc2	$12,2584(zero)
8000af48:	4b884a33 	c2	0x1884a33
8000af4c:	c8080a08 	lwc2	$8,2568(zero)
8000af50:	4b276f46 	c2	0x1276f46
8000af54:	4b274f4f 	c2	0x1274f4f
8000af58:	4b07674e 	c2	0x107674e
8000af5c:	ea8f3016 	swc2	$15,12310(s4)
8000af60:	4b07474f 	c2	0x107474f
8000af64:	8e8c00b0 	lw	t4,176(s4)
8000af68:	4b47774e 	c2	0x147774e
8000af6c:	4b47574f 	c2	0x147574f
8000af70:	4b2b5add 	c2	0x12b5add
8000af74:	ae8c00b4 	sw	t4,180(s4)
8000af78:	4b0f7bdd 	c2	0x10f7bdd
8000af7c:	1286006d 	beq	s4,a2,8000b134 <init_dl+0x2c>
8000af80:	4a0b5f44 	c2	0xb5f44
8000af84:	4a0b7f4d 	c2	0xb7f4d
8000af88:	4a0f5c0e 	c2	0xf5c0e
8000af8c:	11600002 	beqz	t3,8000af98 <gspF3DEX2_fifoTextStart+0x1248>
8000af90:	4a0f7c4f 	c2	0xf7c4f
8000af94:	22940018 	addi	s4,s4,24
8000af98:	4b308494 	c2	0x1308494
8000af9c:	200b0001 	addi	t3,zero,1
8000afa0:	4b318f50 	c2	0x1318f50
8000afa4:	4b509414 	c2	0x1509414
8000afa8:	4b51ec50 	c2	0x151ec50
8000afac:	4b114776 	c2	0x1114776
8000afb0:	ca873018 	lwc2	$7,12312(s4)
8000afb4:	4b104435 	c2	0x1104435
8000afb8:	4b004476 	c2	0x1004476
8000afbc:	4b105f44 	c2	0x1105f44
8000afc0:	4b107f4d 	c2	0x1107f4d
8000afc4:	4b115ace 	c2	0x1115ace
8000afc8:	4b117bcf 	c2	0x1117bcf
8000afcc:	4b7e5ac6 	c2	0x17e5ac6
8000afd0:	080004d4 	j	80001350 <__osEPiRawStartDma+0x110>
8000afd4:	4b7e7bcf 	c2	0x17e7bcf
8000afd8:	4aa70190 	c2	0xa70190
8000afdc:	c9343013 	lwc2	$20,12307(t1)
8000afe0:	4ac70150 	c2	0xc70150
8000afe4:	c9db3801 	lwc2	$27,14337(t6)
8000afe8:	4afff922 	c2	0xfff922
8000afec:	c93d3817 	lwc2	$29,14359(t1)
8000aff0:	4a823d41 	c2	0x823d41
8000aff4:	c9243814 	lwc2	$4,14356(t1)
8000aff8:	4aa23549 	c2	0xa23549
8000affc:	112d002e 	beq	t1,t5,8000b0b8 <gspF3DEX2_fifoTextStart+0x1368>
8000b000:	4ac22d49 	c2	0xc22d49
8000b004:	4a943f01 	c2	0x943f01
8000b008:	c9233811 	lwc2	$3,14353(t1)
8000b00c:	4ab43709 	c2	0xb43709
8000b010:	212bffe8 	addi	t3,t1,-24
8000b014:	4ad42f09 	c2	0xd42f09
8000b018:	2129ffd0 	addi	t1,t1,-48
8000b01c:	4a1bef67 	c2	0x1bef67
8000b020:	48802300 	0x48802300
8000b024:	4b0018e7 	c2	0x10018e7
8000b028:	48802700 	0x48802700
8000b02c:	4bffad68 	c2	0x1ffad68
8000b030:	c9223016 	lwc2	$2,12310(t1)
8000b034:	4bffe728 	c2	0x1ffe728
8000b038:	c9343013 	lwc2	$20,12307(t1)
8000b03c:	4bffef40 	c2	0x1ffef40
8000b040:	4a952748 	c2	0x952748
8000b044:	156dffea 	bne	t3,t5,8000aff0 <gspF3DEX2_fifoTextStart+0x12a0>
8000b048:	4a9c1f48 	c2	0x9c1f48
8000b04c:	4bbf00e7 	c2	0x1bf00e7
8000b050:	c9d61206 	lwc2	$22,4614(t6)
8000b054:	4b7fcee3 	c2	0x17fcee3
8000b058:	30ab0004 	andi	t3,a1,0x4
8000b05c:	4a823d40 	c2	0x823d40
8000b060:	11600061 	beqz	t3,8000b1e8 <font_xscale>
8000b064:	e9dd3801 	swc2	$29,14337(t6)
8000b068:	4aa23548 	c2	0xa23548
8000b06c:	30ac0008 	andi	t4,a1,0x8
8000b070:	4ac22d48 	c2	0xc22d48
8000b074:	4bbf192c 	c2	0x1bf192c
8000b078:	4a943f00 	c2	0x943f00
8000b07c:	4ab43708 	c2	0xb43708
8000b080:	4ad42f08 	c2	0xd42f08
8000b084:	c802201d 	lwc2	$2,8221(zero)
8000b088:	4bbf0d87 	c2	0x1bf0d87
8000b08c:	4a951d88 	c2	0x951d88
8000b090:	11800055 	beqz	t4,8000b1e8 <font_xscale>
8000b094:	4a9c2588 	c2	0x9c2588
8000b098:	4b020d8f 	c2	0x1020d8f
8000b09c:	4a16b100 	c2	0x16b100
8000b0a0:	4bffb0c0 	c2	0x1ffb0c0
8000b0a4:	4b42b0c8 	c2	0x142b0c8
8000b0a8:	4bbf0d47 	c2	0x1bf0d47
8000b0ac:	4b22b588 	c2	0x122b588
8000b0b0:	0800057a 	j	800015e8 <__osDevMgrMain+0x38>
8000b0b4:	4a032588 	c2	0x32588
8000b0b8:	4a1bef67 	c2	0x1bef67
8000b0bc:	4b002127 	c2	0x1002127
8000b0c0:	4bffad68 	c2	0x1ffad68
8000b0c4:	4afff8e1 	c2	0xfff8e1
8000b0c8:	c9223010 	lwc2	$2,12304(t1)
8000b0cc:	4bbf00e7 	c2	0x1bf00e7
8000b0d0:	c9d61206 	lwc2	$22,4614(t6)
8000b0d4:	4bffef40 	c2	0x1ffef40
8000b0d8:	08000515 	j	80001454 <osCartRomInit+0x24>
8000b0dc:	4a952748 	c2	0x952748

8000b0e0 <gspF3DEX2_fifoTextEnd>:
8000b0e0:	e3000a01 	sc	zero,2561(t8)
8000b0e4:	00300000 	0x300000
8000b0e8:	ff10013f 	sd	s0,319(t8)
8000b0ec:	02000000 	0x2000000
8000b0f0:	f7000000 	sdc1	$f0,0(t8)
8000b0f4:	00010001 	0x10001
8000b0f8:	f64fc3bc 	sdc1	$f15,-15428(s2)
8000b0fc:	00000000 	nop
8000b100:	df000000 	ld	zero,0(t8)
8000b104:	00000000 	nop

8000b108 <init_dl>:
8000b108:	dc080008 8000b1d0 d9c0f9fb 00000000     ................
8000b118:	d7000000 00000000 d9ffffff 00200004     ............. ..
8000b128:	db040004 00000002 db04000c 00000002     ................
8000b138:	db040014 0000fffe db04001c 0000fffe     ................
8000b148:	e3000a01 00000000 e3000800 00000000     ................
8000b158:	ed000000 005003c0 e3000f00 00000000     .....P..........
8000b168:	e3001001 00000000 e3000d01 00000000     ................
8000b178:	e3000c00 00080000 e3001201 00002000     .............. .
8000b188:	e3001402 00000c00 fcffffff fffe793c     ..............y<
8000b198:	e3001700 00000000 e2001e01 00000000     ................
8000b1a8:	e200001c 00552078 e3001801 00000040     .....U x.......@
8000b1b8:	e3001a01 00000020 e7000000 00000000     ....... ........
8000b1c8:	df000000 00000000                       ........

8000b1d0 <vp>:
8000b1d0:	028001e0 01ff0000 028001e0 01ff0000     ................

8000b1e0 <font_yscale>:
8000b1e0:	3ff00000 00000000                       ?.......

8000b1e8 <font_xscale>:
8000b1e8:	3ff00000 00000000                       ?.......

8000b1f0 <font_win_height>:
8000b1f0:	00000001                                ....

8000b1f4 <font_win_width>:
8000b1f4:	00000028                                ...(

8000b1f8 <font_alf>:
8000b1f8:	                                         .

8000b1f9 <font_blu>:
8000b1f9:	                                         .

8000b1fa <font_grn>:
8000b1fa:	                                         .

8000b1fb <font_red>:
8000b1fb:	                                         .

8000b1fc <template_sprite>:
	...
8000b204:	3f800000 3f800000 00000000 00011234     ?...?..........4
8000b214:	ffffffff 00000000 00000000 00000001     ................
8000b224:	03c02d18 00080040 04000000 800289d8     ..-....@........
8000b234:	80012118 00000000 00000000              ..!.........

8000b240 <gbfont_font>:
8000b240:	8000b73c 8000b24c 8000b78c              ...<...L....

8000b24c <gbfont_bms>:
8000b24c:	00080040 00000000 8000b78c 00080000     ...@............
8000b25c:	00080040 00080000 8000b78c 00080000     ...@............
8000b26c:	00080040 00100000 8000b78c 00080000     ...@............
8000b27c:	00080040 00180000 8000b78c 00080000     ...@............
8000b28c:	00080040 00200000 8000b78c 00080000     ...@. ..........
8000b29c:	00080040 00280000 8000b78c 00080000     ...@.(..........
8000b2ac:	00080040 00300000 8000b78c 00080000     ...@.0..........
8000b2bc:	00080040 00380000 8000b78c 00080000     ...@.8..........
8000b2cc:	00080040 00000008 8000b78c 00080000     ...@............
8000b2dc:	00080040 00080008 8000b78c 00080000     ...@............
8000b2ec:	00080040 00100008 8000b78c 00080000     ...@............
8000b2fc:	00080040 00180008 8000b78c 00080000     ...@............
8000b30c:	00080040 00200008 8000b78c 00080000     ...@. ..........
8000b31c:	00080040 00280008 8000b78c 00080000     ...@.(..........
8000b32c:	00080040 00300008 8000b78c 00080000     ...@.0..........
8000b33c:	00080040 00380008 8000b78c 00080000     ...@.8..........
8000b34c:	00080040 00000010 8000b78c 00080000     ...@............
8000b35c:	00080040 00080010 8000b78c 00080000     ...@............
8000b36c:	00080040 00100010 8000b78c 00080000     ...@............
8000b37c:	00080040 00180010 8000b78c 00080000     ...@............
8000b38c:	00080040 00200010 8000b78c 00080000     ...@. ..........
8000b39c:	00080040 00280010 8000b78c 00080000     ...@.(..........
8000b3ac:	00080040 00300010 8000b78c 00080000     ...@.0..........
8000b3bc:	00080040 00380010 8000b78c 00080000     ...@.8..........
8000b3cc:	00080040 00000018 8000b78c 00080000     ...@............
8000b3dc:	00080040 00080018 8000b78c 00080000     ...@............
8000b3ec:	00080040 00000000 8000b78c 00080000     ...@............
8000b3fc:	00080040 00080000 8000b78c 00080000     ...@............
8000b40c:	00080040 00100000 8000b78c 00080000     ...@............
8000b41c:	00080040 00180000 8000b78c 00080000     ...@............
8000b42c:	00080040 00200000 8000b78c 00080000     ...@. ..........
8000b43c:	00080040 00280000 8000b78c 00080000     ...@.(..........
8000b44c:	00080040 00300000 8000b78c 00080000     ...@.0..........
8000b45c:	00080040 00380000 8000b78c 00080000     ...@.8..........
8000b46c:	00080040 00000008 8000b78c 00080000     ...@............
8000b47c:	00080040 00080008 8000b78c 00080000     ...@............
8000b48c:	00080040 00100008 8000b78c 00080000     ...@............
8000b49c:	00080040 00180008 8000b78c 00080000     ...@............
8000b4ac:	00080040 00200008 8000b78c 00080000     ...@. ..........
8000b4bc:	00080040 00280008 8000b78c 00080000     ...@.(..........
8000b4cc:	00080040 00300008 8000b78c 00080000     ...@.0..........
8000b4dc:	00080040 00380008 8000b78c 00080000     ...@.8..........
8000b4ec:	00080040 00000010 8000b78c 00080000     ...@............
8000b4fc:	00080040 00080010 8000b78c 00080000     ...@............
8000b50c:	00080040 00100010 8000b78c 00080000     ...@............
8000b51c:	00080040 00180010 8000b78c 00080000     ...@............
8000b52c:	00080040 00200010 8000b78c 00080000     ...@. ..........
8000b53c:	00080040 00280010 8000b78c 00080000     ...@.(..........
8000b54c:	00080040 00300010 8000b78c 00080000     ...@.0..........
8000b55c:	00080040 00380010 8000b78c 00080000     ...@.8..........
8000b56c:	00080040 00000018 8000b78c 00080000     ...@............
8000b57c:	00080040 00080018 8000b78c 00080000     ...@............
8000b58c:	00080040 00100018 8000b78c 00080000     ...@............
8000b59c:	00080040 00180018 8000b78c 00080000     ...@............
8000b5ac:	00080040 00200018 8000b78c 00080000     ...@. ..........
8000b5bc:	00080040 00280018 8000b78c 00080000     ...@.(..........
8000b5cc:	00080040 00300018 8000b78c 00080000     ...@.0..........
8000b5dc:	00080040 00380018 8000b78c 00080000     ...@.8..........
8000b5ec:	00080040 00000020 8000b78c 00080000     ...@... ........
8000b5fc:	00080040 00080020 8000b78c 00080000     ...@... ........
8000b60c:	00080040 00100020 8000b78c 00080000     ...@... ........
8000b61c:	00080040 00180020 8000b78c 00080000     ...@... ........
8000b62c:	00080040 00200020 8000b78c 00080000     ...@. . ........
8000b63c:	00080040 00280020 8000b78c 00080000     ...@.(. ........
8000b64c:	00080040 00300020 8000b78c 00080000     ...@.0. ........
8000b65c:	00080040 00380020 8000b78c 00080000     ...@.8. ........
8000b66c:	00080040 00000028 8000b78c 00080000     ...@...(........
8000b67c:	00080040 00080028 8000b78c 00080000     ...@...(........
8000b68c:	00080040 00100028 8000b78c 00080000     ...@...(........
8000b69c:	00080040 00180028 8000b78c 00080000     ...@...(........
8000b6ac:	00080040 00200028 8000b78c 00080000     ...@. .(........
8000b6bc:	00080040 00280028 8000b78c 00080000     ...@.(.(........
8000b6cc:	00080040 00300028 8000b78c 00080000     ...@.0.(........
8000b6dc:	00080040 00380028 8000b78c 00080000     ...@.8.(........
8000b6ec:	00080040 00000030 8000b78c 00080000     ...@...0........
8000b6fc:	00080040 00080030 8000b78c 00080000     ...@...0........
8000b70c:	00080040 00100030 8000b78c 00080000     ...@...0........
8000b71c:	00080040 00180030 8000b78c 00080000     ...@...0........
8000b72c:	00080040 00200030 8000b78c 00080000     ...@. .0........

8000b73c <gbfont_string>:
8000b73c:	41424344 45464748 494a4b4c 4d4e4f50     ABCDEFGHIJKLMNOP
8000b74c:	51525354 55565758 595a6162 63646566     QRSTUVWXYZabcdef
8000b75c:	6768696a 6b6c6d6e 6f707172 73747576     ghijklmnopqrstuv
8000b76c:	7778797a 30313233 34353637 38392e3f     wxyz0123456789.?
8000b77c:	212c405b 5d27225c 2b2d3d2f 28290000     !,@[]'"\+-=/()..

8000b78c <gbfont_img>:
	...
8000b7ac:	00fff000 ffffff00 00ffff00 fffff000     ................
8000b7bc:	fffffff0 fffffff0 00fffff0 ff000ff0     ................
8000b7cc:	0ff0ff00 ff000ff0 0ff00ff0 ff00ff00     ................
8000b7dc:	ff000000 ff000000 0ff00000 ff000ff0     ................
8000b7ec:	ff000ff0 ff000ff0 ff000000 ff000ff0     ................
8000b7fc:	ff000000 ff000000 ff000000 ff000ff0     ................
8000b80c:	ff000ff0 ffffff00 ff000000 ff000ff0     ................
8000b81c:	ffffff00 ffffff00 ff00fff0 fffffff0     ................
8000b82c:	fffffff0 ff000ff0 ff000000 ff000ff0     ................
8000b83c:	ff000000 ff000000 ff000ff0 ff000ff0     ................
8000b84c:	ff000ff0 ff000ff0 0ff00ff0 ff00ff00     ................
8000b85c:	ff000000 ff000000 0ff00ff0 ff000ff0     ................
8000b86c:	ff000ff0 ffffff00 00ffff00 fffff000     ................
8000b87c:	fffffff0 ff000000 00fffff0 ff000ff0     ................
	...
8000b8ac:	ffffff00 00000ff0 ff000ff0 ff000000     ................
8000b8bc:	ff000ff0 ff000ff0 0fffff00 ffffff00     ................
8000b8cc:	00ff0000 00000ff0 ff00ff00 ff000000     ................
8000b8dc:	fff0fff0 fff00ff0 ff000ff0 ff000ff0     ................
8000b8ec:	00ff0000 00000ff0 ff0ff000 ff000000     ................
8000b8fc:	fffffff0 ffff0ff0 ff000ff0 ff000ff0     ................
8000b90c:	00ff0000 00000ff0 ffff0000 ff000000     ................
8000b91c:	fffffff0 fffffff0 ff000ff0 ff000ff0     ................
8000b92c:	00ff0000 00000ff0 fffff000 ff000000     ................
8000b93c:	ff0f0ff0 ff0ffff0 ff000ff0 ffffff00     ................
8000b94c:	00ff0000 ff000ff0 ff0fff00 ff000000     ................
8000b95c:	ff000ff0 ff00fff0 ff000ff0 ff000000     ................
8000b96c:	ffffff00 0fffff00 ff00fff0 fffffff0     ................
8000b97c:	ff000ff0 ff000ff0 0fffff00 ff000000     ................
	...
8000b9ac:	0fffff00 ffffff00 0ffff000 ffffff00     ................
8000b9bc:	ff000ff0 ff000ff0 ff000ff0 ff000ff0     ................
8000b9cc:	ff000ff0 ff000ff0 ff00ff00 00ff0000     ................
8000b9dc:	ff000ff0 ff000ff0 ff000ff0 fff0fff0     ................
8000b9ec:	ff000ff0 ff000ff0 ff000000 00ff0000     ................
8000b9fc:	ff000ff0 ff000ff0 ff0f0ff0 0fffff00     ................
8000ba0c:	ff000ff0 ff00fff0 0fffff00 00ff0000     ................
8000ba1c:	ff000ff0 fff0fff0 fffffff0 00fff000     ................
8000ba2c:	ff0ffff0 fffff000 00000ff0 00ff0000     ................
8000ba3c:	ff000ff0 0fffff00 fffffff0 0fffff00     ................
8000ba4c:	ff00ff00 ff0fff00 ff000ff0 00ff0000     ................
8000ba5c:	ff000ff0 00fff000 fff0fff0 fff0fff0     ................
8000ba6c:	0ffff0f0 ff00fff0 0fffff00 00ff0000     ................
8000ba7c:	0fffff00 000f0000 ff000ff0 ff000ff0     ................
	...
8000baac:	ff00ff00 fffffff0 00fff000 00ff0000     ................
8000babc:	0fffff00 0ffffff0 000fff00 ffffff00     ................
8000bacc:	ff00ff00 0000fff0 0f00ff00 ffff0000     ................
8000badc:	ff000ff0 0000ff00 00ffff00 ff000000     ................
8000baec:	ff00ff00 000fff00 ff000ff0 00ff0000     ................
8000bafc:	0000fff0 000ff000 0ff0ff00 ffffff00     ................
8000bb0c:	0ffff000 00fff000 ff000ff0 00ff0000     ................
8000bb1c:	00ffff00 00ffff00 ff00ff00 00000ff0     ................
8000bb2c:	00ff0000 0fff0000 ff000ff0 00ff0000     ................
8000bb3c:	0ffff000 00000ff0 fffffff0 00000ff0     ................
8000bb4c:	00ff0000 fff00000 0ff00f00 00ff0000     ................
8000bb5c:	fff00000 ff000ff0 0000ff00 ff000ff0     ................
8000bb6c:	00ff0000 fffffff0 00fff000 ffffff00     ................
8000bb7c:	fffffff0 0fffff00 0000ff00 0fffff00     ................
	...
8000bbac:	00ffff00 fffffff0 0ffff000 0fffff00     ................
8000bbbc:	00000000 0fffff00 000fff00 00000000     ................
8000bbcc:	0ff00000 ff000ff0 ff000f00 ff000ff0     ................
8000bbdc:	00000000 ff000ff0 000fff00 00000000     ................
8000bbec:	ff000000 0000ff00 fff00f00 ff000ff0     ................
8000bbfc:	00000000 0000fff0 00fff000 00000000     ................
8000bc0c:	ffffff00 000ff000 0ffff000 0ffffff0     ................
8000bc1c:	00000000 000ff000 00ff0000 00ff0000     ................
8000bc2c:	ff000ff0 00ff0000 f00ffff0 00000ff0     ................
8000bc3c:	00000000 000f0000 00f00000 00ff0000     ................
8000bc4c:	ff000ff0 00ff0000 f0000ff0 0000ff00     ................
8000bc5c:	00ff0000 00000000 00000000 000f0000     ................
8000bc6c:	0fffff00 00ff0000 0fffff00 0ffff000     ................
8000bc7c:	00ff0000 000f0000 0f000000 00f00000     ................
8000bc8c:	00000000 00ffff00 0ffff000 00000000     ................
	...
8000bcac:	0fffff00 00ff0000 000ff000 00ff0000     ................
8000bcbc:	0ff0ff00 f0000000 00000000 00000000     ................
8000bccc:	ff000ff0 00ff0000 000ff000 00ff0000     ................
8000bcdc:	0ff0ff00 0f000000 00ff0000 00000000     ................
8000bcec:	ff0ffff0 00ff0000 000ff000 000f0000     ................
8000bcfc:	00f00f00 00f00000 00ff0000 00000000     ................
8000bd0c:	ff0f0ff0 00ff0000 000ff000 00f00000     ................
8000bd1c:	0f00f000 000f0000 ffffff00 0fffff00     ................
8000bd2c:	ff0fff00 00ff0000 000ff000 00000000     ................
8000bd3c:	00000000 0000f000 00ff0000 00000000     ................
8000bd4c:	ff000000 00ff0000 000ff000 00000000     ................
8000bd5c:	00000000 00000f00 00ff0000 00000000     ................
8000bd6c:	0fffff00 00ffff00 0ffff000 00000000     ................
8000bd7c:	00000000 000000f0 00000000 00000000     ................
	...
8000bd94:	0000ff00 0ff00000 00000000 00000000     ................
	...
8000bdb0:	000000f0 000ff000 00ff0000 00000000     ................
	...
8000bdd0:	00000f00 000ff000 00ff0000 00000000     ................
	...
8000bdec:	ffffff00 0000f000 000ff000 00ff0000     ................
	...
8000be10:	000f0000 000ff000 00ff0000 00000000     ................
	...
8000be2c:	ffffff00 00f00000 000ff000 00ff0000     ................
	...
8000be50:	0f000000 000ff000 00ff0000 00000000     ................
	...
8000be70:	f0000000 0000ff00 0ff00000 00000000     ................
	...

8000bf90 <taskHeader>:
8000bf90:	00000001 00000002 00000000 00000000     ................
8000bfa0:	00000000 00001000 00000000 00000800     ................
8000bfb0:	800fb600 00000400 8007b600 800fb600     ................
	...

8000bfd0 <__osPiDevMgr>:
	...

8000bfec <__osPiTable>:
8000bfec:	00000000                                ....

8000bff0 <__osCurrentHandle>:
8000bff0:	800fe578 800fe470 00000000 00000000     ...x...p........

8000c000 <first.2>:
8000c000:	00000001 00000000 00000000 00000000     ................

8000c010 <__osPiAccessQueueEnabled>:
	...

8000c020 <__osPreNMI>:
	...

8000c030 <prev_bmbuf>:
8000c030:	00000000                                ....

8000c034 <sp_attr>:
	...

8000c040 <__osThreadTail>:
8000c040:	00000000 ffffffff                       ........

8000c048 <__osRunQueue>:
8000c048:	8000c040                                ...@

8000c04c <__osActiveQueue>:
8000c04c:	8000c040                                ...@

8000c050 <__osRunningThread>:
8000c050:	00000000                                ....

8000c054 <__osFaultedThread>:
	...

8000c060 <__osViDevMgr>:
	...

8000c07c <__additional_scanline>:
8000c07c:	00000000                                ....

8000c080 <osViModeTable>:
8000c080:	00000000 0000320e 00000140 03e52239     ......2....@.."9
8000c090:	0000020d 00000c15 0c150c15 006c02ec     .............l..
8000c0a0:	00000200 00000000 00000280 00000400     ................
8000c0b0:	002501ff 000e0204 00000002 00000280     .%..............
8000c0c0:	00000400 002501ff 000e0204 00000002     .....%..........
8000c0d0:	01000000 0000324e 00000140 03e52239     ......2N...@.."9
8000c0e0:	0000020c 00000c15 0c150c15 006c02ec     .............l..
8000c0f0:	00000200 00000000 00000280 01000400     ................
8000c100:	002301fd 000e0204 00000002 00000280     .#..............
8000c110:	03000400 002501ff 000e0204 00000002     .....%..........
8000c120:	02000000 0000311e 00000140 03e52239     ......1....@.."9
8000c130:	0000020d 00000c15 0c150c15 006c02ec     .............l..
8000c140:	00000200 00000000 00000280 00000400     ................
8000c150:	002501ff 000e0204 00000002 00000280     .%..............
8000c160:	00000400 002501ff 000e0204 00000002     .....%..........
8000c170:	03000000 0000305e 00000140 03e52239     ......0^...@.."9
8000c180:	0000020c 00000c15 0c150c15 006c02ec     .............l..
8000c190:	00000200 00000000 00000280 01000400     ................
8000c1a0:	002301fd 000e0204 00000002 00000280     .#..............
8000c1b0:	03000400 002501ff 000e0204 00000002     .....%..........
8000c1c0:	04000000 0000330f 00000140 03e52239     ......3....@.."9
8000c1d0:	0000020d 00000c15 0c150c15 006c02ec     .............l..
8000c1e0:	00000200 00000000 00000500 00000400     ................
8000c1f0:	002501ff 000e0204 00000002 00000500     .%..............
8000c200:	00000400 002501ff 000e0204 00000002     .....%..........
8000c210:	05000000 0000324f 00000140 03e52239     ......2O...@.."9
8000c220:	0000020c 00000c15 0c150c15 006c02ec     .............l..
8000c230:	00000200 00000000 00000500 01000400     ................
8000c240:	002301fd 000e0204 00000002 00000500     .#..............
8000c250:	03000400 002501ff 000e0204 00000002     .....%..........
8000c260:	06000000 0000301f 00000140 03e52239     ......0....@.."9
8000c270:	0000020d 00000c15 0c150c15 006c02ec     .............l..
8000c280:	00000200 00000000 00000500 00000400     ................
8000c290:	002501ff 000e0204 00000002 00000500     .%..............
8000c2a0:	00000400 002501ff 000e0204 00000002     .....%..........
8000c2b0:	07000000 0000305f 00000140 03e52239     ......0_...@.."9
8000c2c0:	0000020c 00000c15 0c150c15 006c02ec     .............l..
8000c2d0:	00000200 00000000 00000500 01000400     ................
8000c2e0:	002301fd 000e0204 00000002 00000500     .#..............
8000c2f0:	03000400 002501ff 000e0204 00000002     .....%..........
8000c300:	08000000 0000324e 00000500 03e52239     ......2N......"9
8000c310:	0000020c 00000c15 0c150c15 006c02ec     .............l..
8000c320:	00000400 00000000 00000500 00000400     ................
8000c330:	002301fd 000e0204 00000002 00000a00     .#..............
8000c340:	00000400 002501ff 000e0204 00000002     .....%..........
8000c350:	09000000 0000324e 00000280 03e52239     ......2N......"9
8000c360:	0000020c 00000c15 0c150c15 006c02ec     .............l..
8000c370:	00000400 00000000 00000500 02000800     ................
8000c380:	002301fd 000e0204 00000002 00000a00     .#..............
8000c390:	02000800 002501ff 000e0204 00000002     .....%..........
8000c3a0:	0a000000 0000305e 00000500 03e52239     ......0^......"9
8000c3b0:	0000020c 00000c15 0c150c15 006c02ec     .............l..
8000c3c0:	00000400 00000000 00000500 00000400     ................
8000c3d0:	002301fd 000e0204 00000002 00000a00     .#..............
8000c3e0:	00000400 002501ff 000e0204 00000002     .....%..........
8000c3f0:	0b000000 0000305e 00000280 03e52239     ......0^......"9
8000c400:	0000020c 00000c15 0c150c15 006c02ec     .............l..
8000c410:	00000400 00000000 00000500 02000800     ................
8000c420:	002301fd 000e0204 00000002 00000a00     .#..............
8000c430:	02000800 002501ff 000e0204 00000002     .....%..........
8000c440:	0c000000 0000334f 00000500 03e52239     ......3O......"9
8000c450:	0000020c 00000c15 0c150c15 006c02ec     .............l..
8000c460:	00000400 00000000 00000a00 00000400     ................
8000c470:	002301fd 000e0204 00000002 00001400     .#..............
8000c480:	00000400 002501ff 000e0204 00000002     .....%..........
8000c490:	0d000000 0000324f 00000280 03e52239     ......2O......"9
8000c4a0:	0000020c 00000c15 0c150c15 006c02ec     .............l..
8000c4b0:	00000400 00000000 00000a00 02000800     ................
8000c4c0:	002301fd 000e0204 00000002 00001400     .#..............
8000c4d0:	02000800 002501ff 000e0204 00000002     .....%..........
8000c4e0:	0e000000 0000320e 00000140 04541e3a     ......2....@.T.:
8000c4f0:	00000271 00170c69 0c6f0c6d 00800300     ...q...i.o.m....
8000c500:	00000200 00000000 00000280 00000400     ................
8000c510:	005f0239 0009026b 00000002 00000280     ._.9...k........
8000c520:	00000400 005f0239 0009026b 00000002     ....._.9...k....
8000c530:	0f000000 0000324e 00000140 04541e3a     ......2N...@.T.:
8000c540:	00000270 00170c69 0c6f0c6d 00800300     ...p...i.o.m....
8000c550:	00000200 00000000 00000280 01000400     ................
8000c560:	005d0237 0009026b 00000002 00000280     .].7...k........
8000c570:	03000400 005f0239 000d0269 00000002     ....._.9...i....
8000c580:	10000000 0000311e 00000140 04541e3a     ......1....@.T.:
8000c590:	00000271 00170c69 0c6f0c6d 00800300     ...q...i.o.m....
8000c5a0:	00000200 00000000 00000280 00000400     ................
8000c5b0:	005f0239 0009026b 00000002 00000280     ._.9...k........
8000c5c0:	00000400 005f0239 0009026b 00000002     ....._.9...k....
8000c5d0:	11000000 0000305e 00000140 04541e3a     ......0^...@.T.:
8000c5e0:	00000270 00170c69 0c6f0c6d 00800300     ...p...i.o.m....
8000c5f0:	00000200 00000000 00000280 01000400     ................
8000c600:	005d0237 0009026b 00000002 00000280     .].7...k........
8000c610:	03000400 005f0239 000d0269 00000002     ....._.9...i....
8000c620:	12000000 0000330f 00000140 04541e3a     ......3....@.T.:
8000c630:	00000271 00170c69 0c6f0c6d 00800300     ...q...i.o.m....
8000c640:	00000200 00000000 00000500 00000400     ................
8000c650:	005f0239 0009026b 00000002 00000500     ._.9...k........
8000c660:	00000400 005f0239 0009026b 00000002     ....._.9...k....
8000c670:	13000000 0000324f 00000140 04541e3a     ......2O...@.T.:
8000c680:	00000270 00170c69 0c6f0c6d 00800300     ...p...i.o.m....
8000c690:	00000200 00000000 00000500 01000400     ................
8000c6a0:	005d0237 0009026b 00000002 00000500     .].7...k........
8000c6b0:	03000400 005f0239 000d0269 00000002     ....._.9...i....
8000c6c0:	14000000 0000301f 00000140 04541e3a     ......0....@.T.:
8000c6d0:	00000271 00170c69 0c6f0c6d 00800300     ...q...i.o.m....
8000c6e0:	00000200 00000000 00000500 00000400     ................
8000c6f0:	005f0239 0009026b 00000002 00000500     ._.9...k........
8000c700:	00000400 005f0239 0009026b 00000002     ....._.9...k....
8000c710:	15000000 0000305f 00000140 04541e3a     ......0_...@.T.:
8000c720:	00000270 00170c69 0c6f0c6d 00800300     ...p...i.o.m....
8000c730:	00000200 00000000 00000500 01000400     ................
8000c740:	005d0237 0009026b 00000002 00000500     .].7...k........
8000c750:	03000400 005f0239 000d0269 00000002     ....._.9...i....
8000c760:	16000000 0000324e 00000500 04541e3a     ......2N.....T.:
8000c770:	00000270 00170c69 0c6f0c6d 00800300     ...p...i.o.m....
8000c780:	00000400 00000000 00000500 00000400     ................
8000c790:	005d0237 0009026b 00000002 00000a00     .].7...k........
8000c7a0:	00000400 005f0239 000d0269 00000002     ....._.9...i....
8000c7b0:	17000000 0000324e 00000280 04541e3a     ......2N.....T.:
8000c7c0:	00000270 00170c69 0c6f0c6d 00800300     ...p...i.o.m....
8000c7d0:	00000400 00000000 00000500 02000800     ................
8000c7e0:	005d0237 0009026b 00000002 00000a00     .].7...k........
8000c7f0:	02000800 005f0239 000d0269 00000002     ....._.9...i....
8000c800:	18000000 0000305e 00000500 04541e3a     ......0^.....T.:
8000c810:	00000270 00170c69 0c6f0c6d 00800300     ...p...i.o.m....
8000c820:	00000400 00000000 00000500 00000400     ................
8000c830:	005d0237 0009026b 00000002 00000a00     .].7...k........
8000c840:	00000400 005f0239 000d0269 00000002     ....._.9...i....
8000c850:	19000000 0000305e 00000280 04541e3a     ......0^.....T.:
8000c860:	00000270 00170c69 0c6f0c6d 00800300     ...p...i.o.m....
8000c870:	00000400 00000000 00000500 02000800     ................
8000c880:	005d0237 0009026b 00000002 00000a00     .].7...k........
8000c890:	02000800 005f0239 000d0269 00000002     ....._.9...i....
8000c8a0:	1a000000 0000334f 00000500 04541e3a     ......3O.....T.:
8000c8b0:	00000270 00170c69 0c6f0c6d 00800300     ...p...i.o.m....
8000c8c0:	00000400 00000000 00000a00 00000400     ................
8000c8d0:	005d0237 0009026b 00000002 00001400     .].7...k........
8000c8e0:	00000400 005f0239 000d0269 00000002     ....._.9...i....
8000c8f0:	1b000000 0000324f 00000280 04541e3a     ......2O.....T.:
8000c900:	00000270 00170c69 0c6f0c6d 00800300     ...p...i.o.m....
8000c910:	00000400 00000000 00000a00 02000800     ................
8000c920:	005d0237 0009026b 00000002 00001400     .].7...k........
8000c930:	02000800 005f0239 000d0269 00000002     ....._.9...i....
8000c940:	1c000000 0000320e 00000140 04651e39     ......2....@.e.9
8000c950:	0000020d 00040c11 0c190c1a 006c02ec     .............l..
8000c960:	00000200 00000000 00000280 00000400     ................
8000c970:	002501ff 000e0204 00000002 00000280     .%..............
8000c980:	00000400 002501ff 000e0204 00000002     .....%..........
8000c990:	1d000000 0000324e 00000140 04651e39     ......2N...@.e.9
8000c9a0:	0000020c 00000c10 0c1c0c1c 006c02ec     .............l..
8000c9b0:	00000200 00000000 00000280 01000400     ................
8000c9c0:	002301fd 000b0202 00000002 00000280     .#..............
8000c9d0:	03000400 002501ff 000e0204 00000002     .....%..........
8000c9e0:	1e000000 0000311e 00000140 04651e39     ......1....@.e.9
8000c9f0:	0000020d 00040c11 0c190c1a 006c02ec     .............l..
8000ca00:	00000200 00000000 00000280 00000400     ................
8000ca10:	002501ff 000e0204 00000002 00000280     .%..............
8000ca20:	00000400 002501ff 000e0204 00000002     .....%..........
8000ca30:	1f000000 0000305e 00000140 04651e39     ......0^...@.e.9
8000ca40:	0000020c 00000c10 0c1c0c1c 006c02ec     .............l..
8000ca50:	00000200 00000000 00000280 01000400     ................
8000ca60:	002301fd 000b0202 00000002 00000280     .#..............
8000ca70:	03000400 002501ff 000e0204 00000002     .....%..........
8000ca80:	20000000 0000330f 00000140 04651e39      .....3....@.e.9
8000ca90:	0000020d 00040c11 0c190c1a 006c02ec     .............l..
8000caa0:	00000200 00000000 00000500 00000400     ................
8000cab0:	002501ff 000e0204 00000002 00000500     .%..............
8000cac0:	00000400 002501ff 000e0204 00000002     .....%..........
8000cad0:	21000000 0000324f 00000140 04651e39     !.....2O...@.e.9
8000cae0:	0000020c 00000c10 0c1c0c1c 006c02ec     .............l..
8000caf0:	00000200 00000000 00000500 01000400     ................
8000cb00:	002301fd 000b0202 00000002 00000500     .#..............
8000cb10:	03000400 002501ff 000e0204 00000002     .....%..........
8000cb20:	22000000 0000301f 00000140 04651e39     ".....0....@.e.9
8000cb30:	0000020d 00040c11 0c190c1a 006c02ec     .............l..
8000cb40:	00000200 00000000 00000500 00000400     ................
8000cb50:	002501ff 000e0204 00000002 00000500     .%..............
8000cb60:	00000400 002501ff 000e0204 00000002     .....%..........
8000cb70:	23000000 0000305f 00000140 04651e39     #.....0_...@.e.9
8000cb80:	0000020c 00000c10 0c1c0c1c 006c02ec     .............l..
8000cb90:	00000200 00000000 00000500 01000400     ................
8000cba0:	002301fd 000b0202 00000002 00000500     .#..............
8000cbb0:	03000400 002501ff 000e0204 00000002     .....%..........
8000cbc0:	24000000 0000324e 00000500 04651e39     $.....2N.....e.9
8000cbd0:	0000020c 00000c10 0c1c0c1c 006c02ec     .............l..
8000cbe0:	00000400 00000000 00000500 00000400     ................
8000cbf0:	002301fd 000b0202 00000002 00000a00     .#..............
8000cc00:	00000400 002501ff 000e0204 00000002     .....%..........
8000cc10:	25000000 0000324e 00000280 04651e39     %.....2N.....e.9
8000cc20:	0000020c 00000c10 0c1c0c1c 006c02ec     .............l..
8000cc30:	00000400 00000000 00000500 02000800     ................
8000cc40:	002301fd 000b0202 00000002 00000a00     .#..............
8000cc50:	02000800 002501ff 000e0204 00000002     .....%..........
8000cc60:	26000000 0000305e 00000500 04651e39     &.....0^.....e.9
8000cc70:	0000020c 00000c10 0c1c0c1c 006c02ec     .............l..
8000cc80:	00000400 00000000 00000500 00000400     ................
8000cc90:	002301fd 000b0202 00000002 00000a00     .#..............
8000cca0:	00000400 002501ff 000e0204 00000002     .....%..........
8000ccb0:	27000000 0000305e 00000280 04651e39     '.....0^.....e.9
8000ccc0:	0000020c 00000c10 0c1c0c1c 006c02ec     .............l..
8000ccd0:	00000400 00000000 00000500 02000800     ................
8000cce0:	002301fd 000b0202 00000002 00000a00     .#..............
8000ccf0:	02000800 002501ff 000e0204 00000002     .....%..........
8000cd00:	28000000 0000334f 00000500 04651e39     (.....3O.....e.9
8000cd10:	0000020c 00000c10 0c1c0c1c 006c02ec     .............l..
8000cd20:	00000400 00000000 00000a00 00000400     ................
8000cd30:	002301fd 000b0202 00000002 00001400     .#..............
8000cd40:	00000400 002501ff 000e0204 00000002     .....%..........
8000cd50:	29000000 0000324f 00000280 04651e39     ).....2O.....e.9
8000cd60:	0000020c 00000c10 0c1c0c1c 006c02ec     .............l..
8000cd70:	00000400 00000000 00000a00 02000800     ................
8000cd80:	002301fd 000b0202 00000002 00001400     .#..............
8000cd90:	02000800 002501ff 000e0204 00000002     .....%..........
8000cda0:	2a000000 0000320e 00000140 04541e3a     *.....2....@.T.:
8000cdb0:	00000271 00170c69 0c6f0c6d 00800300     ...q...i.o.m....
8000cdc0:	00000200 00000000 00000280 00000400     ................
8000cdd0:	002f0269 0009026b 00000002 00000280     ./.i...k........
8000cde0:	00000400 002f0269 0009026b 00000002     ...../.i...k....
8000cdf0:	2b000000 0000324e 00000140 04541e3a     +.....2N...@.T.:
8000ce00:	00000270 00170c69 0c6f0c6d 00800300     ...p...i.o.m....
8000ce10:	00000200 00000000 00000280 01000400     ................
8000ce20:	002d0267 0009026b 00000002 00000280     .-.g...k........
8000ce30:	03000400 002f0269 000d0269 00000002     ...../.i...i....
8000ce40:	2c000000 0000311e 00000140 04541e3a     ,.....1....@.T.:
8000ce50:	00000271 00170c69 0c6f0c6d 00800300     ...q...i.o.m....
8000ce60:	00000200 00000000 00000280 00000400     ................
8000ce70:	002f0269 0009026b 00000002 00000280     ./.i...k........
8000ce80:	00000400 002f0269 0009026b 00000002     ...../.i...k....
8000ce90:	2d000000 0000305e 00000140 04541e3a     -.....0^...@.T.:
8000cea0:	00000270 00170c69 0c6f0c6d 00800300     ...p...i.o.m....
8000ceb0:	00000200 00000000 00000280 01000400     ................
8000cec0:	002d0267 0009026b 00000002 00000280     .-.g...k........
8000ced0:	03000400 002f0269 000d0269 00000002     ...../.i...i....
8000cee0:	2e000000 0000330f 00000140 04541e3a     ......3....@.T.:
8000cef0:	00000271 00170c69 0c6f0c6d 00800300     ...q...i.o.m....
8000cf00:	00000200 00000000 00000500 00000400     ................
8000cf10:	002f0269 0009026b 00000002 00000500     ./.i...k........
8000cf20:	00000400 002f0269 0009026b 00000002     ...../.i...k....
8000cf30:	2f000000 0000324f 00000140 04541e3a     /.....2O...@.T.:
8000cf40:	00000270 00170c69 0c6f0c6d 00800300     ...p...i.o.m....
8000cf50:	00000200 00000000 00000500 01000400     ................
8000cf60:	002d0267 0009026b 00000002 00000500     .-.g...k........
8000cf70:	03000400 002f0269 000d0269 00000002     ...../.i...i....
8000cf80:	30000000 0000301f 00000140 04541e3a     0.....0....@.T.:
8000cf90:	00000271 00170c69 0c6f0c6d 00800300     ...q...i.o.m....
8000cfa0:	00000200 00000000 00000500 00000400     ................
8000cfb0:	002f0269 0009026b 00000002 00000500     ./.i...k........
8000cfc0:	00000400 002f0269 0009026b 00000002     ...../.i...k....
8000cfd0:	31000000 0000305f 00000140 04541e3a     1.....0_...@.T.:
8000cfe0:	00000270 00170c69 0c6f0c6d 00800300     ...p...i.o.m....
8000cff0:	00000200 00000000 00000500 01000400     ................
8000d000:	002d0267 0009026b 00000002 00000500     .-.g...k........
8000d010:	03000400 002f0269 000d0269 00000002     ...../.i...i....
8000d020:	32000000 0000324e 00000500 04541e3a     2.....2N.....T.:
8000d030:	00000270 00170c69 0c6f0c6d 00800300     ...p...i.o.m....
8000d040:	00000400 00000000 00000500 00000400     ................
8000d050:	002d0267 0009026b 00000002 00000a00     .-.g...k........
8000d060:	00000400 002f0269 000d0269 00000002     ...../.i...i....
8000d070:	33000000 0000324e 00000280 04541e3a     3.....2N.....T.:
8000d080:	00000270 00170c69 0c6f0c6d 00800300     ...p...i.o.m....
8000d090:	00000400 00000000 00000500 02000800     ................
8000d0a0:	002d0267 0009026b 00000002 00000a00     .-.g...k........
8000d0b0:	02000800 002f0269 000d0269 00000002     ...../.i...i....
8000d0c0:	34000000 0000305e 00000500 04541e3a     4.....0^.....T.:
8000d0d0:	00000270 00170c69 0c6f0c6d 00800300     ...p...i.o.m....
8000d0e0:	00000400 00000000 00000500 00000400     ................
8000d0f0:	002d0267 0009026b 00000002 00000a00     .-.g...k........
8000d100:	00000400 002f0269 000d0269 00000002     ...../.i...i....
8000d110:	35000000 0000305e 00000280 04541e3a     5.....0^.....T.:
8000d120:	00000270 00170c69 0c6f0c6d 00800300     ...p...i.o.m....
8000d130:	00000400 00000000 00000500 02000800     ................
8000d140:	002d0267 0009026b 00000002 00000a00     .-.g...k........
8000d150:	02000800 002f0269 000d0269 00000002     ...../.i...i....
8000d160:	36000000 0000334f 00000500 04541e3a     6.....3O.....T.:
8000d170:	00000270 00170c69 0c6f0c6d 00800300     ...p...i.o.m....
8000d180:	00000400 00000000 00000a00 00000400     ................
8000d190:	002d0267 0009026b 00000002 00001400     .-.g...k........
8000d1a0:	00000400 002f0269 000d0269 00000002     ...../.i...i....
8000d1b0:	37000000 0000324f 00000280 04541e3a     7.....2O.....T.:
8000d1c0:	00000270 00170c69 0c6f0c6d 00800300     ...p...i.o.m....
8000d1d0:	00000400 00000000 00000a00 02000800     ................
8000d1e0:	002d0267 0009026b 00000002 00001400     .-.g...k........
8000d1f0:	02000800 002f0269 000d0269 00000002     ...../.i...i....

8000d200 <osClockRate>:
8000d200:	00000000 03b9aca0                       ........

8000d208 <osViClock>:
8000d208:	02e6d354                                ...T

8000d20c <__osShutdown>:
8000d20c:	00000000                                ....

8000d210 <__OSGlobalIntMask>:
8000d210:	003fff01 00000000 00000000 00000000     .?..............

8000d220 <__osHwIntTable>:
	...

8000d248 <__osPiIntTable>:
	...

8000d250 <spaces>:
8000d250:	20202020 20202020 20202020 20202020                     
8000d260:	20202020 20202020 20202020 20202020                     
8000d270:	00000000                                ....

8000d274 <zeroes>:
8000d274:	30303030 30303030 30303030 30303030     0000000000000000
8000d284:	30303030 30303030 30303030 30303030     0000000000000000
	...

8000d2a0 <__osTimerList>:
8000d2a0:	800fe5f0 00000000 00000000 00000000     ................

8000d2b0 <vi>:
	...

8000d310 <__osViCurr>:
8000d310:	8000d2b0                                ....

8000d314 <__osViNext>:
8000d314:	8000d2e0 00000000 00000000              ............

8000d320 <osViModeNtscLan1>:
8000d320:	02000000 0000311e 00000140 03e52239     ......1....@.."9
8000d330:	0000020d 00000c15 0c150c15 006c02ec     .............l..
8000d340:	00000200 00000000 00000280 00000400     ................
8000d350:	002501ff 000e0204 00000002 00000280     .%..............
8000d360:	00000400 002501ff 000e0204 00000002     .....%..........

8000d370 <osViModePalLan1>:
8000d370:	10000000 0000311e 00000140 04541e3a     ......1....@.T.:
8000d380:	00000271 00170c69 0c6f0c6d 00800300     ...q...i.o.m....
8000d390:	00000200 00000000 00000280 00000400     ................
8000d3a0:	005f0239 0009026b 00000002 00000280     ._.9...k........
8000d3b0:	00000400 005f0239 0009026b 00000002     ....._.9...k....

8000d3c0 <osViModeMpalLan1>:
8000d3c0:	1e000000 0000311e 00000140 04651e39     ......1....@.e.9
8000d3d0:	0000020d 00040c11 0c190c1a 006c02ec     .............l..
8000d3e0:	00000200 00000000 00000280 00000400     ................
8000d3f0:	002501ff 000e0204 00000002 00000280     .%..............
8000d400:	00000400 002501ff 000e0204 00000002     .....%..........

8000d410 <ldigs>:
8000d410:	30313233 34353637 38396162 63646566     0123456789abcdef
8000d420:	00000000                                ....

8000d424 <udigs>:
8000d424:	30313233 34353637 38394142 43444546     0123456789ABCDEF
	...

8000d440 <gspF3DEX2_fifoDataStart>:
	...
8000d500:	ed000000 005003c0 ef080cff 00000000     .....P..........
	...
8000d51c:	ffff0048 00000000 00000000 00000000     ...H............
	...
8000d578:	52535020 47667820 75636f64 65204633     RSP Gfx ucode F3
8000d588:	44455820 20202020 20206669 666f2032     DEX       fifo 2
8000d598:	2e303820 20596f73 68697461 6b612059     .08  Yoshitaka Y
8000d5a8:	6173756d 6f746f20 31393939 204e696e     asumoto 1999 Nin
8000d5b8:	74656e64 6f2e0a00 00010000 00000002     tendo...........
8000d5c8:	00000001 00000002 00010000 0000fffe     ................
8000d5d8:	00000001 0000fffe 00000000 0001ffff     ................
8000d5e8:	00000000 00010001 ffff0004 00087f00     ................
8000d5f8:	fffc4000 04207fff 7ffc1400 10000100     ..@.. ..........
8000d608:	fff0fff8 00100020 c00044d3 6cb30002     ....... ..D.l...
8000d618:	00010000 01000ba8 00000000 00000000     ................
8000d628:	00000000 00800000 00000000 00000000     ................
	...
8000d720:	00000f80 00971000 00001018 016f1000     .............o..
8000d730:	09d00000 09d00040 00e001f0 04200080     .......@..... ..
8000d740:	01da0180 00f801e0 022001d8 00da1190     ......... ......
8000d750:	10781190 11941194 119411c0 1028104c     .x...........(.L
8000d760:	11d810f0 10381120 1fac1000 11ec1194     .....8. ........
8000d770:	10301140 113c102c 102c1214 12141214     .0.@.<.,.,......
8000d780:	12141210 12101210 124c1210 12401210     .........L...@..
8000d790:	12001210 12101210 12101210 12101210     ................
8000d7a0:	12101210 12101210 12201220 12201214     ......... . . ..
8000d7b0:	14f81c80 1c401c68 17bc17b4 17b41194     .....@.h........
8000d7c0:	04200448 04700498 04c004e8 05100538     . .H.p.........8
8000d7d0:	05600588 05b005d8 06000628 06500678     .`.........(.P.x
8000d7e0:	06a006c8 06f00718 07400768 079007b8     .........@.h....
8000d7f0:	07e00808 08300858 088008a8 08d008f8     .....0.X........
8000d800:	0920ffff 80000000 00008000 30304040     . ..........00@@
	...
8000d838:	00100000 00200000 10000000 20000000     ..... ...... ...
8000d848:	00004000 00000040 00001188 020712d8     ..@....@........
8000d858:	00000258 021f12d8                       ...X....

8000d860 <gspF3DEX2_fifoDataEnd>:
8000d860:	800018f4 80001814 80001848 80001904     ...........H....
8000d870:	80001904 8000187c 800018b8 00000000     .......|........
8000d880:	80002628 800028c4 80002b58 800032a0     ..&(..(...+X..2.
8000d890:	800035a0 80002454 00000000 00000000     ..5...$T........
8000d8a0:	41f00000 00000000 00000000 00000000     A...............

8000d8b0 <__osIntOffTable>:
8000d8b0:	00141818 1c1c1c1c 20202020 20202020     ........        
8000d8c0:	00040808 0c0c0c0c 10101010 10101010     ................

8000d8d0 <__osIntTable>:
8000d8d0:	80005cc0 80005c84 80005c60 80005a88     ..\...\...\`..Z.
8000d8e0:	80005a40 80005bfc 80005a04 80005a10     ..Z@..[...Z...Z.
8000d8f0:	80005a1c 00000000 00000000 00000000     ..Z.............

8000d900 <__osRcpImTable>:
8000d900:	05550556 0559055a 05650566 0569056a     .U.V.Y.Z.e.f.i.j
8000d910:	05950596 0599059a 05a505a6 05a905aa     ................
8000d920:	06550656 0659065a 06650666 0669066a     .U.V.Y.Z.e.f.i.j
8000d930:	06950696 0699069a 06a506a6 06a906aa     ................
8000d940:	09550956 0959095a 09650966 0969096a     .U.V.Y.Z.e.f.i.j
8000d950:	09950996 0999099a 09a509a6 09a909aa     ................
8000d960:	0a550a56 0a590a5a 0a650a66 0a690a6a     .U.V.Y.Z.e.f.i.j
8000d970:	0a950a96 0a990a9a 0aa50aa6 0aa90aaa     ................

8000d980 <fchar.2>:
8000d980:	202b2d23 30000000                        +-#0...

8000d988 <fbit.3>:
8000d988:	00000001 00000002 00000004 00000008     ................
8000d998:	00000010 00000000 686c4c00 00000000     ........hlL.....
8000d9a8:	800074d0 800074ec 800074ec 800074ec     ..t...t...t...t.
8000d9b8:	800074ec 800074ec 800074ec 800074ec     ..t...t...t...t.
8000d9c8:	800074ec 800074ec 800074ec 800074ec     ..t...t...t...t.
8000d9d8:	800074ec 800074ec 800074ec 800074ec     ..t...t...t...t.
8000d9e8:	800074ec 800074ec 800074ec 800074ec     ..t...t...t...t.
8000d9f8:	800074ec 800074ec 800074ec 800074ec     ..t...t...t...t.
8000da08:	800074ec 800074ec 800074ec 800074ec     ..t...t...t...t.
8000da18:	800074ec 800074ec 800074ec 800074ec     ..t...t...t...t.
8000da28:	800072ec 800074ec 800072ec 800074ec     ..r...t...r...t.
8000da38:	800074ec 800074ec 800074ec 800074ec     ..t...t...t...t.
8000da48:	800074ec 800074ec 800074ec 800074ec     ..t...t...t...t.
8000da58:	800074ec 800074ec 800074ec 800074ec     ..t...t...t...t.
8000da68:	800074ec 800074ec 800074ec 800071d4     ..t...t...t...q.
8000da78:	800074ec 800074ec 800074ec 800074ec     ..t...t...t...t.
8000da88:	800074ec 800074ec 800074ec 800074ec     ..t...t...t...t.
8000da98:	800074ec 800074ec 800070a0 800070d4     ..t...t...p...p.
8000daa8:	800072ec 800072ec 800072ec 800074ec     ..r...r...r...t.
8000dab8:	800070d4 800074ec 800074ec 800074ec     ..p...t...t...t.
8000dac8:	800074ec 800073a0 800071d4 80007440     ..t...s...q...t@
8000dad8:	800074ec 800074ec 8000748c 800074ec     ..t...t...t...t.
8000dae8:	800071d4 800074ec 800074ec 800071d4     ..q...t...t...q.
	...

8000db00 <pows>:
8000db00:	40240000 00000000 40590000 00000000     @$......@Y......
8000db10:	40c38800 00000000 4197d784 00000000     @.......A.......
8000db20:	4341c379 37e08000 4693b8b5 b5056e17     CA.y7...F.....n.
8000db30:	4d384f03 e93ff9f5 5a827748 f9301d32     M8O..?..Z.wH.0.2
8000db40:	75154fdd 7f73bf3c 4e614e00 496e6600     u.O..s.<NaN.Inf.
8000db50:	3ff00000 00000000 4197d784 00000000     ?.......A.......
8000db60:	30000000 00000000 00000000 00000000     0...............

8000db70 <__clz_tab>:
8000db70:	00010202 03030303 04040404 04040404     ................
8000db80:	05050505 05050505 05050505 05050505     ................
8000db90:	06060606 06060606 06060606 06060606     ................
8000dba0:	06060606 06060606 06060606 06060606     ................
8000dbb0:	07070707 07070707 07070707 07070707     ................
8000dbc0:	07070707 07070707 07070707 07070707     ................
8000dbd0:	07070707 07070707 07070707 07070707     ................
8000dbe0:	07070707 07070707 07070707 07070707     ................
8000dbf0:	08080808 08080808 08080808 08080808     ................
8000dc00:	08080808 08080808 08080808 08080808     ................
8000dc10:	08080808 08080808 08080808 08080808     ................
8000dc20:	08080808 08080808 08080808 08080808     ................
8000dc30:	08080808 08080808 08080808 08080808     ................
8000dc40:	08080808 08080808 08080808 08080808     ................
8000dc50:	08080808 08080808 08080808 08080808     ................
8000dc60:	08080808 08080808 08080808 08080808     ................
8000dc70:	25690000 48656c6c 6f20576f 726c6421     %i..Hello World!
8000dc80:	0a000000 00000000 3ff00000 00000000     ........?.......
